Archive member included to satisfy reference by file (symbol)

/home/lixx/ZGCX/S1_Project/SSC308QE_SDK/Iford_IMD00V005.0.1_fastboot/SourceCode/SSC308QE_SDK_TEXT/SSC308QE_CODEBASE/sdk/linux/init/sensor/../../obj/uclibc/9.1.0/sensor.o
                              (--whole-archive)
/home/lixx/ZGCX/S1_Project/SSC308QE_SDK/Iford_IMD00V005.0.1_fastboot/SourceCode/SSC308QE_SDK_TEXT/SSC308QE_CODEBASE/sdk/linux/init/sensor/csi_init.o
                              (--whole-archive)
/home/lixx/ZGCX/S1_Project/SSC308QE_SDK/Iford_IMD00V005.0.1_fastboot/SourceCode/SSC308QE_SDK_TEXT/SSC308QE_CODEBASE/sdk/linux/init/sensor/sensor_export.o
                              (--whole-archive)
/home/lixx/ZGCX/S1_Project/SSC308QE_SDK/Iford_IMD00V005.0.1_fastboot/SourceCode/SSC308QE_SDK_TEXT/SSC308QE_CODEBASE/sdk/linux/init/sensor/sensor_init.o
                              (--whole-archive)
/home/lixx/ZGCX/S1_Project/SSC308QE_SDK/Iford_IMD00V005.0.1_fastboot/SourceCode/SSC308QE_SDK_TEXT/SSC308QE_CODEBASE/sdk/linux/init/aio/../../obj/uclibc/9.1.0/aio.o
                              (--whole-archive)
/home/lixx/ZGCX/S1_Project/SSC308QE_SDK/Iford_IMD00V005.0.1_fastboot/SourceCode/SSC308QE_SDK_TEXT/SSC308QE_CODEBASE/sdk/linux/init/aio/aio_init.o
                              (--whole-archive)
/home/lixx/ZGCX/S1_Project/SSC308QE_SDK/Iford_IMD00V005.0.1_fastboot/SourceCode/SSC308QE_SDK_TEXT/SSC308QE_CODEBASE/sdk/linux/init/rgn/../../obj/uclibc/9.1.0/rgn.o
                              (--whole-archive)
/home/lixx/ZGCX/S1_Project/SSC308QE_SDK/Iford_IMD00V005.0.1_fastboot/SourceCode/SSC308QE_SDK_TEXT/SSC308QE_CODEBASE/sdk/linux/init/rgn/rgn_init.o
                              (--whole-archive)
/home/lixx/ZGCX/S1_Project/SSC308QE_SDK/Iford_IMD00V005.0.1_fastboot/SourceCode/SSC308QE_SDK_TEXT/SSC308QE_CODEBASE/sdk/linux/init/ive/../../obj/uclibc/9.1.0/ive.o
                              (--whole-archive)
/home/lixx/ZGCX/S1_Project/SSC308QE_SDK/Iford_IMD00V005.0.1_fastboot/SourceCode/SSC308QE_SDK_TEXT/SSC308QE_CODEBASE/sdk/linux/init/ive/ive_init.o
                              (--whole-archive)
/home/lixx/ZGCX/S1_Project/SSC308QE_SDK/Iford_IMD00V005.0.1_fastboot/SourceCode/SSC308QE_SDK_TEXT/SSC308QE_CODEBASE/sdk/linux/init/ao/../../obj/uclibc/9.1.0/ao.o
                              (--whole-archive)
/home/lixx/ZGCX/S1_Project/SSC308QE_SDK/Iford_IMD00V005.0.1_fastboot/SourceCode/SSC308QE_SDK_TEXT/SSC308QE_CODEBASE/sdk/linux/init/ao/ao_init.o
                              (--whole-archive)
/home/lixx/ZGCX/S1_Project/SSC308QE_SDK/Iford_IMD00V005.0.1_fastboot/SourceCode/SSC308QE_SDK_TEXT/SSC308QE_CODEBASE/sdk/linux/init/shadow/../../obj/uclibc/9.1.0/shadow.o
                              (--whole-archive)
/home/lixx/ZGCX/S1_Project/SSC308QE_SDK/Iford_IMD00V005.0.1_fastboot/SourceCode/SSC308QE_SDK_TEXT/SSC308QE_CODEBASE/sdk/linux/init/shadow/shadow_init.o
                              (--whole-archive)
/home/lixx/ZGCX/S1_Project/SSC308QE_SDK/Iford_IMD00V005.0.1_fastboot/SourceCode/SSC308QE_SDK_TEXT/SSC308QE_CODEBASE/sdk/linux/init/isp/../../obj/uclibc/9.1.0/isp.o
                              (--whole-archive)
/home/lixx/ZGCX/S1_Project/SSC308QE_SDK/Iford_IMD00V005.0.1_fastboot/SourceCode/SSC308QE_SDK_TEXT/SSC308QE_CODEBASE/sdk/linux/init/isp/isp_init.o
                              (--whole-archive)
/home/lixx/ZGCX/S1_Project/SSC308QE_SDK/Iford_IMD00V005.0.1_fastboot/SourceCode/SSC308QE_SDK_TEXT/SSC308QE_CODEBASE/sdk/linux/init/isp/ispmid_init.o
                              (--whole-archive)
/home/lixx/ZGCX/S1_Project/SSC308QE_SDK/Iford_IMD00V005.0.1_fastboot/SourceCode/SSC308QE_SDK_TEXT/SSC308QE_CODEBASE/sdk/linux/init/isp/mload_init.o
                              (--whole-archive)
/home/lixx/ZGCX/S1_Project/SSC308QE_SDK/Iford_IMD00V005.0.1_fastboot/SourceCode/SSC308QE_SDK_TEXT/SSC308QE_CODEBASE/sdk/linux/init/ipu/../../obj/uclibc/9.1.0/ipu.o
                              (--whole-archive)
/home/lixx/ZGCX/S1_Project/SSC308QE_SDK/Iford_IMD00V005.0.1_fastboot/SourceCode/SSC308QE_SDK_TEXT/SSC308QE_CODEBASE/sdk/linux/init/ipu/ipu_init.o
                              (--whole-archive)
/home/lixx/ZGCX/S1_Project/SSC308QE_SDK/Iford_IMD00V005.0.1_fastboot/SourceCode/SSC308QE_SDK_TEXT/SSC308QE_CODEBASE/sdk/linux/init/sys/../../obj/uclibc/9.1.0/sys.o
                              (--whole-archive)
/home/lixx/ZGCX/S1_Project/SSC308QE_SDK/Iford_IMD00V005.0.1_fastboot/SourceCode/SSC308QE_SDK_TEXT/SSC308QE_CODEBASE/sdk/linux/init/sys/cmdq_export.o
                              (--whole-archive)
/home/lixx/ZGCX/S1_Project/SSC308QE_SDK/Iford_IMD00V005.0.1_fastboot/SourceCode/SSC308QE_SDK_TEXT/SSC308QE_CODEBASE/sdk/linux/init/sys/cmdq_init.o
                              (--whole-archive)
/home/lixx/ZGCX/S1_Project/SSC308QE_SDK/Iford_IMD00V005.0.1_fastboot/SourceCode/SSC308QE_SDK_TEXT/SSC308QE_CODEBASE/sdk/linux/init/sys/sys_init.o
                              (--whole-archive)
/home/lixx/ZGCX/S1_Project/SSC308QE_SDK/Iford_IMD00V005.0.1_fastboot/SourceCode/SSC308QE_SDK_TEXT/SSC308QE_CODEBASE/sdk/linux/init/disp/../../obj/uclibc/9.1.0/disp.o
                              (--whole-archive)
/home/lixx/ZGCX/S1_Project/SSC308QE_SDK/Iford_IMD00V005.0.1_fastboot/SourceCode/SSC308QE_SDK_TEXT/SSC308QE_CODEBASE/sdk/linux/init/disp/disp_init.o
                              (--whole-archive)
/home/lixx/ZGCX/S1_Project/SSC308QE_SDK/Iford_IMD00V005.0.1_fastboot/SourceCode/SSC308QE_SDK_TEXT/SSC308QE_CODEBASE/sdk/linux/init/vif/../../obj/uclibc/9.1.0/vif.o
                              (--whole-archive)
/home/lixx/ZGCX/S1_Project/SSC308QE_SDK/Iford_IMD00V005.0.1_fastboot/SourceCode/SSC308QE_SDK_TEXT/SSC308QE_CODEBASE/sdk/linux/init/vif/vif_export.o
                              (--whole-archive)
/home/lixx/ZGCX/S1_Project/SSC308QE_SDK/Iford_IMD00V005.0.1_fastboot/SourceCode/SSC308QE_SDK_TEXT/SSC308QE_CODEBASE/sdk/linux/init/vif/vif_init.o
                              (--whole-archive)
/home/lixx/ZGCX/S1_Project/SSC308QE_SDK/Iford_IMD00V005.0.1_fastboot/SourceCode/SSC308QE_SDK_TEXT/SSC308QE_CODEBASE/sdk/linux/init/common/../../obj/uclibc/9.1.0/common.o
                              (--whole-archive)
/home/lixx/ZGCX/S1_Project/SSC308QE_SDK/Iford_IMD00V005.0.1_fastboot/SourceCode/SSC308QE_SDK_TEXT/SSC308QE_CODEBASE/sdk/linux/init/common/common_init.o
                              (--whole-archive)
/home/lixx/ZGCX/S1_Project/SSC308QE_SDK/Iford_IMD00V005.0.1_fastboot/SourceCode/SSC308QE_SDK_TEXT/SSC308QE_CODEBASE/sdk/linux/init/ai/../../obj/uclibc/9.1.0/ai.o
                              (--whole-archive)
/home/lixx/ZGCX/S1_Project/SSC308QE_SDK/Iford_IMD00V005.0.1_fastboot/SourceCode/SSC308QE_SDK_TEXT/SSC308QE_CODEBASE/sdk/linux/init/ai/ai_init.o
                              (--whole-archive)
/home/lixx/ZGCX/S1_Project/SSC308QE_SDK/Iford_IMD00V005.0.1_fastboot/SourceCode/SSC308QE_SDK_TEXT/SSC308QE_CODEBASE/sdk/linux/init/venc/../../obj/uclibc/9.1.0/venc.o
                              (--whole-archive)
/home/lixx/ZGCX/S1_Project/SSC308QE_SDK/Iford_IMD00V005.0.1_fastboot/SourceCode/SSC308QE_SDK_TEXT/SSC308QE_CODEBASE/sdk/linux/init/venc/venc_init.o
                              (--whole-archive)
/home/lixx/ZGCX/S1_Project/SSC308QE_SDK/Iford_IMD00V005.0.1_fastboot/SourceCode/SSC308QE_SDK_TEXT/SSC308QE_CODEBASE/sdk/linux/init/scl/../../obj/uclibc/9.1.0/scl.o
                              (--whole-archive)
/home/lixx/ZGCX/S1_Project/SSC308QE_SDK/Iford_IMD00V005.0.1_fastboot/SourceCode/SSC308QE_SDK_TEXT/SSC308QE_CODEBASE/sdk/linux/init/scl/scl_export.o
                              (--whole-archive)
/home/lixx/ZGCX/S1_Project/SSC308QE_SDK/Iford_IMD00V005.0.1_fastboot/SourceCode/SSC308QE_SDK_TEXT/SSC308QE_CODEBASE/sdk/linux/init/scl/scl_init.o
                              (--whole-archive)

Memory Configuration

Name             Origin             Length             Attributes
*default*        0x0000000000000000 0xffffffffffffffff

Linker script and memory map

LOAD /home/lixx/ZGCX/S1_Project/SSC308QE_SDK/Iford_IMD00V005.0.1_fastboot/SourceCode/SSC308QE_SDK_TEXT/SSC308QE_CODEBASE/sdk/linux/init/module.o
LOAD /home/lixx/ZGCX/S1_Project/SSC308QE_SDK/Iford_IMD00V005.0.1_fastboot/SourceCode/SSC308QE_SDK_TEXT/SSC308QE_CODEBASE/sdk/linux/init/sensor/lib.a
LOAD /home/lixx/ZGCX/S1_Project/SSC308QE_SDK/Iford_IMD00V005.0.1_fastboot/SourceCode/SSC308QE_SDK_TEXT/SSC308QE_CODEBASE/sdk/linux/init/aio/lib.a
LOAD /home/lixx/ZGCX/S1_Project/SSC308QE_SDK/Iford_IMD00V005.0.1_fastboot/SourceCode/SSC308QE_SDK_TEXT/SSC308QE_CODEBASE/sdk/linux/init/rgn/lib.a
LOAD /home/lixx/ZGCX/S1_Project/SSC308QE_SDK/Iford_IMD00V005.0.1_fastboot/SourceCode/SSC308QE_SDK_TEXT/SSC308QE_CODEBASE/sdk/linux/init/ive/lib.a
LOAD /home/lixx/ZGCX/S1_Project/SSC308QE_SDK/Iford_IMD00V005.0.1_fastboot/SourceCode/SSC308QE_SDK_TEXT/SSC308QE_CODEBASE/sdk/linux/init/ao/lib.a
LOAD /home/lixx/ZGCX/S1_Project/SSC308QE_SDK/Iford_IMD00V005.0.1_fastboot/SourceCode/SSC308QE_SDK_TEXT/SSC308QE_CODEBASE/sdk/linux/init/shadow/lib.a
LOAD /home/lixx/ZGCX/S1_Project/SSC308QE_SDK/Iford_IMD00V005.0.1_fastboot/SourceCode/SSC308QE_SDK_TEXT/SSC308QE_CODEBASE/sdk/linux/init/isp/lib.a
LOAD /home/lixx/ZGCX/S1_Project/SSC308QE_SDK/Iford_IMD00V005.0.1_fastboot/SourceCode/SSC308QE_SDK_TEXT/SSC308QE_CODEBASE/sdk/linux/init/ipu/lib.a
LOAD /home/lixx/ZGCX/S1_Project/SSC308QE_SDK/Iford_IMD00V005.0.1_fastboot/SourceCode/SSC308QE_SDK_TEXT/SSC308QE_CODEBASE/sdk/linux/init/sys/lib.a
LOAD /home/lixx/ZGCX/S1_Project/SSC308QE_SDK/Iford_IMD00V005.0.1_fastboot/SourceCode/SSC308QE_SDK_TEXT/SSC308QE_CODEBASE/sdk/linux/init/disp/lib.a
LOAD /home/lixx/ZGCX/S1_Project/SSC308QE_SDK/Iford_IMD00V005.0.1_fastboot/SourceCode/SSC308QE_SDK_TEXT/SSC308QE_CODEBASE/sdk/linux/init/vif/lib.a
LOAD /home/lixx/ZGCX/S1_Project/SSC308QE_SDK/Iford_IMD00V005.0.1_fastboot/SourceCode/SSC308QE_SDK_TEXT/SSC308QE_CODEBASE/sdk/linux/init/common/lib.a
LOAD /home/lixx/ZGCX/S1_Project/SSC308QE_SDK/Iford_IMD00V005.0.1_fastboot/SourceCode/SSC308QE_SDK_TEXT/SSC308QE_CODEBASE/sdk/linux/init/ai/lib.a
LOAD /home/lixx/ZGCX/S1_Project/SSC308QE_SDK/Iford_IMD00V005.0.1_fastboot/SourceCode/SSC308QE_SDK_TEXT/SSC308QE_CODEBASE/sdk/linux/init/venc/lib.a
LOAD /home/lixx/ZGCX/S1_Project/SSC308QE_SDK/Iford_IMD00V005.0.1_fastboot/SourceCode/SSC308QE_SDK_TEXT/SSC308QE_CODEBASE/sdk/linux/init/scl/lib.a

.interp
 *(.interp)

.note.gnu.build-id
 *(.note.gnu.build-id)

.hash
 *(.hash)

.gnu.hash
 *(.gnu.hash)

.dynsym
 *(.dynsym)

.dynstr
 *(.dynstr)

.gnu.version
 *(.gnu.version)

.gnu.version_d
 *(.gnu.version_d)

.gnu.version_r
 *(.gnu.version_r)

.rel.init
 *(.rel.init)

.rela.init
 *(.rela.init)

.rel.text
 *(.rel.text)

.rela.text
 *(.rela.text)

.rel.fini
 *(.rel.fini)

.rela.fini
 *(.rela.fini)

.rel.rodata
 *(.rel.rodata)

.rela.rodata
 *(.rela.rodata)

.rel.data.rel.ro
 *(.rel.data.rel.ro)

.rela.data.rel.ro
 *(.rela.data.rel.ro)

.rel.data
 *(.rel.data)

.rela.data
 *(.rela.data)

.rel.tdata
 *(.rel.tdata)

.rela.tdata
 *(.rela.tdata)

.rel.tbss
 *(.rel.tbss)

.rela.tbss
 *(.rela.tbss)

.rel.ctors
 *(.rel.ctors)

.rela.ctors
 *(.rela.ctors)

.rel.dtors
 *(.rel.dtors)

.rela.dtors
 *(.rela.dtors)

.rel.got
 *(.rel.got)

.rela.got
 *(.rela.got)

.rel.bss
 *(.rel.bss)

.rela.bss
 *(.rela.bss)

.rel.iplt
 *(.rel.iplt)

.rela.iplt
 *(.rela.iplt)

.rel.plt
 *(.rel.plt)

.rela.plt
 *(.rela.plt)

.init
 *(SORT_NONE(.init))

.plt
 *(.plt)

.iplt
 *(.iplt)

.text           0x0000000000000000   0x1292fc
 *(.text .stub)
 .text          0x0000000000000000        0x0 /home/lixx/ZGCX/S1_Project/SSC308QE_SDK/Iford_IMD00V005.0.1_fastboot/SourceCode/SSC308QE_SDK_TEXT/SSC308QE_CODEBASE/sdk/linux/init/module.o
 .text          0x0000000000000000     0x8bb4 /home/lixx/ZGCX/S1_Project/SSC308QE_SDK/Iford_IMD00V005.0.1_fastboot/SourceCode/SSC308QE_SDK_TEXT/SSC308QE_CODEBASE/sdk/linux/init/sensor/../../obj/uclibc/9.1.0/sensor.o
                0x0000000000000330                drv_sensor_insmod
                0x0000000000000360                drv_sensor_rmmod
                0x0000000000000388                MI_DEVICE_WrapperFunction_sensor
                0x00000000000003a0                IS_PRINT_MATCH_sensor
                0x0000000000000408                MI_DEVICE_Instance_sensor
                0x0000000000000410                MI_DEVICE_GetSelfDir_sensor
                0x000000000000041c                AddUTIoctlTable
                0x000000000000041e                sensor__module_init
                0x00000000000004e8                sensor__module_exit
                0x0000000000000644                MI_SENSOR_IMPL_GetPadInfo
                0x00000000000006ec                MI_SENSOR_IMPL_GetPlaneInfo
                0x00000000000007b8                MI_SENSOR_IMPL_GetFps
                0x0000000000000940                MI_SENSOR_IMPL_SetFps
                0x00000000000009cc                MI_SENSOR_IMPL_QueryResCount
                0x0000000000000ab0                MI_SENSOR_IMPL_GetRes
                0x0000000000000b5c                MI_SENSOR_IMPL_GetCurRes
                0x0000000000000c44                MI_SENSOR_IMPL_SetOrien
                0x0000000000000cdc                MI_SENSOR_IMPL_GetOrien
                0x0000000000000ef0                MI_SENSOR_IMPL_PMVoteOn
                0x0000000000000f08                MI_SENSOR_IMPL_PMVoteOff
                0x0000000000000f20                MI_SENSOR_IMPL_Enable
                0x0000000000001038                MI_SENSOR_IMPL_Disable
                0x00000000000010fc                MI_SENSOR_IMPL_GetAnadecSrcType
                0x00000000000011d0                MI_SENSOR_IMPL_SetAnadecSrcType
                0x00000000000012a4                MI_SENSOR_IMPL_SetRes
                0x0000000000001344                MI_SENSOR_IMPL_SetPlaneMode
                0x00000000000013e4                MI_SENSOR_IMPL_GetPlaneMode
                0x000000000000146c                MI_SENSOR_IMPL_CustFunction
                0x00000000000015cc                MI_SENSOR_IMPL_ModParamPrint
                0x00000000000015d0                MI_SENSOR_IMPL_ModParamInit
                0x000000000000167c                MI_SENSOR_IMPL_LoadExternalConfig
                0x000000000000168c                MI_SENSOR_IMPL_GetSnrPmStatus
                0x000000000000170c                MI_SENSOR_IMPL_PreSuspend
                0x000000000000180c                MI_SENSOR_IMPL_ExitPreSuspend
                0x0000000000001908                _MI_SENSOR_IMPL_ModDbgParams_Init
                0x0000000000001adc                MI_SENSOR_IMPL_Insmod
                0x0000000000001ae6                MI_SENSOR_IMPL_Init
                0x0000000000001bf8                MI_SENSOR_IMPL_DeInit
                0x0000000000001cf4                MI_SENSOR_DEBUG_SetCsiClk
                0x0000000000001d0a                MI_SENSOR_DEBUG_GetCsiClk
                0x0000000000001d14                MI_SENSOR_DEBUG_GetCsiClkRateByIdx
                0x0000000000001d18                MI_SENSOR_DEBUG_GetCsiClkDfs
                0x0000000000001d1c                MI_SENSOR_DEBUG_SetCsiDbgMask
                0x0000000000001d26                MI_SENSOR_DEBUG_GetCsiDbgMask
                0x0000000000001d30                MI_SENSOR_DEBUG_SetCsiRptMask
                0x0000000000001d3a                MI_SENSOR_DEBUG_GetCsiRptMask
                0x0000000000001d44                MI_SENSOR_DEBUG_SetCsiInts
                0x0000000000001d50                MI_SENSOR_DEBUG_GetCsiInts
                0x0000000000001db4                MI_SENSOR_DEBUG_SetCsiInfo
                0x0000000000001dc0                MI_SENSOR_DEBUG_GetCsiInfo
                0x0000000000001e0c                MI_SENSOR_DEBUG_GetSensorInfo
                0x0000000000001e16                MI_SENSOR_DEBUG_IrControl
                0x0000000000001f5a                MI_SENSOR_CJSONPARSER_LoadExtrnalConfig
                0x000000000000276c                DRV_SENSOR_I2C_Open
                0x0000000000002770                DRV_SENSOR_I2C_Close
                0x0000000000002774                _DrvSensorGetI2CMaster
                0x000000000000278e                DRV_SENSOR_I2C_Write
                0x00000000000027be                DRV_SENSOR_I2C_Read
                0x00000000000027ee                DRV_SENSOR_I2C_ArrayWrite
                0x000000000000283a                DRV_SENSOR_I2C_BurstWrite
                0x000000000000286e                DRV_SENSOR_I2C_BurstRead
                0x00000000000028a2                DRV_SENSOR_I2C_ArrayRead
                0x00000000000028f0                DRV_SENSOR_I2C_Attach
                0x0000000000002938                DRV_SENSOR_IF_IrControl
                0x0000000000002960                DRV_SENSOR_IF_SetVifSetIoPad
                0x000000000000296e                DRV_SENSOR_IF_SetSensorMCLK
                0x00000000000029ec                _DRV_SENSOR_IF_SetUserDefInfo
                0x0000000000002b70                DRV_SENSOR_IF_GetInfo
                0x0000000000002c60                DRV_SENSOR_IF_ExSensorConvertMclk
                0x0000000000002d08                _DRV_SENSOR_IF_Register_CallBack
                0x0000000000002d14                _DRV_SENSOR_IF_UnRegister_CallBack
                0x0000000000002d24                DRV_SENSOR_IF_GetParllelPinPol
                0x0000000000002d40                DRV_SENSOR_IF_GetParallelPinMsbShift
                0x0000000000002d4e                DRV_SENSOR_IF_CtxInit
                0x0000000000002d5c                DRV_SENSOR_IF_RegisterSensorI2CSlaveID
                0x0000000000002d88                DRV_SENSOR_IF_RegisterPlaneI2CSlaveID
                0x0000000000002db8                DRV_SENSOR_IF_ExSetMclk
                0x0000000000002e14                DRV_SENSOR_IF_ExSetLaneNum
                0x0000000000002e44                DRV_SENSOR_IF_ExSetHdrLaneNum
                0x0000000000002e7c                DRV_SENSOR_IF_SetAnaLaneSelect
                0x0000000000002e80                DRV_SENSOR_IF_SetAnaLaneSwap
                0x0000000000002e84                DRV_SENSOR_IF_SetExternalConfig
                0x0000000000002f3c                DRV_SENSOR_IF_SensorHandleVer
                0x0000000000002f46                DRV_SENSOR_IF_SensorIFVer
                0x0000000000002f4a                DRV_SENSOR_IF_SensorI2CVer
                0x0000000000002f54                DRV_SENSOR_IF_GetUserDefInfo
                0x0000000000002f70                DRV_SENSOR_IF_RegisterSensorDriverEx
                0x00000000000030e0                DRV_SENSOR_IF_RegisterSensorDriver
                0x00000000000030e6                DRV_SENSOR_IF_RegisterPlaneDriverEx
                0x0000000000003278                DRV_SENSOR_IF_RegisterPlaneDriver
                0x000000000000327e                DRV_SENSOR_IF_Exist
                0x00000000000032a8                DRV_SENSOR_IF_DeInit
                0x000000000000332c                DRV_SENSOR_IF_StrDefault
                0x0000000000003374                DRV_SENSOR_IF_Suspend
                0x0000000000003408                DRV_SENSOR_IF_Resume
                0x00000000000034bc                DRV_SENSOR_IF_EarlyInitStreamOn
                0x000000000000359c                DRV_SENSOR_IF_GetPlaneMode
                0x00000000000035bc                DRV_SENSOR_IF_GetPlaneInfo
                0x00000000000037a8                DRV_SENSOR_IF_Init
                0x000000000000397c                DRV_SENSOR_IF_Release
                0x00000000000039d8                DRV_SENSOR_IF_SetOrien
                0x0000000000003a94                DRV_SENSOR_IF_GetOrien
                0x0000000000003b40                DRV_SENSOR_IF_SetFPS
                0x0000000000003be0                DRV_SENSOR_IF_GetFPS
                0x0000000000003c38                DRV_SENSOR_IF_SwitchId
                0x0000000000003c3c                DRV_SENSOR_IF_GetCurSwitchId
                0x0000000000003c40                DRV_SENSOR_IF_SetRes
                0x0000000000003ca4                DRV_SENSOR_IF_QueryResCount
                0x0000000000003d28                DRV_SENSOR_IF_GetRes
                0x0000000000003df4                DRV_SENSOR_IF_GetCurRes
                0x0000000000003ebc                DRV_SENSOR_IF_CustFunction
                0x0000000000003f24                DRV_SENSOR_IF_GetAnadecSrcAttr
                0x0000000000003ff0                DRV_SENSOR_IF_SetAnadecSrcAttr
                0x00000000000040a4                DRV_SENSOR_IF_InitRxPadAttr
                0x00000000000042d8                DRV_SENSOR_IF_RegBankAddrMap
                0x00000000000042dc                DRV_SENSOR_IF_InitCommon
                0x0000000000004340                DRV_SENSOR_IF_DeinitCommon
                0x0000000000004370                DRV_SENSOR_IF_I2cRead
                0x0000000000004424                DRV_SENSOR_IF_I2cWrite
                0x00000000000044c8                DrvSensorSetEarlyInitSetting
                0x0000000000004618                DRV_SENSOR_IF_GetSnrInfo
                0x0000000000004714                DRV_SENSOR_IF_Dev2SnrPadCtxInit
                0x0000000000004750                DRV_SENSOR_IF_SetDev2SnrPadMap
                0x0000000000004770                DRV_SENSOR_IF_Dev2SnrPadId
                0x00000000000047a4                DRV_SENSOR_IF_GetPlaneInfoByChn
                0x000000000000498c                DRV_SENSOR_IF_TryShutter
                0x0000000000004a30                DRV_SENSOR_IF_SetUs
                0x0000000000004ae4                DRV_SENSOR_IF_GetUs
                0x0000000000004ba0                DRV_SENSOR_IF_SetGain
                0x0000000000004c54                DRV_SENSOR_IF_TryGain
                0x0000000000004cf8                DRV_SENSOR_IF_GetGain
                0x0000000000004db8                DRV_SENSOR_IF_SetISPConverStatus
                0x0000000000004e6c                DRV_SENSOR_IF_AeNotify
                0x0000000000004f3c                DRV_SENSOR_IF_GetDevIdBySnrPadId
                0x0000000000004f68                DRV_SENSOR_IF_SetPlaneMode
                0x0000000000005040                DRV_SENSOR_IF_EarlyInitSync
                0x0000000000005098                DRV_SENSOR_IF_SnrPad2GroupId
                0x00000000000050ec                _DRV_SENSOR_IF_SetSkipFrame
                0x000000000000513c                DRV_SENSOR_IF_ShowInfo
                0x00000000000054e4                DRV_SENSOR_IF_FrameEndNotify
                0x0000000000005504                DRV_SENSOR_IF_FrameStartNotify
                0x000000000000550e                DRV_SENSOR_IF_RegisterVcmDriver
                0x0000000000005594                DRV_SENSOR_IF_ReleaseVcmDriver
                0x0000000000005598                DRV_SENSOR_IF_VcmSetPos
                0x0000000000005600                DRV_SENSOR_IF_VcmGetCurPos
                0x0000000000005668                DRV_SENSOR_IF_VcmGetMinMaxPos
                0x00000000000056d4                DRV_SENSORIF_WORK_ThreadWqAdd
                0x000000000000574a                DRV_SENSORIF_WORK_ThreadWqGet
                0x00000000000057b0                DRV_SENSORIF_WORK_ThreadWqProc
                0x0000000000005810                DRV_SENSORIF_WORK_ThreadWqClean
                0x000000000000585c                DRV_SENSORIF_WORK_ThreadWqInit
                0x00000000000058e0                DRV_SENSORIF_WORK_ThreadWqDeinit
                0x0000000000005900                DRV_SENSORIF_WORK_ThreadWqFlush
                0x0000000000005938                DRV_SENSOR_ClkInit
                0x0000000000005970                DRV_SENSOR_ClkEnable
                0x00000000000059a0                DRV_SENSOR_ClkDisable
                0x00000000000059c8                DRV_SENSOR_ClkSetRate
                0x00000000000059f0                DRV_SENSOR_ClkDeInit
                0x0000000000005a28                I2C_HACKING_I2CWriteRegisterPair
                0x0000000000005b14                I2C_HACKING_I2CWriteRegisterBurst
                0x0000000000005c74                I2C_HACKING_I2CReadRegisterBurst
                0x0000000000005d34                I2C_HACKING_I2CReadRegisterPair
                0x0000000000005eb0                EXT_log_2
                0x0000000000005ef8                intlog10
                0x0000000000005f24                intpow
                0x0000000000005f56                intsqrt
                0x0000000000005fc4                ufact
                0x0000000000005ff0                round_float
                0x0000000000006034                base2_exp_float_pow
                0x00000000000060d8                SNRIFLogSetEn
                0x00000000000060f0                SNRIFLogGetEn
                0x00000000000060fc                DrvSensorIfUt
                0x0000000000006550                DRV_CSI_Init
                0x0000000000006598                DRV_CSI_Uninit
                0x00000000000065e0                DRV_CSI_SetClkDivMac
                0x00000000000065e4                DRV_CSI_SetClkPreRate
                0x00000000000065f4                DRV_CSI_GetClkPreRate
                0x0000000000006608                DRV_CSI_SetClkRate
                0x0000000000006644                DRV_CSI_GetRateByIdx
                0x0000000000006680                DRV_CSI_GetClkDfs
                0x00000000000066c0                DRV_CSI_GetClkRate
                0x0000000000006700                DRV_CSI_SetClk
                0x000000000000679c                DRV_CSI_MacSoftwareReset
                0x00000000000067a6                DRV_CSI_MacVCEn
                0x00000000000067b0                DRV_CSI_AtopPdCh
                0x00000000000067ba                Drv_CSI_SetAnaLaneSwap
                0x00000000000067be                Drv_CSI_SetAnaLaneSelect
                0x00000000000067c2                DRV_CSI_SetPreSet
                0x00000000000067d0                DRV_CSI_SetLane
                0x0000000000006804                DrvCsiSetVc0HsMode
                0x0000000000006808                DRV_CSI_SetLongPacket
                0x0000000000006812                DrvCsiSetClkDataSkip
                0x000000000000681c                DRV_CSI_SetHdrMode
                0x0000000000006826                DRV_CSI_SetYuvOrderSwap
                0x0000000000006830                DRV_CSI_QueryLaneNum
                0x0000000000006848                DRV_CSI_SetPatternGen
                0x000000000000688e                DRV_CSI_DbgSetRecvSize
                0x00000000000068a8                DRV_CSI_DbgChkRecvSize
                0x0000000000006910                DRV_CSI_DbgShowRecvSize
                0x00000000000069d4                DRV_CSI_DbgSetMask
                0x00000000000069d8                DRV_CSI_DbgGetMask
                0x0000000000006a14                DRV_CSI_RptSetMask
                0x0000000000006a1a                DRV_CSI_RptGetMask
                0x0000000000006a58                DRV_CSI_ISR_IntRptShow
                0x0000000000006af0                DRV_CSI_ISR_IntShow
                0x0000000000006c04                DRV_CSI_ISR_IsrHandler
                0x0000000000006e34                DRV_CSI_ClkInit
                0x0000000000006e74                DRV_CSI_ClkSetRate
                0x0000000000006eb8                DRV_CSI_ClkGetRate
                0x0000000000006f10                DRV_CSI_CLKGetCurrentIdx
                0x0000000000006f5c                DRV_CSI_CLK_GetRateByIdx
                0x0000000000006f94                DRV_CSI_CLK_GetClkDfs
                0x0000000000006fb4                DRV_CSI_ClkGetNodeRate
                0x0000000000007048                DRV_CSI_ClkEnable
                0x0000000000007078                DRV_CSI_ClkGetEnable
                0x0000000000007088                DRV_CSI_ClkDisable
                0x00000000000070b8                DRV_CSI_ClkDeInit
                0x00000000000070e4                CSI_UT_cmd
                0x0000000000007190                CsiLogSetEn
                0x00000000000071ac                CsiLogGetEn
                0x000000000000727c                HalSnrGetHandle
                0x00000000000072b8                HalSnrSetPadMode
                0x00000000000072d4                HalSnrGetDualSnrPad
                0x00000000000072ec                HalSnrGetDualSnrConfig
                0x0000000000007300                HalSensorSetI2CMaster
                0x0000000000007328                HalSensorGetI2CMaster
                0x000000000000734c                HalSensorSetI2CPadmux
                0x0000000000007368                HalSensorGetI2CPadmux
                0x0000000000007380                HalSensorSetI2CSpeed
                0x0000000000007398                HalSensorGetI2CSpeed
                0x00000000000073ac                HalVcmSetI2CMaster
                0x00000000000073c8                HalVcmGetI2CMaster
                0x00000000000073e0                HalSnrRegBankAddrMap
                0x000000000000740c                HalSnrGetRstGpio
                0x0000000000007424                HalSnrGetPdnGpio
                0x000000000000743c                HalSnrGetRstPolMode
                0x0000000000007450                HalSnrGetPdnPolMode
                0x0000000000007464                HalSnrSetParaPinMSBShift
                0x0000000000007474                HalSnrGetParaPinMSBShift
                0x0000000000007484                HalSnrConvertMclk
                0x0000000000007500                HalSensorGetMclkId
                0x0000000000007518                HalSnrGetMclkMax
                0x0000000000007522                HalSnrSetIoPad
                0x00000000000075a2                HalSnrSetRst
                0x0000000000007606                HalSnrSetPdwn
                0x0000000000007664                HalSnrSetVifPclkSource
                0x00000000000076b2                HalSnrGetDevIdBySnrPadId
                0x00000000000076ca                HalSnrGetChnBySnrPadId
                0x00000000000076ce                HalSnrGetSnrPadIdByGroupId
                0x00000000000076e6                HalSnrShowInfo
                0x00000000000078dc                _HalCsiGetBankIDbySnrPad
                0x00000000000078f0                HalCsiAnaHsRxTxAttribute
                0x000000000000792c                HalCsiAnaMCGConfig
                0x0000000000007968                HalCsiAnaLpAttribute
                0x0000000000007a20                HalCsiAnaDynGatingClkNsEnable
                0x0000000000007a3c                HalCsiAnaPowerDownLptxVreg
                0x0000000000007a58                HalCsiAnaPdHsMode
                0x0000000000007a74                HalCsiAnaPdWholeDphyAnalog
                0x0000000000007a90                HalCsiAnaSetLpRxEnable
                0x0000000000007b2c                HalCsiAnaSetHsTxPolarity
                0x0000000000007b94                HalCsiAnaTestModeEnable
                0x0000000000007bcc                HalCsiAnaSetLaneSelect
                0x0000000000007c70                HalCsiAnaSetHsRxData
                0x0000000000007d0c                HalCsiAnaGetDatalaneStatus
                0x0000000000007d74                HalCsiAnaSkipHsInHSRXMode
                0x0000000000007da4                HalCsiAnaDigSoftwareReset
                0x0000000000007e94                HalCsiDigSetLaneSelect
                0x0000000000007ee4                HalCsiDigEnableDataChannelDeskew
                0x0000000000007f04                HalCsiConvertSnrClkId
                0x0000000000007f1a                HalCsiMacDataLaneEnable
                0x0000000000007f5c                HalCsiMacVCEn
                0x0000000000007f78                HalCsiMacYuv4228bitOutMode
                0x0000000000007f94                HalCsiMacUserDef
                0x0000000000008050                HalCsiMacVirtualChannelHsyncMode
                0x00000000000080ac                HalCsiMacCkgMac
                0x00000000000080fc                HalCsiMacMcgMac
                0x0000000000008138                HalCsiMacSoftwareReset
                0x0000000000008158                HalCsiMacDtEnable
                0x0000000000008184                HalCsiMacDontCareDt
                0x00000000000081a4                HalCsiMacHDRType
                0x000000000000825c                HalCsiMacGetRptIntStatus
                0x0000000000008278                HalCsiMacMaskRptInt
                0x0000000000008298                HalCsiMacClearRptInt
                0x00000000000082e0                HalCsiMacRptIntMaskGet
                0x00000000000082fc                HalCsiMacRptIntMaskSet
                0x000000000000831c                HalCsiMacGetErrorIntStatus
                0x0000000000008340                HalCsiMacMaskErrorInt
                0x0000000000008378                HalCsiMacErrIntMaskGet
                0x0000000000008398                HalCsiMacErrIntMaskSet
                0x00000000000083c0                HalCsiMacForceErrorInt
                0x00000000000083f8                HalCsiMacClearErrorInt
                0x0000000000008460                HalCsiMacGetRecvSize
                0x00000000000084a4                HalCsiMipiRx22Sel
                0x00000000000084b8                HalCsiAtopPdCh
                0x00000000000084ba                HalCsiAtopPdSel
                0x000000000000852c                HalCsiAtopRxInit
                0x0000000000008532                HalCsiSetLaneNum
                0x0000000000008544                HalCsiGetLaneNum
                0x0000000000008558                HalCsiConvertCsiClk
                0x00000000000085cc                HalCsiRegInit
                0x00000000000085ce                HalCsiRegUninit
                0x00000000000085d0                HalCsiDummy
                0x00000000000085d4                HalCSISetAnaLaneSwap
                0x0000000000008600                HalCSISetAnaLaneSelect
                0x000000000000862c                HalCsiHwReset
                0x000000000000866e                HalCsiMacInit
                0x00000000000086a4                HalCsiAnaLaneInit
                0x0000000000008770                HalCsiAnaSetLane
                0x00000000000088e0                HalCsiShowLaneInfo
                0x0000000000008984                HalCsiSetPatGen
                0x0000000000008a78                SensorNumMaxGet
                0x0000000000008a7c                SENSORIF_EARLYINIT_IsEarlyInitEnabled
                0x0000000000008a80                SENSORIF_EARLYINIT_StopEarlyInit
                0x0000000000008a84                SENSORIF_EARLYINIT_ClearEarlyInitStatus
                0x0000000000008a86                SENSORIF_EARLYINIT_GetEarlyInitInfo
                0x0000000000008a98                DrvCsiDeInitBank
                0x0000000000008ae0                DrvCsiInitBank
                0x0000000000008b68                Csi_ISR
                0x0000000000008b86                Get1LaneGroupNum
                0x0000000000008b8a                Get2LaneGroupNum
                0x0000000000008b8e                Get4LaneGroupNum
                0x0000000000008b92                GetCsiMaxSensorNum
                0x0000000000008b96                GetAnaLaneSwap
                0x0000000000008ba4                GetAnaPnSwap
 .text          0x0000000000008bb4      0x350 /home/lixx/ZGCX/S1_Project/SSC308QE_SDK/Iford_IMD00V005.0.1_fastboot/SourceCode/SSC308QE_SDK_TEXT/SSC308QE_CODEBASE/sdk/linux/init/sensor/csi_init.o
                0x0000000000008bc8                DRV_CSI_MODULE_Isr
                0x0000000000008c68                csi_devnode_init
                0x0000000000008eb8                csi_module_get_dev
                0x0000000000008ec4                DRV_CSI_MODULE_Init
                0x0000000000008ee8                DRV_CSI_MODULE_Exit
 .text          0x0000000000008f04        0x0 /home/lixx/ZGCX/S1_Project/SSC308QE_SDK/Iford_IMD00V005.0.1_fastboot/SourceCode/SSC308QE_SDK_TEXT/SSC308QE_CODEBASE/sdk/linux/init/sensor/sensor_export.o
 .text          0x0000000000008f04      0x224 /home/lixx/ZGCX/S1_Project/SSC308QE_SDK/Iford_IMD00V005.0.1_fastboot/SourceCode/SSC308QE_SDK_TEXT/SSC308QE_CODEBASE/sdk/linux/init/sensor/sensor_init.o
                0x0000000000008ff0                SENSORIF_MODULE_SstarSensorIfProbe
                0x0000000000009048                SENSORIF_MODULE_SstarSensorIfRemove
                0x0000000000009064                SensorOfPropertyReadU32
                0x0000000000009098                SensorOfPropertyReadU32Array
                0x00000000000090cc                sensorif_module_get_dev
                0x00000000000090d8                SensorWARN_ON
                0x00000000000090e8                SensorIoremap
                0x00000000000090ec                SensorIoUnmap
                0x00000000000090f0                SENSORIF_MODULE_SstarSensorIfInitDriver
                0x00000000000090fc                SENSORIF_MODULE_SstarSensorIfExitDriver
                0x0000000000009108                sensor_mod_init
                0x0000000000009118                sensor_mod_exit
 .text          0x0000000000009128     0x76a0 /home/lixx/ZGCX/S1_Project/SSC308QE_SDK/Iford_IMD00V005.0.1_fastboot/SourceCode/SSC308QE_SDK_TEXT/SSC308QE_CODEBASE/sdk/linux/init/aio/../../obj/uclibc/9.1.0/aio.o
                0x0000000000009554                DrvAudInit
                0x00000000000095d0                DrvAudDeInit
                0x000000000000961c                DrvAudResume
                0x000000000000962a                DrvAudSuspend
                0x0000000000009634                DrvAudConfigI2s
                0x0000000000009724                DrvAudEnableI2sNoneInput
                0x000000000000973e                DrvAudEnableI2s
                0x0000000000009784                DrvAudDirectDmaIsOnlyEvenCh
                0x0000000000009798                DrvAudEnableAtop
                0x00000000000097ba                DrvAudConfigSrcInputClock
                0x000000000000982e                DrvAudConfigDmaParam
                0x0000000000009908                DrvAudGetDmaSampleRate
                0x0000000000009918                DrvAudOpenDma
                0x0000000000009b00                DrvAudPrepareDma
                0x0000000000009b68                DrvAudDmaIntEnable
                0x0000000000009b6c                DrvAudStartDma
                0x0000000000009bf4                DrvAudStopDma
                0x0000000000009c4c                DrvAudPauseDma
                0x0000000000009c90                DrvAudResumeDma
                0x0000000000009cd4                DrvAudCloseDma
                0x0000000000009d30                DrvAudIsXrun
                0x0000000000009d4c                DrvAudWritePcm
                0x0000000000009edc                DrvAudReadPcm
                0x000000000000a06c                DrvAudGetBufCurrDataLen
                0x000000000000a0ac                DrvAudAoSetChannelModeDynamic
                0x000000000000a414                MhalAudioSetMicHpf
                0x000000000000a434                MhalAudioResume
                0x000000000000a454                MhalAudioSuspend
                0x000000000000bb8a                MHAL_AUDIO_Module_Init
                0x000000000000bbb0                MHAL_AUDIO_Module_DeInit
                0x000000000000bbd8                MHAL_AUDIO_GetInternalApi
                0x000000000000cc30                HalAudSetSrcOutSampleRate
                0x000000000000cd00                HalAudMainDeInit
                0x000000000000cd60                HalAudAoDetach
                0x000000000000cdcc                HalAudSetMux
                0x000000000000ce6c                HalAudSetDirectPath
                0x000000000000cfbc                HalAudSetAoPath
                0x000000000000d088                HalAudSetAiPath
                0x000000000000d0bc                HalAudSrcSetRate
                0x000000000000d11c                HalAudDirectDmaRateSet
                0x000000000000d1a8                HalAudAtopOpen
                0x000000000000d214                HalAudAtopClose
                0x000000000000d298                HalAudAtopMicAmpGain
                0x000000000000d2f0                HalAudAtopSetAdcGain
                0x000000000000d348                HalAudAtopSetAdcMux
                0x000000000000d6d0                HalAudI2sSaveTdmWsPgm
                0x000000000000d708                HalAudI2sGetTdmWsPgm
                0x000000000000d710                HalAudI2sGetTdmWsWidth
                0x000000000000d718                HalAudI2sSaveTdmWsInv
                0x000000000000d750                HalAudI2sSaveTdmBckInv
                0x000000000000d788                HalAudFrequencyOffsetMonitorControl
                0x000000000000d78c                HalAudDmaSaveCache
                0x000000000000d810                HalAudDelayControl
                0x000000000000d8bc                HalAudI2sSaveTdmShortFF
                0x000000000000d8f4                HalAudI2sGetTdmBckInv
                0x000000000000d8fc                HalAudI2sGetTdmShortFF
                0x000000000000d904                HalAudI2sGetFreOffset
                0x000000000000d90c                HalAudI2sGetFreOffsetVal
                0x000000000000d910                HalAudGetAoSrcMixInfo
                0x000000000000d92c                HalAudGetAoPathInfo
                0x000000000000d9d0                HalAudI2sGetTdmWsInv
                0x000000000000d9d8                HalAudI2sGetTdmChSwap
                0x000000000000d9e0                HalAudI2sSaveTdmWsWidth
                0x000000000000da18                HalAudI2sSetRxMode
                0x000000000000da1c                HalAudI2sSaveTdmChSwap
                0x000000000000da84                HalAudI2sSaveTxTdmActiveSlot
                0x000000000000da90                HalAudI2sGetTxTdmActiveSlot
                0x000000000000daa0                HalAudI2sSetTdmDetails
                0x000000000000dbfc                HalAudI2sSetRate
                0x000000000000dc24                HalAudI2sSetClkRef
                0x000000000000dc5c                HalAudI2sSetTdmMode
                0x000000000000dc6c                HalAudI2sSetMsMode
                0x000000000000dd08                HalAudI2sSetFmt
                0x000000000000dd80                HalAudI2sSetWidth
                0x000000000000de00                HalAudI2sSetChannel
                0x000000000000deb4                HalAudI2sSetWireMode
                0x000000000000df14                HalAudI2sSetTdmSlotConfig
                0x000000000000df5c                HalAudI2sEnableNoneInput
                0x000000000000df94                HalAudI2sEnableMck
                0x000000000000e030                HalAudI2sSetMck
                0x000000000000e0b0                HalAudI2sDynamicChSwap
                0x000000000000e12c                HalAudSetHpf
                0x000000000000e168                HalAudI2sOpenClkGate
                0x000000000000e1d4                HalAudI2sEnableBck
                0x000000000000e25c                HalAudSetBachPLL
                0x000000000000e304                HalAudDmaReset
                0x000000000000e31a                HalAudDmaEnable
                0x000000000000e3bc                HalAudDmaPause
                0x000000000000e3c2                HalAudDmaResume
                0x000000000000e3c8                HalAudDmaIntEnable
                0x000000000000e404                HalAudDmaIntLocalEnable
                0x000000000000e454                HalAudDmaGetInt
                0x000000000000e484                HalAudDmaClearInt
                0x000000000000e514                HalAudDmaGetFlags
                0x000000000000e544                HalAudDmaThdIntEnable
                0x000000000000e574                HalAudDmaThdValue
                0x000000000000e5a4                HalAudDmaGetThdInt
                0x000000000000e5d4                HalAudDmaGetThdFlags
                0x000000000000e630                HalAudDmaThdIntClr
                0x000000000000e660                HalAudDmaGetLevelCnt
                0x000000000000e678                HalAudDmaGetRawLevelCnt
                0x000000000000e682                HalAudDmaTrigLevelCnt
                0x000000000000e6e4                HalAudAdjustLevelCount
                0x000000000000e6e8                HalAudDmaSetPhyAddr
                0x000000000000e7f4                HalAudDmaAiSetThreshold
                0x000000000000e850                HalAudDmaAoSetThreshold
                0x000000000000e8ac                HalAudAiSetClkRefAndMch
                0x000000000000e9c8                HalAudAoSetClkRef
                0x000000000000ea60                HalAudAoSetChannelMode
                0x000000000000ea6e                HalAudConfigSrcInputClock
                0x000000000000ead0                HalAudAoSetClkUnRef
                0x000000000000eb24                HalAudDmaMonoEnable
                0x000000000000eb7c                HalAudDpgaCtrl
                0x000000000000ebfa                HalAudMainInit
                0x000000000000ec22                HalAudDpgaSetGain
                0x000000000000ed18                HalAudDpgaSetGainOffset
                0x000000000000edba                HalAudDmaSetRate
                0x000000000000edfc                HalAudDpgaSetGainFading
                0x000000000000eea0                HalAudDigMicEnable
                0x000000000000ef10                HalAudDigMicSetChannel
                0x000000000000ef80                HalAudDigMicSetRate
                0x000000000000f114                HalAudDigMicSetGain
                0x000000000000f180                HalAudDmaSineGenEnable
                0x000000000000f258                HalAudDmaSineGenSetFreq
                0x000000000000f2c4                HalAudDmaSineGenSetGain
                0x000000000000f334                HalAudDmaSineGenSetting
                0x000000000000f39c                HalAudDmaSineGenGetEnable
                0x000000000000f408                HalAudDmaSineGenGetSetting
                0x000000000000f46c                HalAudHdmiEanble
                0x000000000000f470                HalAudHdmiEanbleRx
                0x000000000000f474                HalAudAiSetGain
                0x000000000000f534                HalAudAoSetGain
                0x000000000000f5b0                HalAudAiSetIfMute
                0x000000000000f5b4                HalAudAoSetIfMute
                0x000000000000f5e0                HalAudAiSetIfSampleRate
                0x000000000000f748                HalAudAoSetIfSampleRate
                0x000000000000f7fc                HalAudAiSetDpgaGain
                0x000000000000f8d8                HalAudAoSetDpgaGain
                0x000000000000f9b4                HalAudAiSetDpgaMute
                0x000000000000fa54                HalAudAoSetDpgaMute
                0x000000000000fb0c                HalAudConfigDigMicSampleRate
                0x000000000000fb90                HalAudConfigDigMicChNum
                0x000000000000fbe4                HalAudConfigSrcParam
                0x000000000000fc64                HalAudAoIfMultiAttachAction
                0x000000000000fcac                HalAudDmaGetHwAddr
                0x000000000000fcf0                HalAudDmaLocalDebug
                0x000000000000fd7c                HalAudDmaImiToDmaW1
                0x000000000000fd80                HalAudDmaImiWaddrStart
                0x000000000000fd84                HalAudDmaImiWaddrEnd
                0x000000000000fd88                HalAudDmaImiInit
                0x000000000000fd8c                HalAudVadSetValue
                0x000000000000fd90                HalAudDirectSetDpgaGain
                0x000000000000fd94                HalAudConfigDigMicParam
                0x000000000000fd98                HalDtsI2sSetRxMode
                0x000000000000fd9a                HalDtsSetHpf
                0x000000000000fdb8                HalSetHpf
                0x000000000000fddc                HalDtsDmicBckMode
                0x000000000000fdf0                HalDtsDmicBckExtMode
                0x000000000000fdfc                HalDtsDmicDelay
                0x000000000000fe08                HalDtsKeepAdcPowerOn
                0x000000000000fe14                HalDtsKeepDacPowerOn
                0x000000000000fe20                HalDtsI2sRxShortFF
                0x000000000000fe2c                HalDtsI2sTxShortFF
                0x000000000000fe38                HalDtsAdcOutSel
                0x000000000000fe44                HalDtsAdcChInmux
                0x000000000000fe50                HalAudSetI2SDriving
                0x000000000000fe52                HalAudGetI2SDriving
                0x000000000000fe56                HalAudGetAdcOutSel
                0x000000000000fe6c                HalAudGetAdjustParam
                0x000000000000fea0                HalAudDmaGetRDMAHwAddr
                0x000000000000fec6                HalAudDmaGetWDMAHwAddr
                0x000000000000fef2                HalAudGetDmaIrqCnt
                0x000000000000ff1c                HalAudGetI2sStatus
                0x000000000000ff60                HalAudSetDtsStatus
                0x000000000000ff74                HalAudGainResume
                0x000000000000ffb8                HalBachSysSetBankBaseAddr
                0x000000000000ffc8                HalBachWriteRegByte
                0x000000000000fff4                HalBachWriteReg2Byte
                0x000000000001001c                HalBachWriteReg
                0x0000000000010080                HalBachReadReg2Byte
                0x0000000000010094                HalBachReadRegByte
                0x00000000000100b0                HalBachReadReg
                0x0000000000010378                DrvAudApiIrqInit
                0x0000000000010384                DrvAudApiIrqDeInit
                0x0000000000010388                DrvAudApiIrqSetDmaStopCb
                0x0000000000010394                DrvAudApiIrqRequest
                0x00000000000103b8                DrvAudApiIrqFree
                0x00000000000103cc                DrvAudApiIoAddress
                0x00000000000103d4                HalAudApiAoAmpEnable
                0x0000000000010478                HalAudApiDtsInit
                0x00000000000107b8                HalAudApiGetIrqId
 .text          0x00000000000107c8      0x2f0 /home/lixx/ZGCX/S1_Project/SSC308QE_SDK/Iford_IMD00V005.0.1_fastboot/SourceCode/SSC308QE_SDK_TEXT/SSC308QE_CODEBASE/sdk/linux/init/aio/aio_init.o
                0x0000000000010800                _GetU32InfoFromDtsByType
                0x0000000000010974                _GetArrayInfoFromDtsByType
                0x00000000000109f0                AudClkEnable
                0x0000000000010ab4                aio_mod_init
                0x0000000000010ab6                aio_mod_exit
 .text          0x0000000000010ab8     0xea28 /home/lixx/ZGCX/S1_Project/SSC308QE_SDK/Iford_IMD00V005.0.1_fastboot/SourceCode/SSC308QE_SDK_TEXT/SSC308QE_CODEBASE/sdk/linux/init/rgn/../../obj/uclibc/9.1.0/rgn.o
                0x0000000000010ec4                MI_DEVICE_WrapperFunction_rgn
                0x0000000000010edc                IS_PRINT_MATCH_rgn
                0x0000000000010f44                MI_DEVICE_Instance_rgn
                0x0000000000010f4c                MI_DEVICE_GetSelfDir_rgn
                0x0000000000010f5a                rgn__module_init
                0x0000000000011024                rgn__module_exit
                0x0000000000011ccc                MI_RGN_IMPL_GetAttr
                0x0000000000011dc4                MI_RGN_IMPL_SetBitMap
                0x0000000000012480                MI_RGN_IMPL_GetCanvasInfo
                0x00000000000127c4                MI_RGN_IMPL_GetCanvasVirtAddr
                0x0000000000012948                MI_RGN_IMPL_UpdateCanvas
                0x0000000000012c20                MI_RGN_IMPL_SetDisplayAttr
                0x000000000001302c                MI_RGN_IMPL_GetDisplayAttr
                0x000000000001319c                MI_RGN_IMPL_GetLumaVirtAddr
                0x00000000000131a4                MI_RGN_IMPL_SetColorInvertAttr
                0x00000000000131b4                MI_RGN_IMPL_GetColorInvertAttr
                0x00000000000131bc                MI_RGN_IMPL_GetLuma
                0x00000000000131c0                MI_RGN_IMPL_SetEnv
                0x0000000000013248                MI_RGN_IMPL_Rmmod
                0x0000000000013268                MI_RGN_IMPL_GetInitState
                0x0000000000013274                mi_rgn_MemAllocCnt
                0x0000000000013334                mi_rgn_MemFreeCnt
                0x00000000000133f4                MI_RGN_IMPL_Init
                0x00000000000135cc                MI_RGN_IMPL_DeInit
                0x000000000001363c                MI_RGN_IMPL_Create
                0x00000000000138c4                MI_RGN_IMPL_Destroy
                0x0000000000013a4c                MI_RGN_IMPL_AttachToChn
                0x0000000000013dfc                MI_RGN_IMPL_DetachFromChn
                0x0000000000013f9c                mi_rgn_GetInternalApis
                0x00000000000151bc                MI_RGN_DRV_InitBufWork
                0x00000000000151c0                MI_RGN_DRV_DeinitBufWork
                0x00000000000151dc                MI_RGN_DRV_GetInstance
                0x00000000000152d8                MI_RGN_DRV_Init
                0x00000000000152f4                MI_RGN_DRV_Deinit
                0x000000000001532c                MI_RGN_DRV_SetEnv
                0x00000000000153a8                MI_RGN_DRV_Rmmod
                0x0000000000015db4                MI_RGN_BUFQ_ExchangeBuf
                0x0000000000015e5c                MI_RGN_BUFQ_CreateBufListHead
                0x0000000000015ee8                MI_RGN_BUFQ_MoveBufListHead
                0x0000000000015f3c                MI_RGN_BUFQ_DestroyBufListHead
                0x0000000000015f42                MI_RGN_BUFQ_SetEnv
                0x0000000000015f54                MI_RGN_BUFQ_Rmmod
                0x0000000000016234                MI_RGN_HAL_IncColorRef
                0x00000000000162a8                MI_RGN_HAL_DecColorRef
                0x00000000000162ec                MI_RGN_HAL_GetColorIndex
                0x0000000000016322                MI_RGN_HAL_CalOsdBufInitPara
                0x00000000000163e8                MI_RGN_HAL_CalCoverMapBufInitPara
                0x000000000001648c                MI_RGN_HAL_Active
                0x00000000000164a8                MI_RGN_HAL_Deactive
                0x00000000000164c4                MI_RGN_HAL_SetResolution
                0x0000000000016500                MI_RGN_HAL_Reset
                0x0000000000016512                MI_RGN_HAL_Process
                0x000000000001655c                MI_RGN_HAL_GopSetPalette
                0x0000000000016594                MI_RGN_HAL_SetGopColorKey
                0x0000000000016678                MI_RGN_HAL_ConfigGopGwin
                0x0000000000016828                MI_RGN_HAL_SetGopEncMode
                0x00000000000168c8                MI_RGN_HAL_SetGopBaseWin
                0x0000000000016914                MI_RGN_HAL_DisableGopGwin
                0x0000000000016968                MI_RGN_HAL_ConfigMffCoverWin
                0x0000000000016a44                MI_RGN_HAL_DisableMffWin
                0x0000000000016aa0                MI_RGN_HAL_SetMffCmdBuf
                0x0000000000016ae0                MI_RGN_HAL_SetMffPalette
                0x0000000000016b44                MI_RGN_HAL_SetMffCoverMap
                0x0000000000016b90                MI_RGN_HAL_SetMffInputResolution
                0x0000000000016bcc                MI_RGN_HAL_DisableMff
                0x0000000000016c20                MI_RGN_HAL_ConfigMffFrameWin
                0x0000000000016d04                MI_RGN_HAL_CheckInstanceExist
                0x0000000000016d68                MI_RGN_HAL_GetStrongInstance
                0x0000000000016f40                MI_RGN_HAL_GetWeakInstance
                0x0000000000016fb0                MI_RGN_HAL_WeakenInstance
                0x0000000000017048                MI_RGN_HAL_Suspend
                0x0000000000017094                MI_RGN_HAL_Resume
                0x00000000000170e0                MI_RGN_HAL_SetEnv
                0x0000000000017120                MI_RGN_HAL_Rmmod
                0x0000000000017138                MI_RGN_SYS_CheckBufInfoEmpty
                0x0000000000017160                MI_RGN_SYS_FillRectBuf
                0x00000000000172b8                MI_RGN_SYS_BlitBuf
                0x000000000001741c                MI_RGN_SYS_InitBuf
                0x0000000000017484                MI_RGN_SYS_Mmap
                0x0000000000017504                MI_RGN_SYS_Munmap
                0x0000000000017548                MI_RGN_SYS_FlushCache
                0x0000000000017584                MI_RGN_SYS_Vmap
                0x00000000000175d4                MI_RGN_SYS_UnVmap
                0x00000000000175f8                MI_RGN_SYS_CheckBufSizeAlike
                0x0000000000017620                MI_RGN_SYS_BufAlloc
                0x00000000000176dc                MI_RGN_SYS_BufFree
                0x0000000000017714                MI_RGN_SYS_Init
                0x00000000000177ac                MI_RGN_SYS_Deinit
                0x0000000000017970                MI_RGN_PASS_HoldOnBufToRefCnt
                0x00000000000179ec                MI_RGN_PASS_RewindBufToRefCnt
                0x0000000000017a40                MI_RGN_PASS_GiveUpBufToRefCnt
                0x0000000000017afa                MI_RGN_PASS_ExchangeBuf
                0x0000000000017b48                MI_RGN_PASS_InitBufManager
                0x0000000000018908                MI_RGN_COMBINE_CheckBlend
                0x0000000000018a88                MI_RGN_COMBINE_Start
                0x0000000000018aa0                MI_RGN_COMBINE_QueueWork
                0x0000000000018acc                MI_RGN_COMBINE_FlushWork
                0x0000000000018c50                MI_RGN_COMBINE_Init
                0x0000000000018cf8                MI_RGN_COMBINE_Deinit
                0x0000000000018d14                MI_RGN_COMBINE_SetEnv
                0x0000000000018d2c                MI_RGN_COMBINE_Rmmod
                0x0000000000018e0e                MI_RGN_COMMON_GetChnPortListHead
                0x0000000000018f68                MI_RGN_COMMON_ResetChnPortListHead
                0x0000000000018fbc                MI_RGN_COMMON_ForEachHashMapHead
                0x00000000000190d8                MI_RGN_COMMON_WindowWaitForBufferReady
                0x00000000000191ac                MI_RGN_COMMON_SetEnv
                0x00000000000191c0                MI_RGN_COMMON_Rmmod
                0x000000000001b390                MI_RGN_OSD_SetEnv
                0x000000000001bd04                MI_RGN_MFF_SetEnv
                0x000000000001c528                MI_RGN_COVER_WindowCreate
                0x000000000001c66c                MI_RGN_COVER_BitMapUpdate
                0x000000000001c674                MI_RGN_COVER_BitMapDone
                0x000000000001c67c                MI_RGN_COVER_HalConfigCover
                0x000000000001c738                MI_RGN_COVER_BufDeinit
                0x000000000001cd98                MI_RGN_FRAME_WindowCreate
                0x000000000001cea4                MI_RGN_FRAME_HalConfigFrame
                0x000000000001d222                MHAL_RGN_GetGopNumByType
                0x000000000001d264                MHAL_RGN_GetTargetMax
                0x000000000001d268                MHAL_RGN_SetIrqNum
                0x000000000001d2b4                MHAL_RGN_GetInternalApis
                0x000000000001d3e4                HAL_RGN_IF_GetChipCapOps
                0x000000000001d400                HAL_RGN_IF_Create
                0x000000000001d484                HAL_RGN_IF_Destory
                0x000000000001d4c8                HAL_RGN_IF_Active
                0x000000000001d4fa                HAL_RGN_IF_Deactive
                0x000000000001d522                HAL_RGN_IF_Reset
                0x000000000001d530                HAL_RGN_CMDQ_NormalRegUpdate
                0x000000000001d5ee                HAL_RGN_CMDQ_MemPollRegEq
                0x000000000001d5f0                HAL_RGN_CMDQ_MemRegUpdate
                0x000000000001d652                HAL_RGN_CMDQ_WakeWrite2Byte
                0x000000000001d654                HAL_RGN_CMDQ_WakeRegUpdate
                0x000000000001d65a                HAL_RGN_CMDQ_WakePollRegEq
                0x000000000001d65c                HAL_RGN_CMDQ_WakeWrite2ByteMsk
                0x000000000001d65e                _HAL_RGN_CMDQ_FillNormalCmdq
                0x000000000001d69e                HAL_RGN_CMDQ_NormalWrite2Byte
                0x000000000001d6ae                HAL_RGN_CMDQ_NormalWrite2ByteMsk
                0x000000000001d6c0                _HAL_RGN_CMDQ_PollNormalRegEq
                0x000000000001d700                HAL_RGN_CMDQ_NormalPollRegEq
                0x000000000001d712                _HAL_RGN_CMDQ_FillMemCmdq
                0x000000000001d744                HAL_RGN_CMDQ_MemWrite2Byte
                0x000000000001d754                HAL_RGN_CMDQ_MemWrite2ByteMsk
                0x000000000001d766                HAL_RGN_CMDQ_Create
                0x000000000001d7fc                HAL_RGN_CMDQ_Destory
                0x000000000001d81c                HAL_RGN_CMDQ_Enable
                0x000000000001d838                HAL_RGN_CMDQ_Disable
                0x000000000001dcce                HAL_RGN_GOP_SetPalette
                0x000000000001dd0a                HAL_RGN_GOP_SetColorKey
                0x000000000001dd1e                HAL_RGN_GOP_SetBaseWindow
                0x000000000001dd40                HAL_RGN_GOP_SetAlphaZeroOpaque
                0x000000000001dd50                HAL_RGN_GOP_SetOutputFormat
                0x000000000001dd60                HAL_RGN_GOP_SetEncMode
                0x000000000001dd70                HAL_RGN_GOP_SetContrast
                0x000000000001dd86                HAL_RGN_GOP_SetBrightness
                0x000000000001dd96                HAL_RGN_GOP_SetArgb1555AlphaVal
                0x000000000001ddd4                HAL_RGN_GOP_GwinSetPixelFormatForVenc
                0x000000000001de54                HAL_RGN_GOP_GwinSetPixelFormat
                0x000000000001ded4                HAL_RGN_GOP_GwinSetPaletteIdx
                0x000000000001df08                HAL_RGN_GOP_GwinSetWindow
                0x000000000001df56                HAL_RGN_GOP_GwinSetWindowForVencJpe
                0x000000000001dfd0                HAL_RGN_GOP_GwinSetBuffer
                0x000000000001e014                HAL_RGN_GOP_GwinSetBufferForVenc
                0x000000000001e04a                HAL_RGN_GOP_GwinSetOnOffForScl
                0x000000000001e0b0                HAL_RGN_GOP_GwinSetOnOff
                0x000000000001e10c                HAL_RGN_GOP_GwinSetAlphaType
                0x000000000001e14e                HAL_RGN_GOP_ProcessForVenc
                0x000000000001e176                HAL_RGN_GOP_Process
                0x000000000001e19e                HAL_RGN_GOP_GetGopGwinCnt
                0x000000000001e1b4                HAL_RGN_GOP_GetGopWidthAlign
                0x000000000001e1be                HAL_RGN_GOP_GetGopXPosAlign
                0x000000000001e1c2                HAL_RGN_GOP_GetGopPitchAlign
                0x000000000001e1c6                HAL_RGN_GOP_GetGopNumByType
                0x000000000001e1da                HAL_RGN_GOP_GetGopIrqNum
                0x000000000001e1f0                HAL_RGN_GOP_ClearGopIrq
                0x000000000001e228                HAL_RGN_GOP_SetGopIrqNum
                0x000000000001e244                HAL_RGN_GOP_SetGopIrq
                0x000000000001e304                HAL_RGN_GOP_IsSupportGopIrq
                0x000000000001e30c                HAL_RGN_GOP_IsSupportGopFmt
                0x000000000001e328                HAL_RGN_GOP_IsSupportGopDiffFmt
                0x000000000001e344                HAL_RGN_GOP_IsSupportGopColorkey
                0x000000000001e358                HAL_RGN_GOP_IsSupportGopOverlap
                0x000000000001e35c                HAL_RGN_GOP_IsSupportGopXOverlap
                0x000000000001e360                HAL_RGN_GOP_SetPaletteTbl
                0x000000000001e4c0                HAL_RGN_GOP_SetBaseWindowForVencJpe
                0x000000000001e63c                HAL_RGN_GOP_Reset
                0x000000000001e748                HAL_RGN_GOP_ResetForVenc
                0x000000000001e7e2                HAL_RGN_GOP_Activate
                0x000000000001e810                HAL_RGN_GOP_Deactivate
                0x000000000001e814                HAL_RGN_GOP_Create
                0x000000000001e8d8                HAL_RGN_GOP_Destory
                0x000000000001e8ee                HAL_RGN_GOP_GetCap
                0x000000000001ee40                HAL_RGN_MFF_Process
                0x000000000001ee6e                HAL_RGN_MFF_VencSetPalette
                0x000000000001eea0                HAL_RGN_MFF_VencSetWinBuffer
                0x000000000001eeb0                HAL_RGN_MFF_SetColor
                0x000000000001eeee                HAL_RGN_MFF_VencSetColor
                0x000000000001ef14                HAL_RGN_MFF_VencSetBorder
                0x000000000001ef4a                HAL_RGN_MFF_SetOnOff
                0x000000000001efaa                HAL_RGN_MFF_VencSetOnOff
                0x000000000001efae                HAL_RGN_MFF_GetWinCnt
                0x000000000001efcc                HAL_RGN_MFF_GetWinBufferSize
                0x000000000001efda                HAL_RGN_MFF_IsSupportMosaicBlockSize
                0x000000000001efde                HAL_RGN_MFF_IsSupportMosaicDiffBlock
                0x000000000001efe2                HAL_RGN_MFF_GetPaletteNum
                0x000000000001eff6                HAL_RGN_MFF_IsSupportColorMode
                0x000000000001f01a                HAL_RGN_MFF_GetMapPitchAlign
                0x000000000001f01e                HAL_RGN_MFF_GetHAlign
                0x000000000001f032                HAL_RGN_MFF_GetVAlign
                0x000000000001f036                HAL_RGN_MFF_GetFrameMaxBorderSize
                0x000000000001f03a                HAL_RGN_MFF_GetGroupNum
                0x000000000001f04c                HAL_RGN_MFF_GetGroupId
                0x000000000001f0d0                HAL_RGN_MFF_VencProcess
                0x000000000001f138                HAL_RGN_MFF_SetWindow
                0x000000000001f186                HAL_RGN_MFF_VencSetWindow
                0x000000000001f1d4                HAL_RGN_MFF_Reset
                0x000000000001f1e2                HAL_RGN_MFF_VencReset
                0x000000000001f1ea                HAL_RGN_MFF_IsSupportRotate
                0x000000000001f1ec                HAL_RGN_MFF_IsSupportMap
                0x000000000001f1ee                HAL_RGN_MFF_SetPalette
                0x000000000001f1f4                HAL_RGN_MFF_GetCap
                0x000000000001f26c                HAL_RGN_MFF_Create
                0x000000000001f4b0                HAL_RGN_MFF_Destory
 .text          0x000000000001f4e0       0xd8 /home/lixx/ZGCX/S1_Project/SSC308QE_SDK/Iford_IMD00V005.0.1_fastboot/SourceCode/SSC308QE_SDK_TEXT/SSC308QE_CODEBASE/sdk/linux/init/rgn/rgn_init.o
                0x000000000001f4e0                DRV_RGN_MoudleDeviceInit
                0x000000000001f574                DRV_RGN_ModuleDeviceDeinit
                0x000000000001f598                rgn_mod_init
                0x000000000001f5a8                rgn_mod_exit
 .text          0x000000000001f5b8     0x50ac /home/lixx/ZGCX/S1_Project/SSC308QE_SDK/Iford_IMD00V005.0.1_fastboot/SourceCode/SSC308QE_SDK_TEXT/SSC308QE_CODEBASE/sdk/linux/init/ive/../../obj/uclibc/9.1.0/ive.o
                0x000000000001ff6c                MI_DEVICE_WrapperFunction_ive
                0x000000000001ff84                IS_PRINT_MATCH_ive
                0x000000000001ffec                MI_DEVICE_Instance_ive
                0x000000000001fff4                MI_DEVICE_GetSelfDir_ive
                0x0000000000020002                ive__module_init
                0x00000000000200cc                ive__module_exit
                0x000000000002088c                MI_IVE_IMPL_Insmod
                0x00000000000208a8                MI_IVE_IMPL_Rmmod
                0x00000000000208b4                MI_IVE_IMPL_Resume
                0x000000000002090c                MI_IVE_IMPL_Suspend
                0x00000000000209cc                MI_IVE_IMPL_Create
                0x0000000000020aa4                MI_IVE_IMPL_Destroy
                0x0000000000020b34                MI_IVE_IMPL_GetPollData
                0x0000000000020ba8                MI_IVE_IMPL_Reset
                0x0000000000020c24                MI_IVE_IMPL_ForceDestroy
                0x0000000000020d00                MI_IVE_IMPL_Poll
                0x0000000000020dc4                MI_IVE_IMPL_Filter
                0x0000000000020e34                MI_IVE_IMPL_CSC
                0x0000000000020ea8                MI_IVE_IMPL_FilterAndCSC
                0x0000000000020f2c                MI_IVE_IMPL_Sobel
                0x0000000000020fbc                MI_IVE_IMPL_MagAndAng
                0x000000000002104c                MI_IVE_IMPL_Dilate
                0x00000000000210c0                MI_IVE_IMPL_Erode
                0x0000000000021134                MI_IVE_IMPL_Thresh
                0x00000000000211c0                MI_IVE_IMPL_And
                0x0000000000021224                MI_IVE_IMPL_Sub
                0x0000000000021290                MI_IVE_IMPL_Or
                0x00000000000212f4                MI_IVE_IMPL_Integ
                0x0000000000021360                MI_IVE_IMPL_Hist
                0x00000000000213c0                MI_IVE_IMPL_ThreshS16
                0x000000000002144c                MI_IVE_IMPL_ThreshU16
                0x00000000000214d8                MI_IVE_IMPL_16To8Bit
                0x0000000000021558                MI_IVE_IMPL_OrdStatFilter
                0x00000000000215bc                MI_IVE_IMPL_Map
                0x0000000000021630                MI_IVE_IMPL_Add
                0x00000000000216a8                MI_IVE_IMPL_Xor
                0x000000000002170c                MI_IVE_IMPL_Ncc
                0x000000000002177c                MI_IVE_IMPL_Ccl
                0x0000000000021780                MI_IVE_IMPL_Gmm
                0x0000000000021784                MI_IVE_IMPL_Lbp
                0x000000000002182c                MI_IVE_IMPL_Sad
                0x00000000000218c8                MI_IVE_IMPL_Resize
                0x00000000000218cc                MI_IVE_IMPL_Bernsen
                0x000000000002194c                MI_IVE_IMPL_AdpThresh
                0x0000000000021a20                MI_IVE_IMPL_Bat
                0x0000000000021a94                MI_IVE_IMPL_MatrixTransform
                0x0000000000021b18                MI_IVE_IMPL_ImageDot
                0x0000000000021b80                MI_IVE_IMPL_AlphaBlending
                0x0000000000021be4                MI_IVE_IMPL_Bgblur
                0x0000000000021eac                MI_IVE_DEBUG_GetModDbgParam
                0x0000000000021eb8                MI_IVE_DEBUG_InitChnDbgInfo
                0x0000000000022078                MI_IVE_DEBUG_DeinitChnDbgInfo
                0x00000000000221b4                MI_IVE_DEBUG_UpdateTimeoutInfo
                0x00000000000221e8                MI_IVE_DEBUG_InitProcFs
                0x000000000002228c                MI_IVE_DEBUG_DeinitProcFs
                0x00000000000222b4                MI_IVE_MODPARAM_Init
                0x00000000000222cc                MI_IVE_MODPARAM_GetHandle
                0x00000000000222d4                drv_ive_isr_post_proc
                0x00000000000222fc                drv_ive_try_add_work
                0x0000000000022354                drv_ive_isr_pre_proc
                0x0000000000022398                drv_ive_isr
                0x00000000000223d4                drv_ive_reset_status
                0x0000000000022444                drv_ive_clock_round_rate
                0x0000000000022528                drv_ive_clock_set_rate
                0x0000000000022578                drv_ive_clock_init
                0x00000000000225dc                drv_ive_clock_release
                0x00000000000225ee                drv_ive_clock_enable
                0x00000000000226cc                drv_ive_clock_disable
                0x000000000002271c                DrvSysIveAxiGet
                0x0000000000022748                DrvSysIveAxiSet
                0x00000000000227d0                DrvSysIveClkGet
                0x0000000000022910                DrvSysIveClkSet
                0x0000000000022c84                drv_ive_extract_request
                0x0000000000022cce                drv_ive_extract_request_by_chn
                0x0000000000022d2c                drv_ive_get_request
                0x0000000000022d76                ive_drv_isr_handler
                0x0000000000022db8                ive_drv_init
                0x0000000000022df4                ive_drv_release
                0x0000000000022df6                ive_drv_process
                0x0000000000022eb8                ive_drv_post_process
                0x0000000000022f18                ive_drv_pre_process
                0x0000000000022f40                ive_drv_reset
                0x0000000000022f5c                drv_ive_module_get_resource
                0x0000000000023c7c                ive_hal_init
                0x0000000000023ca6                ive_hal_set_irq_mask
                0x0000000000023cac                ive_hal_set_bgblur_irq_mask
                0x0000000000023cbc                ive_hal_clear_irq
                0x0000000000023ccc                ive_hal_clear_bgblur_irq
                0x0000000000023ce8                ive_hal_get_irq_check
                0x0000000000023cfc                ive_hal_get_bgblur_irq_check
                0x0000000000023d1c                ive_hal_get_irq
                0x0000000000023d2e                ive_hal_get_bgblur_irq
                0x0000000000023d4c                ive_hal_set_operation
                0x0000000000023d52                ive_hal_mcm_busy_on_off
                0x0000000000023d60                ive_hal_bgblur_mcm_busy_on_off
                0x0000000000023d6e                ive_hal_padding_mode_set
                0x0000000000023d7c                ive_hal_set_images
                0x0000000000023ed8                ive_hal_set_bgblur_images
                0x0000000000024086                ive_hal_set_coeff_bgblur
                0x0000000000024286                ive_hal_set_burst
                0x0000000000024334                ive_hal_start
                0x0000000000024356                ive_hal_start_bgblur
                0x0000000000024384                ive_hal_sw_reset
                0x0000000000024440                ive_hal_get_check_params
                0x00000000000244c8                ive_hal_set_op_params
                0x00000000000245fa                ive_hal_reg_dump
 .text          0x0000000000024664       0x8c /home/lixx/ZGCX/S1_Project/SSC308QE_SDK/Iford_IMD00V005.0.1_fastboot/SourceCode/SSC308QE_SDK_TEXT/SSC308QE_CODEBASE/sdk/linux/init/ive/ive_init.o
                0x0000000000024664                DrvIveOfFindCompatibleNode
                0x0000000000024668                DrvIveCamOfAddressToResource
                0x00000000000246cc                DrvIveCamOfIrqToResource
                0x00000000000246d0                ive_mod_init
                0x00000000000246e0                ive_mod_exit
 .text          0x00000000000246f0     0x5c70 /home/lixx/ZGCX/S1_Project/SSC308QE_SDK/Iford_IMD00V005.0.1_fastboot/SourceCode/SSC308QE_SDK_TEXT/SSC308QE_CODEBASE/sdk/linux/init/ao/../../obj/uclibc/9.1.0/ao.o
                0x00000000000246f0                MI_AO_IOCTL_Write
                0x0000000000024e7c                IS_PRINT_MATCH_ao
                0x0000000000024f70                MI_DEVICE_WrapperFunction_ao
                0x0000000000024f88                MI_DEVICE_Instance_ao
                0x0000000000024f90                MI_DEVICE_GetSelfDir_ao
                0x0000000000024f9e                ao__module_init
                0x0000000000025064                ao__module_exit
                0x0000000000027420                _MI_AO_IMPL_AllDeviceIsClosed
                0x0000000000027444                MI_AO_IMPL_Init
                0x00000000000274a4                MI_AO_IMPL_DeInit
                0x0000000000027508                MI_AO_IMPL_GetChipDevNum
                0x0000000000027550                MI_AO_IMPL_InitGlobalData
                0x00000000000276d8                MI_AO_IMPL_DeInitGlobalData
                0x000000000002773c                MI_AO_IMPL_GetDevAttr
                0x0000000000027828                MI_AO_IMPL_Open
                0x0000000000027bc0                MI_AO_IMPL_Close
                0x0000000000027d5c                _MI_AO_IMPL_SetChannelMode
                0x0000000000027ed0                MI_AO_IMPL_SetChannelMode
                0x0000000000027f50                MI_AO_IMPL_AttachIf
                0x000000000002833c                MI_AO_IMPL_DetachIf
                0x0000000000028534                MI_AO_IMPL_QueryDmaBufferStatus
                0x00000000000286ac                MI_AO_IMPL_GetDevBuf
                0x0000000000028774                MI_AO_IMPL_Write
                0x0000000000028968                MI_AO_IMPL_Start
                0x0000000000028a34                MI_AO_IMPL_Stop
                0x0000000000028aec                MI_AO_IMPL_Pause
                0x0000000000028ba4                MI_AO_IMPL_Resume
                0x0000000000028c60                MI_AO_IMPL_SetVolume
                0x0000000000028e50                MI_AO_IMPL_GetVolume
                0x0000000000028f74                MI_AO_IMPL_SetMute
                0x000000000002911c                MI_AO_IMPL_GetMute
                0x0000000000029240                MI_AO_IMPL_SetIfVolume
                0x0000000000029338                MI_AO_IMPL_GetIfVolume
                0x000000000002941c                MI_AO_IMPL_SetIfMute
                0x00000000000294ec                MI_AO_IMPL_GetIfMute
                0x0000000000029594                MI_AO_IMPL_SetI2sConfig
                0x00000000000298a0                MI_AO_IMPL_GetI2sConfig
                0x000000000002997c                MI_AO_IMPL_AdjustSpeed
                0x00000000000299d0                MI_AO_IMPL_GetLatency
                0x0000000000029a70                MI_AO_IMPL_OpenWithCfgFile
                0x0000000000029ce8                MI_AO_IMPL_Dup
                0x0000000000029e7c                MI_AO_IMPL_GetIfIndex
                0x0000000000029e90                _MI_AO_IMPL_MiDevToMhalDev
                0x0000000000029ea0                _MI_AO_IMPL_GetMhalChannelModeFromMiChannelMode
                0x0000000000029eaa                MI_AO_IMPL_I2sIfToI2sSet
                0x0000000000029ebe                MI_AO_IMPL_IfToStr
                0x0000000000029f78                _MI_AO_IMPL_GetMhalIfsFromMiIf
                0x000000000002a028                MI_AO_IMPL_MhalGetIfToStr
                0x000000000002a158                MI_AO_IMPL_MhalGetLeftIfToStr
                0x000000000002a162                MI_AO_IMPL_MhalGetRightIfToStr
                0x000000000002a16c                MI_AO_IMPL_MhalGetCurrDataLen
                0x000000000002a188                MI_AO_IMPL_MhalDpgaMute
                0x000000000002a1b6                MI_AO_IMPL_MhalDpgaGain
                0x000000000002a1e4                MI_AO_IMPL_MhalSetIfMute
                0x000000000002a234                MI_AO_IMPL_MhalSetIfGain
                0x000000000002a284                MI_AO_IMPL_MhalSineGenStart
                0x000000000002a2d4                MI_AO_IMPL_MhalSineGenStop
                0x000000000002a2ea                MI_AO_IMPL_MhalSetChannelMode
                0x000000000002a30c                MI_AO_IMPL_MhalSetI2sTxChSwap
 .text          0x000000000002a360       0x20 /home/lixx/ZGCX/S1_Project/SSC308QE_SDK/Iford_IMD00V005.0.1_fastboot/SourceCode/SSC308QE_SDK_TEXT/SSC308QE_CODEBASE/sdk/linux/init/ao/ao_init.o
                0x000000000002a360                ao_mod_init
                0x000000000002a370                ao_mod_exit
 .text          0x000000000002a380     0x1f68 /home/lixx/ZGCX/S1_Project/SSC308QE_SDK/Iford_IMD00V005.0.1_fastboot/SourceCode/SSC308QE_SDK_TEXT/SSC308QE_CODEBASE/sdk/linux/init/shadow/../../obj/uclibc/9.1.0/shadow.o
                0x000000000002a380                MI_SHADOW_IOCTL_RegisterDev
                0x000000000002a3f4                MI_SHADOW_IOCTL_UnRegisterDev
                0x000000000002a470                MI_SHADOW_IOCTL_GetOutputPortBuf
                0x000000000002a4b0                MI_SHADOW_IOCTL_GetInputPortBuf
                0x000000000002a4e4                MI_SHADOW_IOCTL_FinishBuf
                0x000000000002a50c                MI_SHADOW_IOCTL_RewindBuf
                0x000000000002a534                MI_SHADOW_IOCTL_WaitOnInputTaskAvailable
                0x000000000002a53e                MI_SHADOW_IOCTL_SetChannelStatus
                0x000000000002a55e                MI_SHADOW_IOCTL_SetInputPortBufExtConf
                0x000000000002a578                MI_SHADOW_IOCTL_SetOutputPortBufExtConf
                0x000000000002a694                MI_DEVICE_WrapperFunction_shadow
                0x000000000002a6ac                IS_PRINT_MATCH_shadow
                0x000000000002a714                MI_DEVICE_Instance_shadow
                0x000000000002a71c                MI_DEVICE_GetSelfDir_shadow
                0x000000000002a72a                shadow__module_init
                0x000000000002a7f4                shadow__module_exit
                0x000000000002a8b4                _MI_SHADOW_IMPL_Suspend
                0x000000000002a8b8                _MI_SHADOW_IMPL_ResumeNotify
                0x000000000002ab3c                MI_SHADOW_IMPL_DevInfoReadLock
                0x000000000002ab48                MI_SHADOW_IMPL_DevInfoReadUnlock
                0x000000000002ab54                MI_SHADOW_IMPL_WaitDebugCallback
                0x000000000002abf8                _MI_SHADOW_IMPL_Resume
                0x000000000002ad3a                MI_SHADOW_IMPL_DevInfoWriteLock
                0x000000000002ad44                MI_SHADOW_IMPL_DevInfoWriteUnlock
                0x000000000002ad50                _MI_SHADOW_IMPL_SuspendNotify
                0x000000000002ae94                MI_SHADOW_IMPL_TraceTime
                0x000000000002b23e                MI_SHADOW_IMPL_SetChannelStatus
                0x000000000002b3a0                MI_SHADOW_IMPL_GetPortBuf
                0x000000000002b67c                MI_SHADOW_IMPL_MmaFree
                0x000000000002b84c                MI_SHADOW_IMPL_MmaAlloc
                0x000000000002b950                MI_SHADOW_IMPL_Init
                0x000000000002b9c4                MI_SHADOW_IMPL_DeInit
                0x000000000002ba94                MI_SHADOW_IMPL_RegisterDev
                0x000000000002becc                MI_SHADOW_IMPL_UnRegisterDev
                0x000000000002bf64                MI_SHADOW_IMPL_SetInputPortBufExtConf
                0x000000000002bf7c                MI_SHADOW_IMPL_SetOutputPortBufExtConf
                0x000000000002bf94                MI_SHADOW_IMPL_GetOutputPortBuf
                0x000000000002c000                MI_SHADOW_IMPL_GetInputPortBuf
                0x000000000002c05c                MI_SHADOW_IMPL_DoneBuf
                0x000000000002c1ec                MI_SHADOW_IMPL_FinishBuf
                0x000000000002c1fa                MI_SHADOW_IMPL_RewindBuf
                0x000000000002c208                MI_SHADOW_IMPL_WaitOnInputTaskAvailable
 .text          0x000000000002c2e8       0x20 /home/lixx/ZGCX/S1_Project/SSC308QE_SDK/Iford_IMD00V005.0.1_fastboot/SourceCode/SSC308QE_SDK_TEXT/SSC308QE_CODEBASE/sdk/linux/init/shadow/shadow_init.o
                0x000000000002c2e8                shadow_mod_init
                0x000000000002c2f8                shadow_mod_exit
 .text          0x000000000002c308    0x5abf0 /home/lixx/ZGCX/S1_Project/SSC308QE_SDK/Iford_IMD00V005.0.1_fastboot/SourceCode/SSC308QE_SDK_TEXT/SSC308QE_CODEBASE/sdk/linux/init/isp/../../obj/uclibc/9.1.0/isp.o
                0x000000000002c308                MI_ISP_IOCTL_CreateDevice
                0x000000000002c378                MI_ISP_IOCTL_DestoryDevice
                0x000000000002c3f0                MI_ISP_IOCTL_CreateChannel
                0x000000000002c470                MI_ISP_IOCTL_DestroyChannel
                0x000000000002c4f4                MI_ISP_IOCTL_SetInputPortCrop
                0x000000000002c51c                MI_ISP_IOCTL_GetInputPortCrop
                0x000000000002c544                MI_ISP_IOCTL_SetChnParam
                0x000000000002c56c                MI_ISP_IOCTL_GetChnParam
                0x000000000002c594                MI_ISP_IOCTL_SetSubChnParam
                0x000000000002c5c0                MI_ISP_IOCTL_GetSubChnParam
                0x000000000002c5ec                MI_ISP_IOCTL_StartChannel
                0x000000000002c610                MI_ISP_IOCTL_StopChannel
                0x000000000002c634                MI_ISP_IOCTL_SetOutputPortParam
                0x000000000002c660                MI_ISP_IOCTL_GetOutputPortParam
                0x000000000002c68c                MI_ISP_IOCTL_EnableOutputPort
                0x000000000002c71c                MI_ISP_IOCTL_DisableOutputPort
                0x000000000002c7a8                MI_ISP_IOCTL_SetInsideLdcParam
                0x000000000002c7dc                MI_ISP_IOCTL_AiBnrInit
                0x000000000002c800                MI_ISP_IOCTL_AiBnrDeInit
                0x000000000002c824                MI_ISP_IOCTL_SetAiBnrAttr
                0x000000000002c84c                MI_ISP_IOCTL_SetAiBnrExtAttr
                0x000000000002c884                MI_ISP_IOCTL_GetAiBnrExtAttr
                0x000000000002c8c4                MI_ISP_IOCTL_AllocIQDataBuf
                0x000000000002c918                MI_ISP_IOCTL_FreeIQDataBuf
                0x000000000002c93c                MI_ISP_IOCTL_SetIQApiData
                0x000000000002c964                MI_ISP_IOCTL_GetIQApiData
                0x000000000002c98c                MI_ISP_IOCTL_CallBackTaskRegister
                0x000000000002c9e4                MI_ISP_IOCTL_CallBackTaskUnregister
                0x000000000002ca3c                MI_ISP_IOCTL_SkipFrame
                0x000000000002ca64                MI_ISP_IOCTL_LoadPortZoomTable
                0x000000000002ca8c                MI_ISP_IOCTL_StartPortZoom
                0x000000000002cab4                MI_ISP_IOCTL_StopPortZoom
                0x000000000002cad8                MI_ISP_IOCTL_GetPortCurZoomAttr
                0x000000000002cb00                MI_ISP_IOCTL_GetOverlapAttr
                0x000000000002cb28                MI_ISP_IOCTL_SetOverlapAttr
                0x000000000002cb50                MI_ISP_IOCTL_GetAllMhalChnId
                0x000000000002cba8                IS_PRINT_MATCH_isp
                0x000000000002cd40                MI_DEVICE_WrapperFunction_isp
                0x000000000002cd58                MI_DEVICE_Instance_isp
                0x000000000002cd60                MI_DEVICE_GetSelfDir_isp
                0x000000000002cd6e                isp__module_init
                0x000000000002ce34                isp__module_exit
                0x000000000002d140                MI_ISP_PASS_GetPassCommonRes
                0x000000000002d164                MI_ISP_PASS_IsSkip
                0x000000000002d178                MI_ISP_PASS_OnGetInputPortNum
                0x000000000002d17c                MI_ISP_PASS_GetOutputPortNum
                0x000000000002d180                MI_ISP_PASS_OnGetCurPassInnerBindInputPort
                0x000000000002d18c                MI_ISP_PASS_OnGetCurPassInnerBindOutputPort
                0x000000000002d190                MI_ISP_PASS_IpuPassGetOutputPortNum
                0x000000000002d194                MI_ISP_PASS_IpuPassOnCheckPassSkipMode
                0x000000000002d30c                MI_ISP_IMPL_MiSysMap
                0x000000000002d438                MI_ISP_TRANS_FuncToPassId
                0x000000000002d7d8                MI_ISP_PASS_OnGetOutputPortBindCapability
                0x000000000002d8a4                MI_ISP_PASS_RejectCmdq
                0x000000000002daac                MI_ISP_IMPL_MiSysFree
                0x000000000002dcbc                MI_ISP_PASS_OnGetInputPortBindCapability
                0x000000000002dcf2                MI_ISP_IMPL_MiSysFlashCache
                0x000000000002dd14                MI_ISP_IMPL_MiSysUnMap
                0x000000000002e3f4                MI_ISP_PASS_OnPmResumeNotify
                0x000000000002e5cc                MI_ISP_PASS_OnPmSuspendNotify
                0x000000000002e78c                MI_ISP_PASS_OnSuspend
                0x000000000002e8a0                MI_ISP_PASS_OnResume
                0x000000000002ee00                MI_ISP_IMPL_MiSysAlloc
                0x000000000002f27c                MI_ISP_IMPL_LockChn
                0x000000000002f2a0                MI_ISP_IMPL_UnLockChn
                0x000000000002f2c4                MI_ISP_PASS_OnBindInputPort
                0x000000000002f3d4                MI_ISP_PASS_OnUnBindInputPort
                0x000000000002f4ec                MI_ISP_PASS_PrePassOnCheckPassSkipMode
                0x000000000002f6f0                MI_ISP_DEBUG_DumpTaskThread
                0x000000000002f7ae                MI_ISP_PLATFORM_SupportInputCrop
                0x000000000002f7d2                MI_ISP_PLATFORM_SupportRot
                0x000000000002f8e4                MI_ISP_PLATFORM_SupportFlip
                0x000000000002f9e0                MI_ISP_PLATFORM_SupportHdr
                0x000000000002fa38                MI_ISP_PLATFORM_SupportHDRFusionType
                0x000000000002fa8c                MI_ISP_PLATFORM_SupportHDRExposureType
                0x000000000002fc84                MI_ISP_PLATFORM_SupportMirror
                0x000000000002fd74                MI_ISP_PLATFORM_Support3DNR
                0x000000000002feb8                MI_ISP_PLATFORM_SupportRgbIr
                0x000000000002fef4                MI_ISP_PLATFORM_SupportDMA420
                0x000000000002ff00                MI_ISP_PLATFORM_RotFlipRelyOn3Dnr
                0x000000000002ff60                MI_ISP_PLATFORM_SupportOutputCEMode
                0x000000000002fff4                MI_ISP_PLATFORM_SupportInputCEMode
                0x00000000000300b0                MI_ISP_PLATFORM_OutputCERelayOnPixel
                0x00000000000300cc                MI_ISP_PLATFORM_SupportPhylayoutType
                0x00000000000300ea                MI_ISP_PLATFORM_SupportCRC
                0x00000000000300fe                MI_ISP_PLATFORM_GetStrideAlign
                0x00000000000301b8                MI_ISP_PLATFORM_GetOutputAlign
                0x00000000000301e4                MI_ISP_PLATFORM_SupportY2B
                0x0000000000030218                MI_ISP_PLATFORM_MultiDevIdSupport
                0x0000000000030240                MI_ISP_PLATFORM_GetRotExtraBufferEn
                0x0000000000030284                MI_ISP_PLATFORM_GetInputMaxWidth
                0x0000000000030308                MI_ISP_PLATFORM_GetInputMinWidth
                0x000000000003034c                MI_ISP_PLATFORM_GetInputMinHeight
                0x0000000000030384                MI_ISP_PLATFORM_GetIpuPreBufOrder
                0x00000000000304d0                MI_ISP_TRANS_MiSegToMhal
                0x0000000000030538                MI_ISP_TRANS_SegToFuncNodeMaskAndSkipPass
                0x0000000000030a48                MI_ISP_TRANS_RotToMhalType
                0x0000000000030b28                MI_ISP_PLATFORM_GetInputMaxHeight
                0x0000000000030c44                MI_ISP_TRANS_PixelFormatToBayerBitId
                0x0000000000030dc0                MI_ISP_PLATFORM_SupportInputPixel
                0x0000000000030eb4                MI_ISP_PLATFORM_SupportOutputPixel
                0x0000000000030ef4                MI_ISP_PLATFORM_InputCERelayOnPixel
                0x0000000000031600                MI_ISP_TRANS_PixelFormatToMhal
                0x0000000000031898                MI_ISP_TRANS_PixelToBit
                0x00000000000319ec                MI_ISP_TRANS_SensorBindIdToMhal
                0x0000000000031a80                MI_ISP_TRANS_GetMhalInputSensorBind
                0x0000000000031a90                MI_ISP_TRANS_MhalIspSensorBindIdToMhalSensor
                0x0000000000031b0c                MI_ISP_TRANS_FindSnrFlagAndId
                0x0000000000031b20                MI_ISP_TRANS_PortToWaitDoneNote
                0x0000000000031b8c                MI_ISP_TRANS_OverlapToOffset
                0x0000000000031bb8                MI_ISP_TRANS_SysInputTaskToCommonBufferInfo
                0x0000000000031f5c                MI_ISP_TRANS_GetMhalInputMode
                0x0000000000031fe8                MI_ISP_TRANS_ImplBufLayout
                0x0000000000032084                MI_ISP_TRANS_BindTypeToFrameType
                0x00000000000320a4                MI_ISP_TRANS_MIHdrTypeToMhal
                0x0000000000032114                MI_ISP_TRANS_VifMateInfoToMhalType
                0x00000000000321d0                MI_ISP_TRANS_LayOutToExtDmaType
                0x00000000000325b4                MI_ISP_DEBUG_CallBackEnterFuncDbg
                0x00000000000326e4                MI_ISP_DEBUG_PrepareInputTask
                0x0000000000032960                MI_ISP_DEBUG_PrepareOutTaskMetaInfo
                0x0000000000032a18                MI_ISP_DEBUG_EnqueTask
                0x0000000000032ba8                MI_ISP_DEBUG_BarrierInputTask
                0x0000000000032ce0                MI_ISP_DEBUG_CheckInputTask
                0x0000000000032cfa                MI_ISP_DEBUG_DequeInputTask
                0x0000000000032d18                MI_ISP_DEBUG_DequeOutputTask
                0x0000000000033090                MI_ISP_DEBUG_DumpCmdqTimeOutInfo
                0x0000000000033218                MI_ISP_CHECK_ChnParamValid
                0x00000000000333d8                MI_ISP_CHECK_DevChnCreate
                0x000000000003346c                MI_ISP_IMPL_GetChnParam
                0x0000000000033518                MI_ISP_IMPL_SkipFrame
                0x000000000003359c                MI_ISP_CHECK_SubDevChnCreate
                0x0000000000033630                MI_ISP_CHECK_DevChnCreateOutputPortSupport
                0x00000000000336f0                MI_ISP_CHECK_DevAttr
                0x00000000000337a0                MI_ISP_CHECK_ChnAttr
                0x0000000000033868                MI_ISP_CHECK_DestroyDev
                0x00000000000338e8                MI_ISP_CHECK_AllOutputUnbind
                0x000000000003398c                MI_ISP_CHECK_CustSegAttr
                0x0000000000033a3c                MI_ISP_CHECK_InputBuffValid
                0x0000000000033c9c                MI_ISP_CHECK_InputSizeValid
                0x0000000000033d70                MI_ISP_CHECK_OutputSizeValid
                0x0000000000033dc8                MI_ISP_CHECK_ModuleOutputParamValid
                0x0000000000033f44                MI_ISP_CHECK_CropValid
                0x0000000000034258                MI_ISP_CHECK_Y2BChange
                0x00000000000342d4                MI_ISP_CHECK_ChnParamChange
                0x00000000000342f8                MI_ISP_CHECK_ZoomInfoValid
                0x0000000000034314                MI_ISP_CHECK_InputAttrChanged
                0x0000000000034344                MI_ISP_CHECK_OutputPortBindType
                0x0000000000034408                MI_ISP_CHECK_OutputBufferInfo
                0x00000000000344b4                MI_ISP_CHECK_IsMultiPlane
                0x00000000000344be                MI_ISP_CHECK_IsWaitDoneIndex
                0x00000000000344d8                MI_ISP_CHECK_InputModeChanged
                0x0000000000034538                MI_ISP_DRVCFG_RequestEnableIrq
                0x00000000000345d4                MI_ISP_DRVCFG_Init
                0x000000000003461c                MI_ISP_DRVCFG_DisableFreeIrq
                0x0000000000034684                MI_ISP_DRVCFG_DeInit
                0x00000000000346cc                MI_ISP_DRVCFG_SetAECrop
                0x00000000000346da                MI_ISP_DRVCFG_GetSwitchSensorId
                0x000000000003494c                MI_ISP_DRVCFG_GetSensorMaxFps
                0x00000000000349b4                MI_ISP_DRVCFG_SetAck
                0x0000000000034a04                MI_ISP_DRVCFG_SetSTA
                0x0000000000034a54                MI_ISP_DRVCFG_SetPDAF
                0x0000000000034aa4                MI_ISP_DRVCFG_SetHDRCfg
                0x0000000000034b08                MI_ISP_DRVCFG_NextFramePts
                0x0000000000034b6c                MI_ISP_DRVCFG_ProcessCfg
                0x0000000000034f38                MI_ISP_DRVCFG_IspNotifyDone
                0x0000000000034f84                MI_ISP_DRVCFG_WaitDone
                0x00000000000350a4                MI_ISP_DRVCFG_ReadFence
                0x00000000000353ec                MI_ISP_DRVCFG_VifMask
                0x000000000003543c                MI_ISP_DRVCFG_SwitchSensor
                0x0000000000035568                MI_ISP_DRVCFG_CreateInstance
                0x0000000000035694                MI_ISP_DRVCFG_DestroyInstance
                0x00000000000356ec                MI_ISP_DRVCFG_LdcPrepare
                0x00000000000357cc                MI_ISP_DRVCFG_LdcProcess
                0x0000000000035928                MI_ISP_DRVCFG_LdcReset
                0x00000000000359ec                MI_ISP_DRVCFG_LdcBarrier
                0x0000000000035ab4                MI_ISP_DRVCFG_LdcNotifyDone
                0x0000000000035b80                MI_ISP_DRVCFG_LdcStitchBarrier
                0x0000000000035c48                MI_ISP_DRVCFG_VifInputMaskRealtime
                0x0000000000035c58                MI_ISP_DRVCFG_InputCfg
                0x0000000000035dbc                MI_ISP_DRVCFG_GetSensorId
                0x0000000000035e74                MI_ISP_CHECK_SensorPadIsValid
                0x00000000000361c0                MI_ISP_PASS_Lock
                0x0000000000036250                MI_ISP_PASS_UnLock
                0x0000000000036270                MI_ISP_PASS_OnBarrierInputTask
                0x00000000000363f0                MI_ISP_PASS_OnCheckInputTaskStatus
                0x0000000000036518                MI_ISP_PASS_OnDequeueInputTask
                0x00000000000366f0                MI_ISP_PASS_ModuleonGetInterBindInputPortPassId
                0x000000000003679c                MI_ISP_PASS_ModuleonGetInterBindOutputPortPassId
                0x0000000000036848                MI_ISP_PASS_ModuleonGetCurPassInnerBindMode
                0x00000000000368ec                MI_ISP_PASS_ResetDevPass
                0x0000000000036a30                MI_ISP_PASS_IpuPassOnPrepareOutputTaskMetaInfo
                0x0000000000036b54                MI_ISP_PASS_IpuPassOnEnqueueInputTask
                0x0000000000037318                MI_ISP_PASS_IpuPassOnBarrierInputTask
                0x0000000000037418                MI_ISP_PASS_IpuPassOnCheckInputTaskStatus
                0x00000000000374f4                MI_ISP_PASS_IpuPassOnDequeueInputTask
                0x00000000000375a4                MI_ISP_PASS_IpuPassOnDequeueOutputTask
                0x00000000000376b0                MI_ISP_PASS_GetRealPLaneShfit
                0x0000000000037738                MI_ISP_PASS_ParseOutPutPortSideBandMsg
                0x0000000000037824                MI_ISP_PASS_SetEnqueueMsg
                0x0000000000037874                MI_ISP_IMPL_StartChannel
                0x0000000000037974                MI_ISP_IMPL_StopChannel
                0x0000000000037b68                MI_ISP_PASS_GetPassOutPortRes
                0x0000000000037bec                MI_ISP_PASS_OnBindOutputPort
                0x0000000000037e3c                MI_ISP_PASS_OnUnBindOutputPort
                0x0000000000037f20                MI_ISP_IMPL_SetOutputPortParam
                0x00000000000380e4                MI_ISP_IMPL_GetOutputPortParam
                0x00000000000381ec                MI_ISP_IMPL_EnableOutputPort
                0x00000000000383cc                MI_ISP_IMPL_DisableOutputPort
                0x0000000000038528                MI_ISP_PASS_PostPassOnCheckPassSkipMode
                0x0000000000038532                MI_ISP_PASS_AllotPlaneIndex
                0x0000000000038670                MI_ISP_PASS_GetSubChnResFromPlaneIndex
                0x00000000000386c0                MI_ISP_TRANS_FrameInfo
                0x0000000000038ab4                MI_ISP_DEBUG_CheckOutputTask
                0x0000000000038b48                MI_ISP_PASS_IpuPassOnCheckOutputTaskStatus
                0x0000000000038e50                MI_ISP_PASS_OnCheckOutputTaskStatus
                0x0000000000038fbc                MI_ISP_TRANS_SysOutputTaskToCommonBufferInfo
                0x00000000000393c4                MI_ISP_TRANS_MhalChnIdToSubChnId
                0x0000000000039464                MI_ISP_DRVCFG_SetModParamsToSys
                0x00000000000396b8                MI_ISP_DRVCFG_ApiSet
                0x00000000000399d0                MI_ISP_PASS_OnPrepareOutputTaskMetaInfo
                0x0000000000039bc4                MI_ISP_PASS_OnEnqueueInputTask
                0x000000000003a1ec                MI_ISP_PASS_OnDequeueOutputTask
                0x000000000003a38c                MI_ISP_IMPL_SetChnParam
                0x000000000003a538                MI_ISP_PASS_CalcOutputAllocSize
                0x000000000003a708                MI_ISP_PASS_IpuPassOnPreProcessInputTask
                0x000000000003aa16                MI_ISP_PASS_EffectOverlap
                0x000000000003ab5c                MI_ISP_PASS_OnPreProcessInputTask
                0x000000000003b204                MI_ISP_MODPARAM_ModuleDbgParamPrint
                0x000000000003b818                MI_ISP_MODPARAM_HWOutPortDbgParamInit
                0x000000000003b8b8                MI_ISP_MODPARAM_DevDbgParamInit
                0x000000000003bcb0                MI_ISP_MODPARAM_ModuleDbgParamInit
                0x000000000003bdac                MI_ISP_MODPARAM_ModuleDbgInit
                0x000000000003be0c                MI_ISP_MODPARAM_ModuleDbgDeInit
                0x000000000003be28                _MI_ISP_IMPL_TransIspUserBufToKernel
                0x000000000003be74                _MI_ISP_IMPL_FindIqApiBuffHashEntry
                0x000000000003bec0                mhal_isp_insmod
                0x000000000003bee4                mhal_isp_rmmod
                0x000000000003bef6                MI_ISP_IMPL_Insmod
                0x000000000003c160                MI_ISP_IMPL_Rmmod
                0x000000000003c198                MI_ISP_IMPL_Init
                0x000000000003c2f8                MI_ISP_IMPL_CreateDevice
                0x000000000003c624                MI_ISP_IMPL_DestoryDevice
                0x000000000003c7cc                MI_ISP_IMPL_GetSubChnId
                0x000000000003c8d4                MI_ISP_IMPL_CreateChannel
                0x000000000003cc60                MI_ISP_IMPL_DestroyChannel
                0x000000000003ceb0                MI_ISP_IMPL_DeInit
                0x000000000003d02c                MI_ISP_IMPL_SetInputPortCrop
                0x000000000003d19c                MI_ISP_IMPL_GetInputPortCrop
                0x000000000003d250                MI_ISP_IMPL_SetInsideLdcParam
                0x000000000003d32c                MI_ISP_IMPL_AiBnrInit
                0x000000000003d330                MI_ISP_IMPL_AiBnrDeInit
                0x000000000003d334                MI_ISP_IMPL_SetAiBnrAttr
                0x000000000003d448                MI_ISP_IMPL_SetAiBnrExtAttr
                0x000000000003d564                MI_ISP_IMPL_GetAiBnrExtAttr
                0x000000000003d630                MI_ISP_IMPL_SetSubChnParam
                0x000000000003d7ec                MI_ISP_IMPL_GetSubChnParam
                0x000000000003d948                MI_ISP_IMPL_AllocIQDataBuf
                0x000000000003db58                MI_ISP_IMPL_FreeIQDataBuf
                0x000000000003dc18                MI_ISP_IMPL_SetIQApiData
                0x000000000003ddf0                MI_ISP_IMPL_GetIQApiData
                0x000000000003dfe4                MI_ISP_IMPL_CallBackTaskRegister
                0x000000000003e140                MI_ISP_IMPL_CallBackTaskUnregister
                0x000000000003e294                MI_ISP_IMPL_LoadPortZoomTable
                0x000000000003e520                MI_ISP_IMPL_StartPortZoom
                0x000000000003e654                MI_ISP_IMPL_StopPortZoom
                0x000000000003e6fc                MI_ISP_IMPL_GetPortCurZoomAttr
                0x000000000003e7b0                MI_ISP_IMPL_SetOverlapAttr
                0x000000000003e888                MI_ISP_IMPL_GetOverlapAttr
                0x000000000003e900                MI_ISP_IMPL_GetAllMhalChnId
                0x000000000003ea24                MI_ISP_IMPL_InitCus3a
                0x000000000003ea28                MI_ISP_IMPL_ReleaseCus3a
                0x000000000003ea2c                MI_ISP_IMPL_Cus3aEnUsrAE
                0x000000000003ea30                MI_ISP_IMPL_Cus3aEnUsrAWB
                0x000000000003ea34                MI_ISP_IMPL_Cus3aEnUsrAF
                0x000000000003ea38                MI_ISP_IMPL_Cus3aCondUpdate
                0x000000000003ea3c                MI_ISP_IMPL_Cus3aCondWait
                0x000000000003ea40                MI_ISP_IMPL_Cus3aTriggerEvent
                0x000000000003ea44                mi_isp_RegisterLdcFuncCB
                0x000000000003eaf4                mi_isp_UnRegisterLdcFuncCB
                0x000000000003ebb0                DRV_ISP_ApplyShadow
                0x000000000003ee58                DrvIspApplyHdrRatio
                0x000000000003ee5e                DRV_ISP_ApplyDGain
                0x000000000003eea2                DRV_ISP_ApplyAwbGain
                0x000000000003eeb2                DRV_ISP_IsHwPost3dnr
                0x000000000003eeb6                DRV_ISP_GetHwStatisticsBufferSize
                0x000000000003eec4                DRV_ISP_AssignHwStatisticsBuffer
                0x000000000003eee2                DRV_ISP_AwbSwitchHwStatsForHdrPipe
                0x000000000003ef2c                DRV_ISP_HistoSwitchHwStatsForHdrPipe
                0x000000000003ef78                DRV_ISP_GetAllStatsRefBufFromLayout
                0x000000000003eff6                DRV_ISP_AssignAllStatsRefBuf
                0x000000000003f0da                DRV_ISP_CopyStatisBufInfo
                0x000000000003f1f0                DRV_ISP_IspMaskIntAll
                0x000000000003f1f6                DRV_ISP_ClrCmdqIrq
                0x000000000003f1fc                DRV_ISP_MaskCmdqIrq
                0x000000000003f202                DRV_ISP_ForceCmdqIrq
                0x000000000003f208                DRV_ISP_PollCmdqIrq
                0x000000000003f20e                DRV_ISP_PollCmdqRegValue
                0x000000000003f214                DRV_ISP_RegisterCallback
                0x000000000003f220                DRV_ISP_GetHandle
                0x000000000003f22c                DRV_ISP_Open
                0x000000000003f298                DRV_ISP_Close
                0x000000000003f2b0                DRV_ISP_ResetByFlag
                0x000000000003f300                DRV_ISP_Reset
                0x000000000003f308                DRV_ISP_Resume
                0x000000000003f344                DRV_ISP_Suspend
                0x000000000003f374                DRV_ISP_PowerOn
                0x000000000003f434                DRV_ISP_PowerOff
                0x000000000003f514                DRV_ISP_InitHw
                0x000000000003f63a                DRV_ISP_3aStatisticDisable
                0x000000000003f676                DRV_ISP_SetAeWin
                0x000000000003f774                DRV_ISP_SetAwbWin
                0x000000000003f88c                DRV_ISP_SetHistoAttr
                0x000000000003f934                DRV_ISP_SetHistoWins
                0x000000000003f942                DRV_ISP_GetHistoWins
                0x000000000003f950                DRV_ISP_SetAfRoiMode
                0x000000000003f956                DRV_ISP_GetAfRoiMode
                0x000000000003f95c                DRV_ISP_SetAfBnr
                0x000000000003f962                DRV_ISP_GetAfBnr
                0x000000000003f968                DRV_ISP_SetAfYParam
                0x000000000003f96e                DRV_ISP_GetAfYParam
                0x000000000003f974                DRV_ISP_SetAfSource
                0x000000000003f97c                DRV_ISP_GetAfSource
                0x000000000003f982                DRV_ISP_SetAeSource
                0x000000000003f98a                DRV_ISP_SetAwbSource
                0x000000000003f992                DrvIspSetHistoSource
                0x000000000003f99a                DRV_ISP_SetAfWin
                0x000000000003fa20                DRV_ISP_3aStatisticConfig
                0x000000000003fcc0                DRV_ISP_GetAfWin
                0x000000000003fcce                DRV_ISP_SetAfFilterAttr
                0x000000000003fcd4                DRV_ISP_GetAfFilterAttr
                0x000000000003fcda                DRV_ISP_SetAfFilterSq
                0x000000000003fce0                DRV_ISP_GetAfFilterSq
                0x000000000003fce6                DRV_ISP_SetAfPreFilter
                0x000000000003fcec                DRV_ISP_GetAfPreFilter
                0x000000000003fcf2                DRV_ISP_SetAfFirFilter
                0x000000000003fcf6                DRV_ISP_GetAfFirFilter
                0x000000000003fcfa                DRV_ISP_SetAfYMap
                0x000000000003fd00                DRV_ISP_GetAfYMap
                0x000000000003fd06                DRV_ISP_SetAfLdg
                0x000000000003fd0c                DRV_ISP_GetAfLdg
                0x000000000003fd12                DRV_ISP_SetAfPeakMode
                0x000000000003fd18                DRV_ISP_GetAfPeakMode
                0x000000000003fd1e                DRV_ISP_SetAfGMode
                0x000000000003fd22                DRV_ISP_GetAfGMode
                0x000000000003fd26                DRV_ISP_3dnrManualSwingRounderEnable
                0x000000000003fd2a                DRV_ISP_3dnrAutoSwingRounderEnable
                0x000000000003fd2e                DRV_ISP_TnrGetBufSize
                0x000000000003fd44                DRV_ISP_TnrEngineEnable
                0x000000000003fd4a                DRV_ISP_TnrEngineUpdate
                0x000000000003fd50                DRV_ISP_TnrRingChnSwitch
                0x000000000003fd60                DRV_ISP_TnrRingChnInitTry
                0x000000000003fed0                DRV_ISP_TnrRingChnDeinit
                0x000000000003ff08                DRV_ISP_TnrRingChnEnable
                0x000000000003ff40                DRV_ISP_TnrRingChnDisable
                0x000000000003ff7c                DRV_ISP_TnrEngineInit
                0x0000000000040022                DRV_ISP_TnrEngineDeInit
                0x0000000000040056                DRV_ISP_TnrRingChnRingUpdate
                0x0000000000040130                DRV_ISP_TnrRingChnRingUpdateFromHw
                0x00000000000401fc                DRV_ISP_TnrRingChnRdmaUpdate
                0x0000000000040258                DRV_ISP_TnrRingChnWdmaUpdate
                0x00000000000402b4                DRV_ISP_DnrEngineClockEnable
                0x00000000000402ba                DRV_ISP_DnrEngineTrigger1stFrame
                0x00000000000402cc                DRV_ISP_DnrEngineAfter1stFrame
                0x00000000000402d6                DRV_ISP_DnrEngineEnable
                0x00000000000402e0                DRV_ISP_DnrEngineInit
                0x0000000000040386                DRV_ISP_DnrEngineDeInit
                0x000000000004038c                DRV_ISP_3dnrGetRefBufSize
                0x00000000000403a2                DRV_ISP_3dnrGetHistBufSize
                0x00000000000403b8                DRV_ISP_RotEngineInit
                0x0000000000040414                DRV_ISP_RotEngineDeInit
                0x0000000000040444                DRV_ISP_RotEngineInitEx
                0x000000000004047c                DRV_ISP_RotCalBufSize
                0x000000000004048a                DRV_ISP_RotReleaseBufSize
                0x000000000004048e                DRV_ISP_MotionCalBufSize
                0x000000000004049c                DRV_ISP_MotionRdmaGetMiuReqNum
                0x00000000000404a0                DRV_ISP_MotionEngineInit
                0x0000000000040500                DRV_ISP_MotionEngineDeInit
                0x0000000000040508                DRV_ISP_NeIsSupported
                0x000000000004050c                DRV_ISP_NeCalBufSize
                0x000000000004051a                DRV_ISP_NeEngineInit
                0x0000000000040566                DRV_ISP_NeEngineDeInit
                0x000000000004056e                DRV_ISP_WdrGetBigBufSize
                0x000000000004057c                DrvIspWdrGetSmallLv2BufSize
                0x000000000004058a                DrvIspWdrGetSmallLv3BufSize
                0x0000000000040598                DRV_ISP_WdrGetSmallBufSize
                0x00000000000405a6                DRV_ISP_WdrSetBigBaseAddr
                0x00000000000405ac                DRV_ISP_WdrSetSmallBaseAddr
                0x00000000000405b2                DRV_ISP_WdrSetMloadBuffer
                0x00000000000405b8                DRV_ISP_WdrSetLocalSizeEX
                0x00000000000405c8                DRV_ISP_WdrMultipleFrameEnable
                0x00000000000405ce                DRV_ISP_WdrTrigger1stFrame
                0x00000000000405dc                DRV_ISP_GetYuvPipeId
                0x00000000000405e0                DRV_ISP_VifGetHdrChOffset
                0x00000000000405e4                DRV_ISP_VifGetInputMask
                0x00000000000405ea                DRV_ISP_VifSetInputMask
                0x00000000000405f6                DRV_ISP_GetIspInputMask
                0x0000000000040600                DRV_ISP_SetIspInputMask
                0x000000000004069c                DRV_ISP_WdrClkEnable
                0x00000000000406a4                DRV_ISP_EnableHwRegShadow
                0x00000000000406ac                DRV_ISP_HdrEngineEnable
                0x00000000000406b2                DRV_ISP_HdrConfig
                0x00000000000406b6                DRV_ISP_AwbStatsEnable
                0x00000000000406bc                DRV_ISP_AwbGetStatsEnable
                0x00000000000406c2                DRV_ISP_AwbSetSourceSelect
                0x00000000000406c8                DRV_ISP_AwbGetSourceSelect
                0x00000000000406ce                DRV_ISP_AwbStatisticConfigHdr
                0x000000000004071c                DRV_ISP_HistoStatsEnable
                0x0000000000040722                DRV_ISP_HistoGetStatsEnable
                0x0000000000040728                DRV_ISP_HistoGetSourceSelect
                0x000000000004072e                DRV_ISP_HistoStatisticConfigHdr
                0x000000000004076c                DRV_ISP_RdmaGetMiuReqParam
                0x0000000000040770                DRV_ISP_WdmaGetMiuReqParam
                0x0000000000040774                DRV_ISP_InsideLdcInit
                0x00000000000407c8                DRV_ISP_InsideLdcDeinit
                0x00000000000407e0                DRV_ISP_InsideLdcConfig
                0x0000000000040842                DRV_ISP_InsideLdcSetEn
                0x000000000004085a                DRV_ISP_InsideLdcGetParamCur
                0x0000000000040866                DRV_ISP_DatagenConfig
                0x000000000004087c                DRV_ISP_ModulePrepare
                0x00000000000408f4                DRV_ISP_ModuleConfirm
                0x000000000004094a                DRV_ISP_ModuleDown
                0x00000000000409f4                DRV_ISP_DMA_RawStorePipeConfig
                0x0000000000040b08                DRV_ISP_DMA_RawStorePipeDisable
                0x0000000000040b70                DRV_ISP_DMA_RawStorePipeEnable
                0x0000000000040bb8                DRV_ISP_DMA_RawFetchPipeConfig
                0x0000000000040d08                DRV_ISP_DMA_RawFetchPipeDisable
                0x0000000000040d58                DRV_ISP_DMA_RawFetchPipeEnable
                0x0000000000040dac                DRV_ISP_DMA_RawStorePipeUpdateAddr
                0x0000000000040df8                DRV_ISP_DMA_RawFetchPipeUpdateAddr
                0x0000000000040e44                DRV_ISP_DMA_RawStorePipeTrigger
                0x0000000000040e88                DRV_ISP_DMA_RawFetchPipeTrigger
                0x0000000000040ecc                DRV_ISP_DMA_RdmaMiuSel
                0x0000000000040f10                DRV_ISP_DMA_RdmaUpdateBaseAddrEx
                0x0000000000040f60                DRV_ISP_DMA_RdmaSetFrameIndexMode
                0x0000000000040fa4                DRV_ISP_DMA_WdmaMiuSel
                0x0000000000040fe8                DRV_ISP_DMA_WdmaUpdateBaseAddrEx
                0x0000000000041038                DRV_ISP_DMA_WdmaSetFrameIndexMode
                0x000000000004107c                DRV_ISP_DMA_IsExtWdma420
                0x0000000000041080                DRV_ISP_DMA_IsSegExtDma
                0x0000000000041084                DRV_ISP_DMA_ExtWdmaActConfig
                0x00000000000411b2                DRV_ISP_DMA_ExtWdmaActDisable
                0x00000000000411da                DRV_ISP_DMA_IsExtWdmaActEnable
                0x00000000000411e0                DRV_ISP_DMA_SegExtRdmaConfig
                0x00000000000411e4                DRV_ISP_DMA_SegExtRdmaRawFetchBaseAddr
                0x00000000000411e8                DRV_ISP_DMA_SetSegEnable
                0x00000000000411ec                DRV_ISP_DMA_SetSegWidthHeight
                0x00000000000411f0                DRV_ISP_DMA_SegRawFetchMode
                0x00000000000411f4                DRV_ISP_DMA_SetSegBayerFmt
                0x00000000000411f8                DRV_ISP_DMA_SetSegRgbirFmt
                0x00000000000411fc                DRV_ISP_DMA_SetSegOutputLineCountInt
                0x0000000000041200                DRV_ISP_DMA_SetSegRdma2StaEnable
                0x0000000000041204                DRV_ISP_DMA_FpnSetRdmaConfig
                0x0000000000041208                DRV_ISP_DMA_WdmaSwResetByPipe
                0x0000000000041214                DRV_ISP_DMA_DmaRingBufferEnable
                0x000000000004125c                DRV_ISP_DMA_DmaSetRingBufferSize
                0x00000000000412a0                DRV_ISP_DMA_DmaFetchRingBufferEnable
                0x00000000000412e8                DRV_ISP_DMA_DmaFetchSetRingBufferSize
                0x000000000004132c                DRV_ISP_DMA_DmaFbcEnable
                0x0000000000041370                DRV_ISP_DMA_RawStorePitchAddrConfig
                0x00000000000414dc                DRV_ISP_DMA_DmaFbdEnable
                0x0000000000041520                DRV_ISP_DMA_RawFetchPitchAddrConfig
                0x0000000000041654                DRV_ISP_DMA_DmaWdmaFifoConfig
                0x000000000004165a                DRV_ISP_DMA_DmaFbcVsyncSelection
                0x0000000000041660                DRV_ISP_DMA_DmaFbdFrameWidth
                0x00000000000416a4                DRV_ISP_DMA_DmaFbcInit
                0x00000000000416a8                DRV_ISP_DMA_SegResetById
                0x00000000000416ac                DRV_ISP_DMA_DmaDoubleBuffEnable
                0x00000000000416f0                DRV_ISP_ISR_ForceIpReset
                0x000000000004177c                DRV_ISP_PROXY_IpReset
                0x0000000000041794                DRV_ISP_ISR_EnableIrq
                0x00000000000417ae                DRV_ISP_ISR_GetIrqsCnt
                0x00000000000417b2                DRV_ISP_ISR_GetFrameDoneIrqsCnt
                0x00000000000417b6                DRV_ISP_ISR_Isr
                0x00000000000419d4                DRV_ISP_WORK_ThreadWqAdd
                0x0000000000041a4a                DRV_ISP_WORK_ThreadWqGet
                0x0000000000041ab4                DRV_ISP_WORK_ThreadWqProc
                0x0000000000041b50                DRV_ISP_WORK_ThreadWqClean
                0x0000000000041ba0                DRV_ISP_WORK_ThreadWqInit
                0x0000000000041c40                DRV_ISP_WORK_ThreadWqDeinit
                0x0000000000041c80                DRV_ISP_WORK_ThreadWqFlush
                0x0000000000041cc0                DRV_ISP_WORK_ThreadWqAddInIsr
                0x0000000000041cd4                DRV_ISP_WORK_ThreadWqStatusNumWorks
                0x0000000000041ce8                DRV_ISP_WORK_ThreadWqStatusWorkCounter
                0x0000000000041cf8                DRV_ISP_WORK_ThreadWqStatusFuncCounter
                0x0000000000041d08                DRV_ISP_WORK_ThreadWqStatusTimeoutCounter
                0x0000000000041d18                DRV_ISP_WORK_EarlyInit
                0x0000000000041d4c                DRV_ISP_WORK_FinalRelease
                0x0000000000041d5c                DRV_ISP_CLK_GetNodeRate
                0x0000000000041d90                DRV_ISP_CLK_GetRateByIdx
                0x0000000000041dbc                DRV_ISP_CLK_GetClkDfs
                0x0000000000041de4                DRV_ISP_CLK_GetCurrentIdx
                0x0000000000041e60                DRV_ISP_CLK_GetNodeIdx
                0x0000000000041e90                DRV_ISP_CLK_GetStatus
                0x0000000000041ea0                DRV_ISP_CLK_ClkOnOff
                0x0000000000041ec4                _DRV_ISP_CLK_AutoSetDscRate
                0x0000000000041efc                DRV_ISP_CLK_SetRate2IspPll
                0x0000000000041f2c                DRV_ISP_CLK_SetParent
                0x0000000000041f5c                _DRV_IS_CLK_SetDefaultSource
                0x0000000000041f72                DRV_ISP_CLK_Register
                0x0000000000042000                DRV_ISP_CLK_Unregister
                0x000000000004202c                DRV_ISP_CLK_DeInit
                0x000000000004203a                DRV_ISP_CLK_PreSetClkRate
                0x0000000000042044                DRV_ISP_CLK_SetRate
                0x00000000000420b0                DRV_ISP_CLK_Init
                0x000000000004214c                DRV_ISP_CLK_GetPreClkRate
                0x0000000000042158                DRV_ISP_CLK_PreSetClkIdx
                0x0000000000042164                DRV_ISP_CLK_GetPreClkIdx
                0x0000000000042170                DRV_ISP_CLK_GetClkRate
                0x0000000000042176                DRV_ISP_CLK_SetClkRate
                0x000000000004217c                DRV_ISRCB_EarlyInit
                0x00000000000421a8                DRV_ISRCB_RegisterCallback
                0x0000000000042208                DRV_ISRCB_UnRegisterCallback
                0x0000000000042212                DRV_ISRCB_Proc
                0x0000000000042240                HalClkgenCtrl
                0x0000000000042298                HalClkgenGetFreq
                0x0000000000042304                HalIspClkgenToId
                0x000000000004236c                HalIspSetClockRate
                0x00000000000423c0                HalIspGetDefaultClock
                0x00000000000423d0                HalIspGetClockRateByIdx
                0x00000000000423e0                HalIspGetSupportClockNum
                0x00000000000424e0                IspHalDbgWdrSetParam
                0x00000000000424fc                HalIspMcgGateCtrl
                0x0000000000042568                HalIspMcgMoudleClkSetEn
                0x00000000000425ca                HalIspMcgWdmaClkSetEn
                0x0000000000042602                HalIspMcgRdmaClkSetEn
                0x000000000004262c                HalIspRdmaEnable
                0x0000000000042652                HalIspRdmaAuto
                0x0000000000042680                HalIspRdmaSwTrig
                0x00000000000426a8                HalIspRdmaReqThd
                0x00000000000426ac                HalIspRdmaReqHighPriThd
                0x00000000000426da                HalIspRdmaReqBustNum
                0x00000000000426dc                HalIspRdmaReqBlank
                0x000000000004270a                HalIspRdmaBaseAddr
                0x000000000004276c                HalIspGenericRdmaReset
                0x000000000004289c                HalIspRdmaReset
                0x00000000000428c6                HalIspRdmaDataPrecision
                0x0000000000042920                HalIspRdmaSetPitch
                0x0000000000042bb4                HalIspRdma0Y2BEnable
                0x0000000000042bb8                HalIspRdma0Y2BDiEnable
                0x0000000000042bba                HalIspRdma0Y2BSwapYC
                0x0000000000042bbc                HalIspRdma0Y2BSwapUV
                0x0000000000042bbe                HalIspRdma0Y2B422to444Mode
                0x0000000000042bc2                HalIspRdmaBypassDe
                0x0000000000042bec                HalIspRdmaEnableDe
                0x0000000000042bf0                HalIspRdmaSetFifoSize
                0x0000000000042c48                HalIspRdmaSetCrcMode
                0x0000000000042c6e                HalIspDmaFetchRingBufferEnable
                0x0000000000042cce                HalIspDmaFetchSetRingBufferSize
                0x0000000000042cf6                HalIspWdmaAuto
                0x0000000000042d24                HalIspWdmaSwTrig
                0x0000000000042d4c                HalIspWdmaSetHighPri
                0x0000000000042d50                HalIspWdmaReqThd
                0x0000000000042d54                HalIspWdmaReqHighPriThd
                0x0000000000042d58                HalIspWdmaReqBustNum
                0x0000000000042d5c                HalIspWdmaStatusClear
                0x0000000000042d82                HalIspWdmaBaseAddr
                0x0000000000042de4                HalIspWdmaDataPrecision
                0x0000000000042e7e                HalIspDmaRingBufferEnable
                0x0000000000042ede                HalIspDmaSetRingBufferSize
                0x0000000000042f06                HalIspWdmaSetPitch
                0x000000000004308a                HalIspWdmaSetFifoSize
                0x000000000004311e                HalIspGenericWdmaReset
                0x000000000004324e                HalIspWdmaReset
                0x0000000000043278                HalIspWdmaSetLineCnt
                0x00000000000432a6                HalIspDmaFbcEnable
                0x00000000000432ec                HalIspDmaFbdEnable
                0x0000000000043332                HalIspWdmaFifoConfig
                0x0000000000043336                HalIspDmaFbcVsyncSelection
                0x000000000004336c                HalIspDmaFbdFrameWidth
                0x00000000000433b4                HalIspDmaDbfEnable
                0x00000000000433de                HalIspRgbIrDmaGetId
                0x00000000000433e2                HalIspIsExtWdmaEnable
                0x00000000000433fa                HalIspExtWdmaGetLineCnt
                0x000000000004340e                HalIspExtWdmaEnable
                0x00000000000434b4                HalIspExtWdmaReset
                0x000000000004358e                HalIspExtWdmaMiuConfig
                0x000000000004359c                HalIspExtWdmaGetDomainInfo
                0x00000000000435e0                HalIspExtWdmaSetModeConfig
                0x0000000000043824                HalIspExtWdmaGetDomainSize
                0x000000000004388e                HalIspExtWdmaSetBaseAddr
                0x0000000000043a64                HalIspExtWdmaSetSize
                0x0000000000043f16                HalIspExtWdmaSetCrop
                0x0000000000043fce                HalIspHandShake2LDCConfig
                0x0000000000044082                HalIspExtWdmaFifoPush
                0x0000000000044258                HalIspExtWdmaSetCrcMode
                0x0000000000044318                HalIspExtWdmaActConfig
                0x0000000000044490                HalIspSetSegEnable
                0x0000000000044494                HalIspSegRawFetchMode
                0x0000000000044498                HalIspSetSegWidthHeight
                0x000000000004449c                HalIspSetSegBayerFmt
                0x00000000000444a0                HalIspSetSegRGBIRFmt
                0x00000000000444a4                HalIspSetSegOutputLineCountInt
                0x00000000000444b0                HalIspSegExtWdmaEnable
                0x00000000000444b4                HalIspSegExtWdmaSetPitch
                0x00000000000444b8                HalIspSegExtWdmaRawStoreEnable
                0x00000000000444bc                HalIspSegExtWdmaDataMode
                0x00000000000444c0                HalIspSegExtWdmaHdrOutDataMode
                0x00000000000444c4                HalIspSegExtWdmaAuto
                0x00000000000444c8                HalIspSegExtWdmaStatusClear
                0x00000000000444cc                HalIspSegExtWdmaSetFrameIndexMode
                0x00000000000444d0                HalIspSegExtWdmaBaseAddr
                0x00000000000444d4                HalIspSegExtWdmaSetLineCnt
                0x00000000000444d8                HalIspSegExtWdmaSwTrig
                0x00000000000444dc                HalIspSegExtWdmaConfig
                0x00000000000444ea                HalIspSegExtRdmaEnable
                0x00000000000444ee                HalIspSegExtRdmaSetPitch
                0x00000000000444f2                HalIspSegExtRdmaDataMode
                0x00000000000444f6                HalIspSegExtRdmaAuto
                0x00000000000444fa                HalIspSegExtRdmaSetFrameIndexMode
                0x00000000000444fe                HalIspSegExtRdmaBaseAddr
                0x0000000000044502                HalIspSegExtRdmaSwTrig
                0x0000000000044506                HalIspSegExtRdmaConfig
                0x000000000004450a                HalIspConfigIspPipeSrcMux
                0x00000000000446f0                HalIspSenDataType
                0x000000000004472a                HalIspSenDataPrecision
                0x00000000000447aa                HalIspSenFmtConv
                0x00000000000447ca                HalIspSenBayerFmt
                0x00000000000447fc                HalIspSenRgbirFmt
                0x000000000004481e                HalIspSenYcOrder
                0x0000000000044844                HalIspGetYuvPipeId
                0x0000000000044848                HalIspIcpAckTieEnable
                0x0000000000044860                HalIspLdcAckTieEnable
                0x000000000004487a                HalIspInsideLdcSetEn
                0x0000000000044894                HalIspInsideLdcGetInfoSize
                0x000000000004489c                HalIspInsideLdcSetSize
                0x0000000000044928                HalIspInsideLdcGetParamCur
                0x0000000000044974                HalIspInsideLdcSetParam
                0x0000000000044a44                HalIspInsideLdcSetCrop
                0x0000000000044a9a                HalIspIqEnable
                0x0000000000044a9e                HalIspEnableIsp
                0x0000000000044b5e                HalIspSwReset
                0x0000000000044be8                HalIspIrqResetSwIf
                0x0000000000044c10                HalIspDscReset
                0x0000000000044cc4                _HalIspForceSetMaskAfifo
                0x00000000000451ac                _HalIspCheckRstSgdma
                0x0000000000045428                _HalIspCheckRstRotDma
                0x00000000000454cc                HalIspIrqResetIp
                0x0000000000045e48                HalIspGetWDMA5Misc
                0x0000000000045e66                HalIspWdmaSwReset
                0x0000000000045e6a                HalIspDma420SwReset
                0x0000000000045e9a                HalIspRotationSwReset
                0x0000000000045eca                HalIspRotationReset
                0x0000000000045f74                HalIspTnrSwReset
                0x0000000000045fe8                HalIspEnableDblBuf
                0x0000000000046026                HalIspIsp2SclEnable
                0x0000000000046044                HalIspIsp12SclEnable
                0x000000000004605c                HalIspDpcClkEnable
                0x000000000004614c                HalIspWdrClkEnable
                0x0000000000046180                HalIspInterfaceClkEnable
                0x00000000000461b6                HalIspAeSetIntBlockRowNum
                0x00000000000461de                HalIspAeSetDgainP0
                0x0000000000046220                HalIspAeSetDgainP1
                0x0000000000046262                HalIspAeSetDgainP2
                0x0000000000046266                HalIspAeSetDgainPost
                0x00000000000462a8                HalIspAeStatsEnable
                0x00000000000462c0                HalIspAeSourceSelect
                0x0000000000046308                HalIspAeSetWin
                0x00000000000464b4                HalIspAeSetStatsBuf
                0x00000000000464e8                HalIspAwbStatsEnable
                0x0000000000046500                HalIspAwbGetStatsEnable
                0x000000000004650e                HalIspAeAwbStatsMode
                0x000000000004656e                HalIspAwbSetWin
                0x000000000004673a                HalIspAwbSourceSelect
                0x000000000004679c                HalIspAwbGetSourceSelect
                0x00000000000467aa                HalIspAwbSetStatsBuf
                0x00000000000467de                HalIspAfStatsEnable
                0x0000000000046b2e                HalIspAfSourceSelect
                0x0000000000046b74                HalIspAfGetSourceSelect
                0x0000000000046b84                HalIspAfSetRoiMode
                0x0000000000046c00                HalIspAfGetRoiMode
                0x0000000000046c1c                HalIspAfSetBnr
                0x0000000000046c48                HalIspAfGetBnr
                0x0000000000046c64                HalIspAfSetYParam
                0x0000000000046cba                HalIspAfGetYParam
                0x0000000000046cd2                HalIspAfSetPreFilter
                0x0000000000046da2                HalIspAfGetPreFilter
                0x0000000000046e32                HalIspAfSetFirFilter
                0x0000000000046ec6                HalIspAfGetFirFilter
                0x0000000000046eee                HalIspAfSetYMap
                0x0000000000047038                HalIspAfGetYMap
                0x000000000004703c                HalIspAfSetLdg
                0x000000000004736e                HalIspAfGetLdg
                0x0000000000047372                HalIspAfSetPeakMode
                0x00000000000473be                HalIspAfGetPeakMode
                0x00000000000473ea                HalIspAfSetGMode
                0x0000000000047404                HalIspAfGetGMode
                0x0000000000047412                HalIspAfGetNumWins
                0x0000000000047418                HalIspAfSetWins
                0x000000000004757c                HalIspAfGetWins
                0x0000000000047a48                HalIspAfSetStatsBuf
                0x0000000000047a7c                HalIspAfSetFilterAttr
                0x0000000000047e48                HalIspAfGetFilterAttr
                0x00000000000482b2                HalIspAfSetFilterSq
                0x0000000000048804                HalIspAfGetFilterSq
                0x0000000000048bf0                HalIspHistoStatsEnable
                0x0000000000048c28                HalIspHistoSourceSelect
                0x0000000000048c6c                HalIspHistoGetStatsEnable
                0x0000000000048c90                HalIspHistoGetSourceSelect
                0x0000000000048c9e                HalIspHistoSetAttr
                0x0000000000048e14                HalIspHistoSetWins
                0x0000000000048ed2                HalIspHistoGetWins
                0x0000000000048f14                HalIspHistoSetStatsBuf
                0x0000000000048f48                HalIspRgbirStatsEnable
                0x0000000000048f92                HalIspRgbirSetWins
                0x000000000004902a                HalIspRgbirSetStatsBuf
                0x000000000004905e                HalIspRgbirSetMonitorEnable
                0x0000000000049076                HalIspLatchMode
                0x000000000004908e                HalIspGetFifoMaxValid
                0x00000000000490c2                HalIspSetIspOutputLineCountInt
                0x00000000000490f0                HalIspSetLineCountInt0
                0x0000000000049114                HalIspSetHdrBufLineCountY
                0x0000000000049134                HalIspSetHdrCoreLineCountY
                0x0000000000049154                HalIspGetDbgOut
                0x0000000000049192                HalIspGetDbgOutLineCnt
                0x000000000004919a                HalIspGetDbgOutPixelCnt
                0x00000000000491a2                HalIspGetDbgInputPixelCnt
                0x00000000000491aa                HalIspGetDbgInputLineCnt
                0x00000000000491be                HalIspGetDbgSclAck
                0x00000000000491d0                HalIspGetDbgRotBaseAddr
                0x00000000000491d4                HalIspGetDbg3dnrRingIndex
                0x00000000000491d8                HalIspGetDbgMiscDone
                0x00000000000491e0                HalIspDeinitSwIfWdma
                0x0000000000049222                HalIspIsFrameMode
                0x000000000004922e                HalIspWdmaEnable
                0x0000000000049270                HalIspIrWdmaPathEnable
                0x00000000000492b8                HalIspWmuxSrc
                0x000000000004930e                HalIspRawStoreMode
                0x0000000000049414                HalIspRawFetchMode
                0x000000000004944a                HalIsp4PixelDataPakAtMsbToWdma
                0x0000000000049488                HalIspGamma16to12Enable
                0x000000000004948c                HalIspHdrEnable
                0x00000000000494c4                HalIspRdmaMiuSel
                0x00000000000494c8                HalIspRdmaBaseAddrEx
                0x0000000000049550                HalIspRdmaSetFrameIndexMode
                0x0000000000049554                HalIspRdmaVsyncFromLineOrExt
                0x0000000000049558                HalIspRdmaAutoTriggerModeSelect
                0x00000000000495b0                HalIspWdmaMiuSel
                0x00000000000495b4                HalIspWdmaBaseAddrEx
                0x0000000000049660                HalIspWdmaSetFrameIndexMode
                0x0000000000049664                HalIspWdmaGenVsyncLineToRdma
                0x0000000000049668                HalIspInputImageResolution
                0x00000000000496cc                ISP_DNR_ConvertBpp
                0x00000000000496d6                _ISP_DNR_CalRefReqNum
                0x0000000000049724                _ISP_DNR_CalHistReqNum
                0x0000000000049758                HalIspDnrPreHistDsSelect
                0x000000000004977e                HalIspDnrSetRdmaConfig
                0x000000000004991c                HalIspDnrSetWdmaConfig
                0x0000000000049aba                HalIspDnrSetInputImageResolution
                0x0000000000049abe                HalIspDnrSetBayerFmt
                0x0000000000049ac2                HalIspDnrSetHistoryFrameAddress
                0x0000000000049b3e                HalIspDnrSetReferenceFrameAddress
                0x0000000000049bde                HalIspDnrTrigger1stFrame
                0x0000000000049c40                HalIspDnrGet1stFrameStatus
                0x0000000000049c4c                HalIspDnrAfter1stFrame
                0x0000000000049c50                HalIspDnrEngineClockEnable
                0x0000000000049c74                HalIspDnrEngineEnable
                0x0000000000049cb4                HalIspDnrEngineSwReset
                0x0000000000049d08                HalIspDnrReadIqNoiseEst
                0x0000000000049d22                HalIspHdrReadDynamicAlignEst
                0x0000000000049e48                HalIspApplyHdrRatio
                0x0000000000049f2c                HalIspDnrRdmaMiuSel
                0x0000000000049f30                HalIspDnrWdmaMiuSel
                0x0000000000049f34                HalIspDnrCompressBitDepth
                0x0000000000049f90                HalIspDnrDataArrangeMode
                0x0000000000049f94                HalIsp3dnrGetRefBufSizeByLevel
                0x0000000000049faa                HalIsp3dnrGetRefBufSize
                0x0000000000049fae                HalIsp3dnrGetHistBufSize
                0x0000000000049fc4                HalIsp3dnrPvEnable
                0x0000000000049fc8                HalIsp3dnrManualSwingRounderEnable
                0x0000000000049fcc                HalIsp3dnrAutoSwingRounderEnable
                0x0000000000049fd0                HalIspDnrSetCompressRounder
                0x0000000000049fd4                ISP_TNR_ConvertBitDepth
                0x0000000000049fec                ISP_TNR_ConvertYuvFmt
                0x000000000004a016                HalIspDscIsUsed
                0x000000000004a028                ISP_TNR_ConvertDscBpp
                0x000000000004a040                HalIspDscCalReqNum
                0x000000000004a138                _ISP_TNR_CalReqNum
                0x000000000004a198                HalIspTnrRingGetDataFramePitch
                0x000000000004a1a4                HalIspTnrRingGetDataFrameHeight
                0x000000000004a1b6                ceil_log2
                0x000000000004a1c4                ceil_isp
                0x000000000004a1d8                putbits
                0x000000000004a248                getbits
                0x000000000004a2a8                Qp2Qlevel
                0x000000000004a380                compute_offset
                0x000000000004a410                compute_rc_parameters
                0x000000000004a750                check_qp_for_overflow
                0x000000000004a752                write_pps
                0x000000000004aa5c                set_defaults_iq_tunning
                0x000000000004ae50                set_defaults
                0x000000000004b01c                dump_dsc
                0x000000000004b01e                init_dsc
                0x000000000004b33c                HalIspDnrDscConfigPPS
                0x000000000004c278                HalIspTnrRingGetExtHeight
                0x000000000004c27c                HalIspTnrRingFrameConfig
                0x000000000004c50e                HalIspTnrGetBufSize
                0x000000000004c5a2                HalIspTnrSetFrameAddress
                0x000000000004c5a6                HalIspTnrRingRdmaSetRingEn
                0x000000000004c5da                HalIspTnrRingRdmaSetConfig
                0x000000000004c69c                HalIspTnrRdmaSetEn
                0x000000000004c6b6                HalIspTnrSetRdmaConfig
                0x000000000004c840                HalIspTnrRingWdmaSetRingEn
                0x000000000004c874                HalIspTnrRingWdmaSetConfig
                0x000000000004c936                HalIspTnrRingGetResetFlag
                0x000000000004c962                HalIspTnrWdmaSetEn
                0x000000000004c97c                HalIspTnrSetWdmaConfig
                0x000000000004cb04                HalIspTnrEngineConfig
                0x000000000004cbe0                HalIspTnrEngineEnable
                0x000000000004cbfa                HalIspTnrEngineReset
                0x000000000004cc96                HalIspDnrEngineReset
                0x000000000004cda4                HalIspTnrEngineUpdate
                0x000000000004ce70                HalIspImiEnable
                0x000000000004ce74                HalIspImiReservedSize
                0x000000000004ce78                HalIspImiGetWidthLimit
                0x000000000004ce7c                HalIspRotEngineEnable
                0x000000000004cea0                HalIspRotEngineSwReset
                0x000000000004cea4                HalIspRotRdmaEnable
                0x000000000004cea8                HalIspRotSetRdmaRingMode
                0x000000000004ceac                HalIspRotBitDepth
                0x000000000004ceb0                HalIspRotSetRdmaBaseAddr
                0x000000000004ceb4                HalIspRotRdmaHBlanking
                0x000000000004ceb8                HalIspRotSetFramePeriod
                0x000000000004cebc                HalIspRotGetInputImageResolution
                0x000000000004cec0                HalIspRotRdmaMiuReqNum
                0x000000000004cec4                HalIspRotRdmaMiuReqCycle
                0x000000000004cec8                HalIspRotGetOutputLineCnt
                0x000000000004cedc                _HalIspRotIsRotType
                0x000000000004cef6                _HalIspRotIsFlipType
                0x000000000004cf06                HalIspRotConfig
                0x000000000004d6c0                HalIspRotDmaMiuReqParam
                0x000000000004d706                HalIspRotEngineMode
                0x000000000004d712                HalIspRotDirection
                0x000000000004d810                HalIspRotCalBufSize
                0x000000000004df74                HalIspRotReleaseBufSize
                0x000000000004dfa0                HalIspMotionEnable
                0x000000000004dfa4                HalIspMotionSetBaseAddr
                0x000000000004dfa8                HalIspMotionWdmaMiuReqNum
                0x000000000004dfac                HalIspMotionWdmaMiuReqCycle
                0x000000000004dfb0                HalIspMotionRdmaMiuReqNum
                0x000000000004dfb4                HalIspMotionRdmaMiuReqCycle
                0x000000000004dfb8                HalIspMotionCalRefBufSize
                0x000000000004dfbc                HalIspNeSetStatsBuf
                0x000000000004dfc0                HalIspNeIsSupported
                0x000000000004dfc4                HalIspNeCalRefBufSize
                0x000000000004dfca                HalIspNeEnable
                0x000000000004dfce                HalIspWdrGetBigBufSize
                0x000000000004dfd4                HalIspWdrGetSmallLv2BufSize
                0x000000000004dfdc                HalIspWdrGetSmallLv3BufSize
                0x000000000004dfe4                HalIspWdrGetSmallBufSize
                0x000000000004dff4                HalIspWdrReset
                0x000000000004e0ea                HalIspWdrSetBigBaseAddr
                0x000000000004e18c                HalIspWdrSetSmallBaseAddr
                0x000000000004e294                HalIspWdrSetMloadBuffer
                0x000000000004e296                ISP_WDRSetWdrGlobalSize
                0x000000000004e298                HalIspWdrSetLocalSizeEX
                0x000000000004e29a                HalIspWdrMultipleFrameEnable
                0x000000000004e29e                HalIspWdrTrigger1stFrame
                0x000000000004e2b6                HalIspWdrSetWdmaConfig
                0x000000000004e538                HalIspWdrSetRdmaConfig
                0x000000000004e798                HalIspSaveDebugValue
                0x000000000004e79a                HalIspWriteRegWithBankAddr
                0x000000000004e7b4                HalIspReadRegWithBankAddr
                0x000000000004e7cc                HalIspVifGetHdrChOffset
                0x000000000004e7d0                HalIspVifGetSensorMask
                0x000000000004e860                HalIspVifSensorMask
                0x000000000004e8b6                HalIspTnrIsEnablePingPong
                0x000000000004e8ba                HalIsp3DnrRotEngineIsTrue
                0x000000000004e8be                HalIspGetRawIspIdle
                0x000000000004e8ca                HalIspGetInputMask
                0x000000000004e8f4                HalIspInputMask
                0x000000000004e980                HalIspInitReg
                0x000000000004f2d6                HalIspInitHw
                0x000000000004f364                HalIspInitSwIfWdma
                0x000000000004f3e4                HalIspInputMaskRegShadow
                0x000000000004f416                HalIspChangeRegCmdqIf
                0x000000000004f422                HalIspClrCmdqIrq
                0x000000000004f54c                HalIspMaskCmdqIrq
                0x000000000004f6a4                HalIspForceCmdqIrq
                0x000000000004f800                HalIspPollCmdqIrq
                0x000000000004f908                HalIspGetMaskCmdqIrq
                0x000000000004f910                HalIspGetCmdqBuffSizePerFrame
                0x000000000004f916                HalIspGetIspCmdqTrigBusId
                0x000000000004f968                HalIspGetRdmaFenceID
                0x000000000004f986                HalIspSetRdmaFenceID
                0x000000000004f9bc                HalIspGetDebugFenceID
                0x000000000004fa3e                HalIspSetDebugFenceID
                0x000000000004faf0                HalIspPollCmdqRegValue
                0x000000000004fb32                HalIspIsPreRotMode
                0x000000000004fb3e                HalIspIsHwPreRotSupported
                0x000000000004fb42                HalIspIsHwPost3DNR
                0x000000000004fb46                HalIspIsExtWdma420
                0x000000000004fb4a                HalIspIsSegExtDma
                0x000000000004fb4e                HalIspHwStatisticsMemSize
                0x000000000004fb58                HalIspHwStatisticsBuffAddrAssign
                0x000000000004fbae                HalIspHwStatisticsGetSizeAE
                0x000000000004fbb4                HalIspHwStatisticsGetSizeAWB
                0x000000000004fbba                HalIspHwStatisticsGetSizeHisto
                0x000000000004fbc0                HalIspHwStatisticsGetSizeAF
                0x000000000004fbc6                HalIspHwStatisticsGetSizeRgbir
                0x000000000004fbca                HalIspHwStatisticsGetSizeNE
                0x000000000004fbce                HalIspExtWdmaGetId
                0x000000000004fbd2                HalIspHwStatisticsGetBuffInfoAE
                0x000000000004fbe2                HalIspHwStatisticsGetBuffInfoAWB
                0x000000000004fbfa                HalIspHwStatisticsGetBuffInfoHisto
                0x000000000004fc1c                HalIspHwStatisticsGetBuffInfoAF
                0x000000000004fc2a                HalIspHwStatisticsGetBuffInfoRgbir
                0x000000000004fc38                HalIspHwStatisticsGetBuffInfoNE
                0x000000000004fc3c                HalIspHwStatisticsGetOffsetAE
                0x000000000004fc40                HalIspHwStatisticsGetOffsetAWB
                0x000000000004fc4e                HalIspHwStatisticsGetOffsetHisto
                0x000000000004fc66                HalIspHwStatisticsGetOffsetAF
                0x000000000004fc6c                HalIspHwStatisticsGetOffsetRgbir
                0x000000000004fc72                HalIspHwStatisticsGetOffsetNE
                0x000000000004fc76                HalIspAwbStatisticSrcConfig
                0x000000000004fc92                HalIspHistoStatisticSrcConfig
                0x000000000004fcb2                HalIsp3AStatisticConfig
                0x000000000004fe0e                HalIspAfFilterAttrConfig
                0x000000000004fe44                HalIspAfFilterSqConfig
                0x000000000004fe74                HalIspAfBnrConfig
                0x000000000004fe7c                HalIspAfYParamConfig
                0x000000000004feb0                HalIspAfPreFilterConfig
                0x000000000004feb8                HalIspAfFirFilterConfig
                0x000000000004feec                HalIspAfYMapConfig
                0x000000000004ff2c                HalIspAfLdgConfig
                0x000000000004ff60                HalIspAfPeakModeConfig
                0x000000000004ff68                HalIspAfGModeConfig
                0x000000000004ff70                HalIspReadDramId
                0x000000000004ff90                HalIspReadResolutionId
                0x000000000004ffa4                HalIspCheckChipCapability
                0x000000000004ffe8                HalIspCheckHdrCapability
                0x000000000004ffec                HalIspCheckRotationCapability
                0x000000000004fff6                HalIspCheckLineBufferCapability
                0x0000000000050006                HalIspGetVpeCmdqFenceId
                0x0000000000050014                HalIspRotGetMiuReqNum
                0x0000000000050018                HalIspRdmaGetMiuReqParam
                0x0000000000050046                HalIspWdmaGetMiuReqParam
                0x0000000000050066                HalIspMotionRdmaGetMiuReqNum
                0x0000000000050070                HalIspDatagenConfig
                0x000000000005018c                HalIspInit
                0x0000000000050774                HalIspDeinit
                0x000000000005077e                HalIspDumpReg
                0x000000000005084c                HalIspDumpRegByAddr
                0x0000000000050924                HalIspIsModuleDomainSupported
                0x000000000005094a                HalIspRiuBankConvertIqShadowLayout
                0x000000000005094e                HalIspDumpIqShadowByRiuAddr
                0x0000000000050a34                HalIspIsModuleAfterRot
                0x0000000000050a40                HalIspIsRotEngineType
                0x0000000000050a58                HalIspDebug2
                0x0000000000050a8e                HalIspDebug
                0x0000000000050e9c                HalIspAeAwbIntWorkaround
                0x0000000000050fb4                HalIspPowerOnOffSram
                0x0000000000050fe8                HalIspWorkingStatus
                0x0000000000051002                HalIspTnrRingRdmaGetHeight
                0x0000000000051020                HalIspTnrRingWdmaGetHeight
                0x0000000000051338                HalIspApplyOBCb
                0x000000000005136c                HalIspApplyOBC
                0x00000000000513a0                HalIspApplyDPC
                0x0000000000051404                HalIspApplySpikeNR
                0x0000000000051424                HalIspApplyBSNR
                0x0000000000051428                HalIspApplyDM
                0x000000000005145c                HalIspApplyGammaC2A
                0x0000000000051480                HalIspApplyGE
                0x0000000000051482                HalIspApplyANTICT
                0x00000000000514a0                HalIspApplyRgbir
                0x00000000000514c0                HalIspApplyFalseColor
                0x00000000000514c2                HalIspApplyDECOMP
                0x00000000000514f8                HalIspApplyFPN
                0x00000000000514fa                HalIspApplyFPNP1
                0x00000000000514fc                HalIspApplyOBCP1
                0x0000000000051518                HalIspApplyOBCP2
                0x000000000005151a                HalIspApplyGama16to16Isp
                0x000000000005151c                HalIspApplyGamaC2CP1
                0x000000000005151e                HalIspApplyLSC
                0x0000000000051584                HalIspApplyLSCP1
                0x0000000000051586                HalIspApplyALSC
                0x00000000000515cc                HalIspApplyALSCP1
                0x00000000000515ce                HalIspApplyHDR
                0x00000000000516ac                HalIspApplyHDR16to12
                0x00000000000516ae                HalIspApplySDC
                0x00000000000516b0                HalIspApplyNM
                0x00000000000516b2                HalIspApplyPostDN
                0x00000000000516b4                HalIspApplyWdrLoc
                0x0000000000051810                HalIspSetWdrTbl
                0x0000000000051814                HalIspGetWdrTbl
                0x0000000000051816                HalIspApplyWdrTbl
                0x0000000000051818                HalIspReadWdrTbl
                0x000000000005181c                HalIspApply3DNR
                0x0000000000051aa4                HalIspApply3dnrNe
                0x0000000000051aa8                HalIspApplyCCM
                0x0000000000051acc                HalIspApplyHSV
                0x0000000000051c94                HalIspApplyYCCT
                0x0000000000051cb8                HalIspApplyROI
                0x0000000000051dd8                HalIspApplyR2Y
                0x0000000000051dfc                HalIspApplyXNR
                0x0000000000051e20                HalIspApplyYEE
                0x0000000000052288                HalIspApplyYEE1
                0x0000000000052558                HalIspApplySIIR
                0x00000000000525ac                HalIspApplyPFC
                0x00000000000525cc                HalIspApplyLCE
                0x00000000000525d0                HalIspApplyDLC
                0x00000000000525d4                HalIspApplyUVC
                0x00000000000525d8                HalIspApplyIXC
                0x00000000000525dc                HalIspApplyFCC
                0x00000000000525e0                HalIspApplyACK
                0x00000000000525e4                HalIspApplyAdjUv
                0x0000000000052608                HalIspApplyMXNR
                0x000000000005260c                HalIspApplyYuvGama
                0x0000000000052630                HalIspApplyYCUVM10
                0x0000000000052654                HalIspApplyColorTrans
                0x0000000000052678                HalIspApplyLOG
                0x000000000005267c                HalIspApplyGama16to12
                0x00000000000526e4                HalIspApplyGama12to16
                0x00000000000526e8                HalIspApplyBnr
                0x00000000000526ec                HalIspApplyGnr
                0x0000000000052894                HalIspApplyUVM
                0x0000000000052898                HalIspApplyDS
                0x00000000000528bc                HalIspApplyDEFOG
                0x00000000000528dc                HalIspApplyYCLPF
                0x00000000000528e0                HalIspIqInitCfg
                0x00000000000529b4                HalIspApplyIspBypassMode
                0x0000000000052c70                HalIspDisableIqMotionMode
                0x0000000000052c9a                HalIspIqWbgCfg
                0x0000000000052cd6                HalIspIqWbgLscAlscSrcSel
                0x0000000000052cda                HalIspIqInitCfgCameraOpen
                0x0000000000052d0c                IspRegW
                0x0000000000052d44                RegBitShift
                0x0000000000052d5c                IspRegWM
                0x0000000000052dbc                IspRegIndexTableWM
                0x0000000000052e80                IspRegValueTableWM
                0x0000000000052f30                IspRegPoll
                0x0000000000052fa4                IspRegDelay
                0x0000000000052fe4                HalIspMaskIntAll
                0x0000000000053198                HalIspGetIntStatus1
                0x00000000000531a8                HalIspGetIntStatus2
                0x00000000000531b8                HalIspGetIntStatus3
                0x00000000000531c8                HalIspGetIntStatus4
                0x00000000000531d8                HalIspGetIntStatus5
                0x00000000000531e8                HalIspGetIntStatus6
                0x00000000000531f8                HalIspGetIntStatus7
                0x0000000000053208                HalIspMaskClear1
                0x0000000000053248                HalIspMaskClear2
                0x0000000000053288                HalIspMaskClear3
                0x00000000000532c8                HalIspMaskClear4
                0x0000000000053308                HalIspMaskClear5
                0x0000000000053348                HalIspMaskClear6
                0x0000000000053388                HalIspMaskClear7
                0x00000000000533c8                HalIspMaskInt1
                0x00000000000533e0                HalIspMaskInt2
                0x00000000000533f8                HalIspMaskInt3
                0x0000000000053410                HalIspMaskInt4
                0x0000000000053428                HalIspMaskInt5
                0x0000000000053440                HalIspMaskInt6
                0x0000000000053458                HalIspMaskInt7
                0x0000000000053470                HalIspUnMaskInt1
                0x0000000000053480                HalIspUnMaskInt2
                0x0000000000053490                HalIspUnMaskInt3
                0x00000000000534a0                HalIspUnMaskInt4
                0x00000000000534b0                HalIspUnMaskInt5
                0x00000000000534c0                HalIspUnMaskInt6
                0x00000000000534d0                HalIspUnMaskInt7
                0x00000000000534e0                HalIspClearInt
                0x00000000000534ec                HalIspClearIntAll
                0x00000000000535c4                HalIspDisableInt
                0x000000000005364e                HalIspEnableInt
                0x00000000000537bc                HalIspEnableIrq
                0x00000000000537e0                HalIspCheckIrq
                0x0000000000053828                HalIspGetSgdmaMiscStatus
                0x0000000000053850                HalIspMaskClearSgdmaMisc
                0x0000000000053882                HalIspGetSgdmaMiscInfo
                0x00000000000538f2                HalIspEnableIrqMapTable
                0x0000000000053908                HalIspCheckIrqMapTable
                0x000000000005399a                HalIspSetSensorFrameCount
                0x00000000000539a8                HalIspGetSensorFrameCount
                0x00000000000539b4                HalIspIrqUpdateTimeStamp
                0x0000000000053a10                HalIspIrqUpdateFrameIntervalInfo
                0x0000000000053ad8                HalIspIrqUpdateLineCnt
                0x0000000000053b04                HalIspIrqUpdateLineHitCnt
                0x0000000000053b3c                HalIspIrqClearCounter
                0x0000000000053cac                HalIspGetIrqFrameDoneCount
                0x0000000000053cc0                HalIspSetIrqResetIpFlag
                0x0000000000053cd0                HalIspGetIrqResetIpFlag
                0x0000000000053cdc                HalIspSetIrqResetIpStatus
                0x0000000000053cec                HalIspGetIrqResetIpStatus
                0x0000000000053cfc                HalIspIrqResetIpByFlag
                0x0000000000053d48                HalIspIsrPrintDbgLog
                0x0000000000053e9c                HalIspIsr
                0x0000000000054d34                HalIspGetIrqsCnt
                0x0000000000054de4                DRV_ISP_PROXY_TopIsp0Isr
                0x0000000000054e2c                DRV_ISP_PROXY_Isp0Probe
                0x0000000000054e60                DRV_ISP_PROXY_Isp0Remove
                0x0000000000054ea0                DRV_ISP_PROXY_DriverInit
                0x0000000000054eaa                DRV_ISP_PROXY_DriverExit
                0x0000000000054eb4                DRV_ISP_PROXY_Isp0Suspend
                0x0000000000054ecc                DRV_ISP_PROXY_Isp0Resume
                0x0000000000054ee4                LIBCAMERA_IspWqApplySensorShutter
                0x0000000000054f00                LIBCAMERA_IspWqApplySensorGain
                0x0000000000054f1c                LIBCAMERA_IspWqApplyAeOutputParam
                0x0000000000054fb8                LIBCAMERA_IspWqApplyAwbGain
                0x0000000000055000                IspMidWqApplyHdrRatio
                0x0000000000055074                LIBCAMERA_CameraIspImageStoreLineCntHitProc
                0x00000000000550dc                LIBCAMERA_CameraIspCaptureHdrRawWdmaDoneProc
                0x0000000000055170                LIBCAMERA_CameraIspCaptureRawWdmaDoneProc
                0x0000000000055298                CameraGetHISTO_Source
                0x00000000000552f0                LIBCAMERA_IspMidSetHdrRingDivider
                0x0000000000055328                LIBCAMERA_IspMidGetHdrRingDivider
                0x000000000005533c                LIBCAMERA_IspMidIsFrameMode
                0x0000000000055356                CameraSetHISTO_Source
                0x00000000000553e8                LIBCAMERA_IspMidIsHdrType
                0x00000000000553f4                LIBCAMERA_IspMidIsPost3dnr
                0x000000000005541c                LIBCAMERA_IspWqApplyDGain
                0x00000000000554c8                LIBCAMERA_IspMidMaskIspInput
                0x0000000000055524                LIBCAMERA_CameraIspApplyIqShadow
                0x000000000005559c                LIBCAMERA_CameraIspApplyIq
                0x0000000000055834                LIBCAMERA_IspWqApplyIqShadow
                0x000000000005586c                LIBCAMERA_CameraIspApplyLastDGain
                0x000000000005592c                LIBCAMERA_CameraIspAlgoGetAeHdrModeBySensorGainShutter
                0x0000000000055970                LIBCAMERA_CameraIspAlgoDoHdrLinearAeConversionParam
                0x00000000000559e0                LIBCAMERA_CameraIspAlgo3aIqDeInit
                0x0000000000055a3c                LIBCAMERA_CameraIspAlgoSnrEarlyInitParam
                0x0000000000055b9c                LIBCAMERA_CameraIspAlgoDoIq
                0x0000000000055e30                LIBCAMERA_CameraIspAlgoDoIqPerFrame
                0x0000000000056174                LIBCAMERA_CameraIspAlgoRefreshIqGainData
                0x0000000000056204                LIBCAMERA_CameraIspSensorShutterGainCompensation
                0x0000000000056300                LIBCAMERA_IspWqAddIqShadow
                0x0000000000056384                LIBCAMERA_IspWqAddDGain
                0x0000000000056474                LIBCAMERA_IspWqAddAwbGain
                0x0000000000056540                LIBCAMERA_AddHdrRatioWorkQueue
                0x000000000005660c                LIBCAMERA_IspWqAddSensorShutterGain
                0x00000000000567d0                LIBCAMERA_IspWqAddAeOutputParam
                0x00000000000568bc                LIBCAMERA_IspSensorAeNotify
                0x0000000000056964                LIBCAMERA_CameraIspRawFetchGetPathByNode
                0x00000000000569ac                LIBCAMERA_CameraIspRawFetchConfig
                0x0000000000056c2c                LIBCAMERA_CameraIspRawFetch
                0x0000000000056d64                LIBCAMERA_CameraIspRawFetchTrigger
                0x0000000000056e08                LIBCAMERA_CameraIspRawStoreConfig
                0x0000000000056fd4                LIBCAMERA_CameraIspRawStore
                0x00000000000575b0                LIBCAMERA_CameraIspImageStoreGetResolution
                0x000000000005764c                LIBCAMERA_CameraIspImageStoreGetCounter
                0x00000000000576b0                LIBCAMERA_CameraIspCaptureHdrPipeRawImage
                0x0000000000057cc0                LIBCAMERA_CameraIspAlgoLoadIqFile
                0x0000000000057e6c                LIBCAMERA_CameraIspAlgoUnloadIqFile
                0x0000000000057e9c                LIBCAMERA_CameraIspCapture3aStatistic
                0x0000000000057fe4                LIBCAMERA_CameraIspGetAeStats
                0x00000000000580a8                LIBCAMERA_CameraIspGetAwbStats
                0x0000000000058140                LIBCAMERA_CameraIspGetHistoStats
                0x0000000000058200                LIBCAMERA_CameraIspGetAfStats
                0x0000000000058280                LIBCAMERA_CameraIspGetRgbIrHistoStats
                0x0000000000058304                LIBCAMERA_CameraIspGetVipHistoStats
                0x000000000005837c                LIBCAMERA_CameraIspSetAfRoiMode
                0x00000000000583f4                LIBCAMERA_CameraIspGetAfRoiMode
                0x0000000000058450                LIBCAMERA_CameraIspSetAfBNR
                0x00000000000584f0                LIBCAMERA_CameraIspGetAfBNR
                0x000000000005854c                LIBCAMERA_CameraIspSetAfYParam
                0x00000000000585c4                LIBCAMERA_CameraIspGetAfYParam
                0x0000000000058620                LIBCAMERA_CameraIspSetAfSource
                0x0000000000058684                LIBCAMERA_CameraIspGetAfSource
                0x00000000000586d8                LIBCAMERA_CameraIspSetAeSource
                0x0000000000058760                LIBCAMERA_CameraIspGetAeSource
                0x00000000000587b8                LIBCAMERA_CameraIspSetAwbSource
                0x0000000000058868                LIBCAMERA_CameraIspGetAwbSource
                0x00000000000588d8                LIBCAMERA_CameraIspSetAfWindow
                0x0000000000058968                LIBCAMERA_CameraIspGetAfWindow
                0x00000000000589e4                LIBCAMERA_CameraIspGetAfWinPixelCount
                0x0000000000058ca4                LIBCAMERA_CameraIspSetAfFilterAttr
                0x0000000000058d1c                LIBCAMERA_CameraIspGetAfFilterAttr
                0x0000000000058d78                LIBCAMERA_CameraIspSetAfFilterSq
                0x0000000000058df4                LIBCAMERA_CameraIspGetAfFilterSq
                0x0000000000058e50                LIBCAMERA_CameraIspSetAfPreFilter
                0x0000000000058ec8                LIBCAMERA_CameraIspGetAfPreFilter
                0x0000000000058f24                LIBCAMERA_CameraIspSetAfFirFilter
                0x0000000000058f9c                LIBCAMERA_CameraIspGetAfFirFilter
                0x0000000000058ff8                LIBCAMERA_CameraIspSetAfYMap
                0x0000000000059070                LIBCAMERA_CameraIspGetAfYMap
                0x00000000000590cc                LIBCAMERA_CameraIspSetAfLdg
                0x0000000000059144                LIBCAMERA_CameraIspGetAfLdg
                0x00000000000591a0                LIBCAMERA_CameraIspSetAfPeakMode
                0x0000000000059218                LIBCAMERA_CameraIspGetAfPeakMode
                0x0000000000059274                LIBCAMERA_CameraIspSetAfGMode
                0x000000000005931c                LIBCAMERA_CameraIspGetAfGMode
                0x0000000000059378                _IspGetDelayValidStatsFrame
                0x00000000000593ac                LIBCAMERA_CameraIspGetAeCurStatus
                0x00000000000595a0                LIBCAMERA_CameraIspSetAeParam
                0x0000000000059850                LIBCAMERA_CameraIspGetAwbCurStatus
                0x0000000000059964                LIBCAMERA_CameraIspSetAwbParam
                0x0000000000059b9c                LIBCAMERA_CameraIspSetAeWinBlock
                0x0000000000059c3c                LIBCAMERA_CameraIspSetAeWinBlockRange
                0x0000000000059d04                LIBCAMERA_CameraIspSetAwbWinBlock
                0x0000000000059d94                LIBCAMERA_CameraIspSetAwbWinBlockRange
                0x0000000000059e58                LIBCAMERA_CameraIspGetAwbWinBlock
                0x0000000000059ed4                LIBCAMERA_CameraIspSetHistoWins
                0x0000000000059f40                LIBCAMERA_CameraIspGetHistoWins
                0x0000000000059fec                CameraSetEarlyAwbDone
                0x000000000005a080                CameraSetAeStatsPostProcessing
                0x000000000005a0ec                CameraSetAwbStatsPostProcessing
                0x000000000005a158                LIBCAMERA_CameraIspGetAfCurStatus
                0x000000000005a214                LIBCAMERA_CameraIspSetAfParam
                0x000000000005a28c                LIBCAMERA_CameraIspGetInputSize
                0x000000000005a2e8                LIBCAMERA_CameraIspSetAeOpMode
                0x000000000005a354                LIBCAMERA_CameraIspGetDoAeCount
                0x000000000005a3a8                LIBCAMERA_CameraIspGetIqSize
                0x000000000005a498                LIBCAMERA_CameraReadIqDataToUpperLayer
                0x000000000005a630                LIBCAMERA_CameraIspSensorI2cRead
                0x000000000005a6c0                LIBCAMERA_CameraIspSensorI2cWrite
                0x000000000005a74c                CameraDebugSetSensorFPS
                0x000000000005a778                CameraDebugSetControlFlag
                0x000000000005a80c                CameraDebugAE
                0x000000000005a870                CameraDebugAWB
                0x000000000005a8d4                CameraDebugAF
                0x000000000005a8d6                CameraDebugIQ
                0x000000000005a948                CameraIsp_GetVifHdrChOffset
                0x000000000005a94c                LIBCAMERA_CameraIspAlgoDoHdrLinearAeConversion
                0x000000000005aadc                LIBCAMERA_CameraIspAlgo3aIqInit
                0x000000000005aed4                LIBCAMERA_CameraIspGetAeInitStatus
                0x000000000005b14c                LIBCAMERA_CmdqRegWM
                0x000000000005b1a4                LIBCAMERA_CmdqRegW
                0x000000000005b1f8                LIBCAMERA_CmdqRegWMaskMulti
                0x000000000005b250                LIBCAMERA_CmdqPollWait
                0x000000000005b2b0                LIBCAMERA_CmdqDelay
                0x000000000005b304                LIBCAMERA_CmdqBufModeRegWM
                0x000000000005b3b0                LIBCAMERA_CmdqBufModeRegW
                0x000000000005b458                LIBCAMERA_CmdqBufModeRegWMaskMulti
                0x000000000005b500                CameraOS_MutexLock
                0x000000000005b524                CameraOS_MutexUnlock
                0x000000000005b548                LIBCAMERA_IspMidEarlyInit
                0x000000000005b5f8                LIBCAMERA_IspMidFinalRelease
                0x000000000005b63c                LIBCAMERA_IO_CamIspSetRotate
                0x000000000005b660                LIBCAMERA_IO_CamIspGetIspRoot
                0x000000000005b688                LIBCAMERA_IO_CamIspGetAeHwAvgStats
                0x000000000005b6b0                LIBCAMERA_IO_CamIspGetAwbHwAvgStats
                0x000000000005b6d8                LIBCAMERA_IO_CamIspGetAwbHwAvgStatsShort
                0x000000000005b700                LIBCAMERA_IO_CamIspGetHistoHwStats
                0x000000000005b720                LIBCAMERA_IO_CamIspGetRgbIrHistoHwStats
                0x000000000005b73c                LIBCAMERA_IO_CamIspGetVipHistoHwStats
                0x000000000005b758                LIBCAMERA_IO_CamIspGetAeInitStatus
                0x000000000005b76c                LIBCAMERA_IO_CamIspGetAeStatus
                0x000000000005b780                LIBCAMERA_IO_CamIspSetAeParam
                0x000000000005b794                LIBCAMERA_IO_CamIspGetAwbStatus
                0x000000000005b7a8                LIBCAMERA_IO_CamIspSetAwbParam
                0x000000000005b7bc                LIBCAMERA_IO_CamIspGetAfStatus
                0x000000000005b7d0                LIBCAMERA_IO_CamIspSetAfParam
                0x000000000005b7e4                LIBCAMERA_IO_CamIspGetInputSize
                0x000000000005b7f8                LIBCAMERA_IO_CamIspSetInject3aEnable
                0x000000000005b806                LIBCAMERA_IO_CamIspSetCus3aEnable
                0x000000000005b81c                LIBCAMERA_IO_CamIspGetFrameMetaInfo
                0x000000000005b830                LIBCAMERA_IO_CamIspReadSensorData
                0x000000000005b844                LIBCAMERA_IO_CamIspWriteSensorData
                0x000000000005b858                MS_CAM_ISP_SetEarlyAwbDone
                0x000000000005b86c                MS_CAM_ISP_SetAeStatsPostProcessing
                0x000000000005b880                MS_CAM_ISP_SetAwbStatsPostProcessing
                0x000000000005b894                LIBCAMERA_IO_CamIspSetAwbWindowBlockRange
                0x000000000005b8d0                LIBCAMERA_IO_CamIspSetAeWindowBlockNumber
                0x000000000005b95c                LIBCAMERA_IO_CamIspGetAeWindowBlockNumber
                0x000000000005b960                LIBCAMERA_IO_CamIspSetAeWindowBlockRange
                0x000000000005b99c                LIBCAMERA_IO_CamIspSetHistogramWindow
                0x000000000005b9a6                LIBCAMERA_IO_CamIspGetHistogramWindow
                0x000000000005b9b0                LIBCAMERA_IO_CamIspSetAwbSampling
                0x000000000005b9c6                LIBCAMERA_IO_CamIspGetAwbSampling
                0x000000000005ba0c                LIBCAMERA_IO_CamIspGetAfHwStats
                0x000000000005ba3c                LIBCAMERA_IO_CamIspSetAfWindow
                0x000000000005bb24                LIBCAMERA_IO_CamIspGetAfWindow
                0x000000000005bb3e                LIBCAMERA_IO_CamIspGetAfWinPixelCount
                0x000000000005bb48                LIBCAMERA_IO_CamIspSetAfFilter
                0x000000000005bb52                LIBCAMERA_IO_CamIspGetAfFilter
                0x000000000005bb5c                LIBCAMERA_IO_CamIspSetAfYParam
                0x000000000005bb66                LIBCAMERA_IO_CamIspGetAfYParam
                0x000000000005bb70                LIBCAMERA_IO_CamIspSetAfSource
                0x000000000005bb7a                LIBCAMERA_IO_CamIspGetAfSource
                0x000000000005bb84                LIBCAMERA_IO_CamIspSetAeSource
                0x000000000005bb8e                LIBCAMERA_IO_CamIspGetAeSource
                0x000000000005bb98                MS_CAM_SetHISTO_Source
                0x000000000005bba2                MS_CAM_GetHISTO_Source
                0x000000000005bbac                LIBCAMERA_IO_CamIspSetAwbSource
                0x000000000005bbb6                LIBCAMERA_IO_CamIspGetAwbSource
                0x000000000005bbc0                LIBCAMERA_IO_CamIspGetImageResolution
                0x000000000005bbe4                LIBCAMERA_IO_CamIspEnableOutImage
                0x000000000005bc74                LIBCAMERA_IO_CamIspGetOutImageCount
                0x000000000005bc78                LIBCAMERA_IO_CamIspCaptureHdrRawImage
                0x000000000005bcb4                LIBCAMERA_IO_CamIspCaptureRawImage
                0x000000000005bd20                LIBCAMERA_IO_CamIspSetAeOpMode
                0x000000000005bd34                LIBCAMERA_IO_CamIspGetDoAeCount
                0x000000000005bd48                LIBCAMERA_IO_CamIspGetIqSize
                0x000000000005bd5c                LIBCAMERA_IO_CamIspLoadIqData
                0x000000000005bd70                MS_CAM_RegIspCmdFilter
                0x000000000005bd84                LIBCAMERA_IO_EarlyOpenIsValidCmd
                0x000000000005be64                MS_CAM_IspApiSet
                0x000000000005c6d8                MS_CAM_IspApiGet
                0x000000000005d2fc                DrvAlgoGetIqBinBufPtrByChannel
                0x000000000005d31c                DrvAlgoConvertIqFileIndex
                0x000000000005d328                IspFrameCtxtRingBufPush
                0x000000000005d370                IspFrameCtxtRingBufPop
                0x000000000005d3b4                IspFrameCtxtRingBufCreate
                0x000000000005d3f0                IspFrameCtxtRingBufRelease
                0x000000000005d40e                IspFrameCtxtRingBufFlush
                0x000000000005d420                IspFrameCtxtRingBufStatus
                0x000000000005d428                BufPoolInit
                0x000000000005d49a                BufPoolRelease
                0x000000000005d49e                BufPoolFlush
                0x000000000005d4bc                BufPoolGet
                0x000000000005d512                BufPoolForceGet
                0x000000000005d53a                BufPoolPut
                0x000000000005d556                BufPoolGetElmSize
                0x000000000005d55c                BufPoolGetNumUsed
                0x000000000005d562                BufPoolGetMaxUsed
                0x000000000005d568                BufGetVirtAddr
                0x000000000005d56c                BufGetPhysAddr
                0x000000000005d572                BufGetMiuAddr
                0x000000000005d578                IspMidWorkDestroy
                0x000000000005d5b4                IspMidWorkFlush
                0x000000000005d648                IspMidWorkCreate
                0x000000000005d694                IspMidWorkDumpQueue
                0x000000000005d730                IspMidWorkAdd
                0x000000000005d878                IspMidWorkExecute
                0x000000000005da1c                IspLogSetEn
                0x000000000005da34                IspLogGetEn
                0x000000000005da40                IspLogPrintTimeStamp
                0x000000000005db04                IspLogPrintTimeRec
                0x000000000005db44                COMMON_ISP_GetHalHnd
                0x000000000005db50                COMMON_ISP_GetDrvHnd
                0x000000000005db5c                COMMON_ISP_MODULE_GetIrqNum
                0x000000000005db8c                CommonIspInit
                0x000000000005dc08                CommonIspDeInit
                0x000000000005dc40                COMMON_ISP_ReadRegWithBankAddr
                0x000000000005dc58                COMMON_ISP_SensorBindExist
                0x000000000005dc74                COMMON_ISP_GetSensorFPS
                0x000000000005dcb4                COMMON_ISP_IsFrameMode
                0x000000000005dce0                COMMON_ISP_IsRealtimeMode
                0x000000000005dcee                COMMON_ISP_IsEnableHdrPipe
                0x000000000005dd00                COMMON_ISP_IsHdrType
                0x000000000005dd14                COMMON_ISP_IsHdrDcgType
                0x000000000005dd1c                COMMON_ISP_IsRgbIrType
                0x000000000005dd26                COMMON_ISP_IsYuv
                0x000000000005dd48                COMMON_ISP_IsBayer
                0x000000000005dd56                COMMON_ISP_IsGamma16to12
                0x000000000005dd72                COMMON_ISP_IsRotMode
                0x000000000005dd8c                COMMON_ISP_IsSync3aMode
                0x000000000005dd94                COMMON_ISP_IsSameSync3aGroup
                0x000000000005ddae                COMMON_ISP_Sync3aInit
                0x000000000005de00                COMMON_ISP_Sync3aDeInit
                0x000000000005de28                COMMON_ISP_IsSync3aStatsReady
                0x000000000005de4a                COMMON_ISP_Do3AStatsPostProcessing
                0x000000000005e088                COMMON_ISP_Sync3aStatsFrameDoneProc
                0x000000000005e1c0                COMMON_ISP_IsBypassSensorSetting
                0x000000000005e214                COMMON_ISP_GetVifChBySensorId
                0x000000000005e2e4                COMMON_ISP_GetMappingVifCh
                0x000000000005e2fa                COMMON_ISP_EnableIspPipeSourceContrl
                0x000000000005e320                COMMON_ISP_SelectIspPipeSource
                0x000000000005e354                COMMON_ISP_GetProcChData
                0x000000000005e38c                COMMON_ISP_GetSensorFrmCnt
                0x000000000005e3c0                COMMON_ISP_SetSensorAeNotify
                0x000000000005e3f0                COMMON_ISP_ChnOpenedNum
                0x000000000005e418                COMMON_ISP_RegisterCallbackAPI
                0x000000000005e478                COMMON_ISP_UnRegisterCallbackAPI
                0x000000000005e4ac                CommonIspCheckIrq
                0x000000000005e530                COMMON_ISP_CmdqReleaseService
                0x000000000005e57c                COMMON_ISP_CmdqGetService
                0x000000000005e670                COMMON_ISP_CmdqInit
                0x000000000005e730                COMMON_ISP_CmdqDeInit
                0x000000000005e75c                COMMON_ISP_CmdqReset
                0x000000000005e7b8                COMMON_ISP_CmdqBuffGet
                0x000000000005e898                COMMON_ISP_CmdqBuffKick
                0x000000000005e914                COMMON_ISP_CmdqChangeIfCb
                0x000000000005e9a8                COMMON_ISP_CmdqPreSwitchMode
                0x000000000005ea00                COMMON_ISP_CmdqAddWaitEvent
                0x000000000005eae0                COMMON_ISP_MaskIspInput
                0x000000000005eb48                COMMON_ISP_AllocDmaBuffer
                0x000000000005ec60                COMMON_ISP_FreeDmaBuffer
                0x000000000005ec9c                COMMON_ISP_CmdqReleaseBuffer
                0x000000000005ed14                COMMON_ISP_CmdqAllocateBuffer
                0x000000000005ee54                COMMON_ISP_3dnrReleaseBuffer
                0x000000000005ef48                COMMON_ISP_RotAllocateBuffer
                0x000000000005f128                CameraIspAlgo_FPN_AllocateBuffer
                0x000000000005f12c                COMMON_ISP_3dnrGetConfigByLevel
                0x000000000005f184                COMMON_ISP_3dnrAllocateBuffer
                0x000000000005f4cc                COMMON_ISP_WdrReleaseBuffer
                0x000000000005f54a                COMMON_ISP_WdrAllocateBuffer
                0x000000000005f818                COMMON_ISP_StatsReleaseBuffer
                0x000000000005f866                COMMON_ISP_StatsAllocateBuffer
                0x000000000005fa00                COMMON_ISP_HdrPipeReleaseBuffer
                0x000000000005fa48                COMMON_ISP_HdrPipeAllocateBuffer
                0x000000000005fc60                COMMON_ISP_MloadInit
                0x000000000005fce8                COMMON_ISP_MloadDeInit
                0x000000000005fd2a                COMMON_ISP_IqSizeInit
                0x000000000005fd94                COMMON_ISP_3aIqConfig
                0x000000000005fe10                COMMON_ISP_SwitchIqIndex
                0x000000000005fe52                COMMON_ISP_SwitchIqPerFrameIndex
                0x000000000005fe9c                COMMON_ISP_SyncIqShdPerFrame
                0x000000000005fef6                COMMON_ISP_ApplyBypassMode
                0x000000000005ff74                CameraISP_UpdateIqDirtyShd
                0x000000000005ffc6                COMMON_ISP_UpdateIQ
                0x0000000000060128                COMMON_ISP_ProcFrameIQ
                0x000000000006060c                CameraIspAlgo_DoWdrStitchingLpf
                0x0000000000060616                COMMON_ISP_Sync3aWdrFrameDoneProc
                0x00000000000607d8                COMMON_ISP_WdrInit
                0x0000000000060894                COMMON_ISP_WdrDeInit
                0x00000000000608fc                COMMON_ISP_WdrUpdate
                0x000000000006094c                COMMON_ISP_HdrPipeInit
                0x0000000000060c3e                COMMON_ISP_HdrPipeDeInit
                0x0000000000060e50                COMMON_ISP_InsideLdcInit
                0x0000000000060ea0                COMMON_ISP_InsideLdcDeinit
                0x0000000000060ecc                COMMON_ISP_InsideLdcConfig
                0x0000000000060f94                COMMON_ISP_InsideLdcOnline
                0x0000000000060fb4                COMMON_ISP_InsideLdcOffline
                0x0000000000060fd4                COMMON_ISP_InsideLdcUpdate
                0x0000000000060ff2                COMMON_ISP_3dnrInit
                0x00000000000611e8                COMMON_ISP_3dnrDeInit
                0x0000000000061238                COMMON_ISP_3dnrSoftwareResetAfter1stFrame
                0x0000000000061268                COMMON_ISP_3dnrEnable
                0x0000000000061444                COMMON_ISP_3dnrUpdate
                0x0000000000061484                COMMON_ISP_AwbSwitchSourceHdrPipe
                0x00000000000614e0                COMMON_ISP_HistoSwitchSourceHdrPipe
                0x000000000006153c                COMMON_ISP_AckTie1Cfg
                0x0000000000061590                COMMON_ISP_RunModeInit
                0x00000000000616e0                COMMON_ISP_AeAwbIntsIssueWorkaround
                0x0000000000061754                COMMON_ISP_PipeActionUpdate
                0x0000000000061802                COMMON_ISP_FullConfig
                0x0000000000061cdc                COMMON_ISP_3aFrameCntInit
                0x0000000000061d4c                COMMON_ISP_GetBypassCus3A
                0x0000000000061d60                COMMON_ISP_SetBypassCus3A
                0x0000000000061db4                COMMON_ISP_GetStatusChnCus3A
                0x0000000000061e40                COMMON_ISP_EnableChnCus3A
                0x0000000000061f24                COMMON_ISP_EnableCus3A
                0x0000000000062010                COMMON_ISP_EnableChnInject3aProc
                0x0000000000062084                COMMON_ISP_EnableInject3aProcs
                0x00000000000620f4                COMMON_ISP_Cus3aTriggerEvent
                0x0000000000062184                COMMON_ISP_MiPixelFormatToDomain
                0x00000000000621e0                COMMON_ISP_MiPixelFormatToBayerId
                0x00000000000621f6                COMMON_ISP_MiPixelFormatToYuvOrder
                0x0000000000062244                COMMON_ISP_MHalSensorBindIdToIspSensorBindId
                0x0000000000062252                COMMON_ISP_3aIqCreate
                0x00000000000623b0                COMMON_ISP_InitChnSensor
                0x0000000000062620                COMMON_ISP_InitChnFmt
                0x0000000000062888                COMMON_ISP_InitIspAttr
                0x0000000000062be0                COMMON_ISP_DumpDebugInfo
                0x0000000000062c30                COMMON_ISP_BindVifWdma2IspDevice
                0x0000000000062c9c                COMMON_ISP_UnbindVifWdma2IspDevice
                0x0000000000062cd8                COMMON_ISP_GetIspDeviceMapByWdmaId
                0x0000000000062d04                COMMON_ISP_ChnClose
                0x0000000000062ebc                COMMON_ISP_Create
                0x0000000000063210                COMMON_ISP_Open
                0x0000000000063c24                COMMON_ISP_Close
                0x0000000000063dfc                COMMON_ISP_Reset
                0x0000000000063e44                COMMON_ISP_PmPreSuspend
                0x0000000000063f34                COMMON_ISP_PmExitSuspend
                0x0000000000063fe0                COMMON_ISP_PmSuspend
                0x00000000000641fc                COMMON_ISP_PmResume
                0x000000000006437c                COMMON_ISP_PmResumeNotify
                0x000000000006447c                COMMON_ISP_PROC_SensorFrameDoneProc
                0x0000000000064560                CameraIsp_GetInfoString
                0x00000000000645f4                COMMON_ISP_PROC_FrameMetaDataGetInfo
                0x000000000006466c                COMMON_ISP_PROC_FrameMetaDataInfoSaveToPool
                0x00000000000647dc                COMMON_ISP_PROC_FrameMetaDataInfoSetNextPts
                0x00000000000648a0                COMMON_ISP_PROC_FrameMetaDataInfoAssignBuffer
                0x0000000000064994                COMMON_ISP_PROC_Cus3aTriggerFrameEvent
                0x0000000000064a78                COMMON_ISP_PROC_Cus3aTriggerAlgoEvent
                0x0000000000064ab8                COMMON_ISP_PROC_Cus3aReopenEvent
                0x0000000000064ad0                COMMON_ISP_PROC_Cus3aResumeEvent
                0x0000000000064ae8                COMMON_ISP_PROC_FrameDoneIQ
                0x0000000000064b84                COMMON_ISP_PROC_FrameDoneProc
                0x0000000000064cd0                COMMON_ISP_PROC_FrameStartProc
                0x0000000000064f14                CameraIspContextSwitchSTA
                0x0000000000064f18                COMMON_ISP_PROC_ContextSwitch
                0x00000000000651ec                COMMON_ISP_PROC_ContextSwitchDone
                0x00000000000654d4                COMMON_ISP_PROC_SensorFrameDoneISR
                0x0000000000065578                COMMON_ISP_PROC_CheckDmaAlignment
                0x00000000000655c8                COMMON_ISP_PROC_FillOutDmaConfigByExtDma
                0x00000000000658dc                COMMON_ISP_PROC_FillOutDmaConfigByIrDma
                0x00000000000659b4                COMMON_ISP_PROC_ProcessOutDma
                0x0000000000065b48                CameraSetHdrRawFetch
                0x0000000000065b4c                COMMON_ISP_PROC_ProcessInDma
                0x0000000000065d34                COMMON_ISP_PROC_ProcessWaitDone
                0x0000000000065f60                COMMON_ISP_PROC_ConfigAckTie1
                0x000000000006606c                COMMON_ISP_PROC_ConfigDataGen
                0x0000000000066140                COMMON_ISP_PROC_EarlyAwbDoneProc
                0x0000000000066278                COMMON_ISP_PROC_GetFirstAwbDone
                0x0000000000066344                MHalVpeIspHdrConfig
                0x00000000000663d4                MHalVpeIspSTAConfig
                0x00000000000663d8                MHalVpeIspPdafConfig
                0x00000000000663dc                COMMON_ISP_PROC_ApiSet
                0x0000000000066410                COMMON_ISP_PROC_ApiGet
                0x0000000000066444                MHalVpeIspGetCus3AParams
                0x00000000000664d0                MHalVpeIspGetSensorPad
                0x0000000000066590                LIBCAMERA_PROXY_DriverInit
                0x00000000000665b4                LIBCAMERA_PROXY_DriverExit
                0x00000000000665d8                _LIBCAMERA_POLL_IspmidFeLockInit
                0x00000000000665e8                _LIBCAMERA_POLL_IspmidFeLockRelease
                0x00000000000665f8                _LIBCAMERA_POLL_IspmidFeLock
                0x0000000000066608                _LIBCAMERA_POLL_IspmidFeUnlock
                0x0000000000066754                MloadSetMemAllocator
                0x00000000000667a0                MloadClearMemAllocator
                0x00000000000667b4                MloadMalloc
                0x00000000000667b8                MloadFree
                0x00000000000667bc                MloadMallocNonCache
                0x0000000000066848                MloadFreeNonCache
                0x0000000000066880                MloadFlushNonCache
                0x0000000000066882                MloadHalUtilPHY2MIUAddr
                0x00000000000668a6                MloadVA2PA
                0x00000000000668aa                MloadRegW
                0x00000000000668f8                MloadRegR
                0x0000000000066928                MloadPollRegBit
                0x0000000000066962                MloadDelayNs
                0x0000000000066bec                DrvIspMloadGetLayoutSize
                0x0000000000066bf2                DrvIspMloadInit
                0x0000000000066c4c                DrvIspMloadFreeHandle
                0x0000000000066c70                DrvIspMloadNextFrame
                0x0000000000066c7a                DrvIspMloadFreeFrame
                0x0000000000066c84                DrvIspMloadChangeCmdQ
                0x0000000000066cae                DrvIspMloadTableShadSet
                0x0000000000066cf8                DrvSclMloadTableShadSet
                0x0000000000066d42                DrvIspMloadTableSet
                0x0000000000066d8a                DrvIspMloadTableGet
                0x0000000000066d9c                DrvIspMloadGetMaxShdNum
                0x0000000000066da0                DrvIspMloadApply
                0x0000000000066dee                DrvSclMloadApply
                0x0000000000066e3e                DrvIspMloadRead
                0x0000000000066e56                DrvSclMloadRead
                0x0000000000066e6e                DrvIspMloadDump
                0x0000000000066f28                DrvSclMloadDump
                0x0000000000066fe4                DrvMloadGetIdTableAmount
                0x0000000000066ff4                DrvMloadGetWdrSize
                0x0000000000066ff8                DrvMloadUtInitShdContent
                0x0000000000066ffc                DrvMloadGetMaxShdId
                0x0000000000067000                DrvMloadGetSize
                0x0000000000067004                DrvMloadConvertIDs
                0x0000000000067008                DrvMloadConvertBuffAddr
                0x000000000006700c                IspMLoadGetLayoutSize
                0x0000000000067010                IspMLoadInit
                0x0000000000067064                IspMLoadDeInit
                0x0000000000067090                IspMLoadReleaseModule
                0x00000000000670b4                IspMLoadNextFrame
                0x00000000000670b8                IspMLoadFreeFrame
                0x00000000000670bc                IspMLoadSetMemAllocator
                0x00000000000670c0                IspMLoadChangeCmdqIF
                0x00000000000670c4                IspMLoadTableSet
                0x00000000000670c8                IspMLoadTableGet
                0x00000000000670cc                IspMLoadApply
                0x00000000000670d0                SclMLoadApply
                0x00000000000670d4                IspMLoadGetWdrSize
                0x00000000000670d8                IspMLoadGetMaxShdId
                0x00000000000670dc                IspMLoadGetSize
                0x00000000000670e0                IspMLoadConvertIDs
                0x00000000000670e4                IspMLoadConvertBuffAddr
                0x00000000000670e8                IspMloadCombieSet
                0x0000000000067154                HalMloadPatchDomain
                0x0000000000067156                HalMloadRefreshCfgContent
                0x0000000000067226                HalMloadGetMaxShdId
                0x000000000006722a                HalMloadLayoutGetSize
                0x000000000006723c                HalMloadConvertIDs
                0x0000000000067260                HalMloadLayoutConvertBuffAddr
                0x00000000000672ba                HalSclMloadTableShadSet
                0x00000000000672c0                HAL_MLOAD_CheckSramIdValid
                0x00000000000672e4                HalMloadTableSet
                0x000000000006731a                HalIspMloadTableShadSet
                0x00000000000673c0                HalMloadTableGet
                0x00000000000673e2                HalMloadGetMaxShdNum
                0x00000000000673e6                HalIspMloadApply
                0x0000000000067610                HalSclMloadApply
                0x0000000000067616                HalIspWaitMloadIdle
                0x00000000000676a4                HalSclWaitMloadIdle
                0x00000000000676aa                HalIspWaitMloadIntrDone
                0x00000000000676d4                HalSclWaitMloadIntrDone
                0x00000000000676da                HalIspEnableMloadIntr
                0x0000000000067722                HalSclEnableMloadIntr
                0x0000000000067728                HalMloadRead
                0x000000000006785e                HalMloadGetIdTableAmount
                0x000000000006788a                HalMloadGetWdrSize
                0x0000000000067890                HalMloadUtInitShdContent
                0x00000000000678f8                MLOAD_PROXY_Cleanup
                0x00000000000678fc                DrvAeInit
                0x0000000000067904                DrvDoAe
                0x0000000000067a14                DrvAeRelease
                0x0000000000067a20                DrvAeInitParamConversion
                0x0000000000067a60                DrvDoAwb
                0x0000000000067bf8                DrvAwbInit
                0x0000000000067c20                DrvAwbRelease
                0x0000000000067c2c                pIQ_IQTrigger
                0x0000000000067d1c                pIQ_SetMirrorFlip
                0x0000000000067d5c                pIQ_SetIQVersion
                0x0000000000067d6a                pIQ_GetIQParaInitStatus
                0x0000000000067d76                pIQ_SetFastMode
                0x0000000000067d84                pIQ_GetFastMode
                0x0000000000067d92                pIQ_GetParaMode
                0x0000000000067da0                pIQ_GetIsoInd
                0x0000000000067dae                pIQ_GetIQVersion
                0x0000000000067e3c                pIQ_SetSceneDecision
                0x0000000000067e50                pIQ_GetSceneDecision
                0x0000000000067e54                pIQ_SetSceneInd
                0x0000000000067e68                pIQ_GetSceneInd
                0x0000000000067e6c                pIQ_SetSceneAdj
                0x0000000000067e82                pIQ_GetSceneAdj
                0x0000000000067e86                pIQ_GetSceneCurLevel
                0x0000000000067e9a                IQ_SetIQParaInitStatus
                0x0000000000067ea4                IQ_ResolutionCheck
                0x0000000000067ed0                IQ_Property_Get
                0x0000000000067ed8                IQ_ParaModeGet
                0x0000000000067efe                pIQ_SetParaMode
                0x0000000000067f18                IQ_Temp_Index_Check
                0x0000000000067f8a                IQ_ALSC_Index_Check
                0x0000000000068098                IQ_ISOIndexUpdate
                0x000000000006815c                IQ_TNR_PercentValueUpdate
                0x0000000000068202                IQ_ISOIndexGet
                0x00000000000685a8                IQ_API20_Trigger_CHK
                0x00000000000685c6                IQ_API20_IPMode_Update
                0x00000000000686e8                IQ_Set_LookUp
                0x0000000000068730                IQ_Get_LookUp
                0x0000000000068736                IQ_Trigger_RUNTIME
                0x0000000000068878                IQ_Trigger_API
                0x00000000000688b4                IQ_Trigger_Froce
                0x00000000000688f4                IQ_ParamSetSwitch
                0x00000000000689ca                IQ_GetParamFromCfg
                0x0000000000068a68                IQ_InitParameters
                0x0000000000068d8c                IQ_InitFuncPtr
                0x0000000000068e8c                DoIq
                0x0000000000068f64                DoIqPerFrame
                0x0000000000068fbe                DoIqStitchLPF
                0x0000000000068fd0                IqInit
                0x0000000000069040                IqRelease
                0x000000000006904c                IspAlgoReadIqBinH
                0x0000000000069060                Cfg_InitDbgBufInfo
                0x00000000000690e8                IQ_PARAMETER_TYPE
                0x0000000000069120                Cfg_InitDbgBuf
                0x0000000000069146                Cfg_GetDbgBufSize
                0x000000000006914a                cfg_InitBinInfo
                0x0000000000069172                cfg_ReleaseDBGInfo
                0x0000000000069190                cfg_getcfg_info_byenum
                0x00000000000691b8                cfg_setcfgbyenum
                0x00000000000691f0                cfg_getcfgbyenum
                0x0000000000069228                cfg_getcfgbyenum_ptr
                0x0000000000069248                Interp
                0x0000000000069344                InterpU64
                0x0000000000069488                Interp_LUT
                0x0000000000069524                Interp_LUT_P
                0x00000000000695c4                compare
                0x00000000000695da                Calc_STDEV_Power
                0x000000000006960e                Get_Color_Ratio
                0x0000000000069744                Check_Shading_Init
                0x000000000006975a                Get_Uniform_Rows_average
                0x0000000000069868                Check_Shading_Performance
                0x0000000000069c4c                Interp_IQ
                0x0000000000069c50                Interp_LUT_IQ
                0x0000000000069cec                Interp_LUT_IQ_P
                0x0000000000069d8e                _exp
                0x0000000000069da0                Int2TwoComp
                0x0000000000069dcc                TwoComp2Int
                0x0000000000069e0c                roundRSl
                0x0000000000069e9e                twos_complement_to_inter
                0x0000000000069eac                interto_twos_complement
                0x0000000000069eba                IQ_InterpXBase
                0x0000000000069f34                IQ_para_inter
                0x0000000000069ffa                IQ_para_interS
                0x000000000006a0be                Callocate2dArray
                0x000000000006a0e8                Decallocate2dArray
                0x000000000006a0f0                MinMaxNormalizationS32
                0x000000000006a106                MinMaxNormalizationU64
                0x000000000006a178                Leading_Detect
                0x000000000006a18e                Ceil_Log2
                0x000000000006a19c                FindCurveMinMax
                0x000000000006a250                WDRCurve16To12
                0x000000000006a438                WDRInverseDeGammaTo12
                0x000000000006a4c8                GenerateWDRCurve
                0x000000000006a6c8                DrvAlgo_IF_IQ_ForceTrigIQ
                0x000000000006a6e0                DrvAlgo_IF_IQ_SetMirrorFlip
                0x000000000006a6f8                DrvAlgo_IF_IQ_GetVersionInfo
                0x000000000006a71c                DrvAlgo_IF_IQ_SetVersionInfo
                0x000000000006a740                DrvAlgo_IF_IQ_SetGroupHold
                0x000000000006a758                DrvAlgo_IF_IQ_GetParaInitStatus
                0x000000000006a7a0                DrvAlgo_IF_IQ_SetFastMdoe
                0x000000000006a7ec                DrvAlgo_IF_IQ_GetFastMdoe
                0x000000000006a834                DrvAlgo_IF_IQ_SetMode
                0x000000000006a848                DrvAlgo_IF_IQ_GetMode
                0x000000000006a85c                DrvAlgo_IF_IQ_Getind
                0x000000000006a870                DrvAlgo_IF_IQ_SetAPIBypassMode
                0x000000000006a8bc                DrvAlgo_IF_IQ_GetAPIBypassMode
                0x000000000006a8e8                DrvAlgo_IF_IQ_SetEnSysMcnrMemory
                0x000000000006a8f0                DrvAlgo_IF_IQ_GetEnSysMcnrMemory
                0x000000000006a8f2                DrvAlgo_IF_IQ_GetLinearityLUT
                0x000000000006a8f4                DrvAlgo_IF_IQ_GetOBCCALIB
                0x000000000006a920                DrvAlgo_IF_IQ_GetCCMInfo
                0x000000000006a994                DrvAlgo_IF_IQ_SetDEMOSAIC
                0x000000000006a9c0                DrvAlgo_IF_IQ_GetDEMOSAIC
                0x000000000006a9e4                DrvAlgo_IF_IQ_SetColorToGray
                0x000000000006aa0c                DrvAlgo_IF_IQ_GetColorToGray
                0x000000000006aa2c                DrvAlgo_IF_IQ_SetLightness
                0x000000000006aa58                DrvAlgo_IF_IQ_GetLightness
                0x000000000006aa7c                DrvAlgo_IF_IQ_SetContrast
                0x000000000006aaa8                DrvAlgo_IF_IQ_GetContrast
                0x000000000006aacc                DrvAlgo_IF_IQ_SetBrightness
                0x000000000006aaf8                DrvAlgo_IF_IQ_GetBrightness
                0x000000000006ab1c                DrvAlgo_IF_IQ_SetGammaLUT
                0x000000000006ab48                DrvAlgo_IF_IQ_GetGammaLUT
                0x000000000006ab6c                DrvAlgo_IF_IQ_SetYUVGammaLUT
                0x000000000006ab98                DrvAlgo_IF_IQ_GetYUVGammaLUT
                0x000000000006abbc                DrvAlgo_IF_IQ_SetAdaptiveGamma
                0x000000000006abe8                DrvAlgo_IF_IQ_GetAdaptiveGamma
                0x000000000006ac0c                DrvAlgo_IF_IQ_SetSaturation
                0x000000000006ac38                DrvAlgo_IF_IQ_GetSaturation
                0x000000000006ac5c                DrvAlgo_IF_IQ_SetHue
                0x000000000006ac88                DrvAlgo_IF_IQ_GetHue
                0x000000000006acac                DrvAlgo_IF_IQ_SetDefog
                0x000000000006acd8                DrvAlgo_IF_IQ_GetDefog
                0x000000000006acfc                DrvAlgo_IF_IQ_SetRGBmatrix
                0x000000000006ad28                DrvAlgo_IF_IQ_GetRGBmatrix
                0x000000000006ad4c                DrvAlgo_IF_IQ_SetFalseColor
                0x000000000006ad78                DrvAlgo_IF_IQ_GetFalseColor
                0x000000000006ad9c                DrvAlgo_IF_IQ_SetNR3D
                0x000000000006adc8                DrvAlgo_IF_IQ_GetNR3D
                0x000000000006adec                DrvAlgo_IF_IQ_SetNR3D_P1
                0x000000000006ae18                DrvAlgo_IF_IQ_GetNR3D_P1
                0x000000000006ae3c                DrvAlgo_IF_IQ_SetNRDeSpike
                0x000000000006ae68                DrvAlgo_IF_IQ_GetNRDeSpike
                0x000000000006ae8c                DrvAlgo_IF_IQ_SetNRLuma
                0x000000000006aeb8                DrvAlgo_IF_IQ_GetNRLuma
                0x000000000006aedc                DrvAlgo_IF_IQ_SetNRChroma
                0x000000000006af08                DrvAlgo_IF_IQ_GetNRChroma
                0x000000000006af2c                DrvAlgo_IF_IQ_SetSharpness
                0x000000000006af58                DrvAlgo_IF_IQ_GetSharpness
                0x000000000006af7c                DrvAlgo_IF_IQ_SetCrossTalk
                0x000000000006afa8                DrvAlgo_IF_IQ_GetCrossTalk
                0x000000000006afcc                DrvAlgo_IF_IQ_SetDOBC
                0x000000000006aff8                DrvAlgo_IF_IQ_GetDOBC
                0x000000000006b01c                DrvAlgo_IF_IQ_SetOBC
                0x000000000006b048                DrvAlgo_IF_IQ_GetOBC
                0x000000000006b06c                DrvAlgo_IF_IQ_SetOBC_P1
                0x000000000006b098                DrvAlgo_IF_IQ_GetOBC_P1
                0x000000000006b0bc                DrvAlgo_IF_IQ_SetOBC_P2
                0x000000000006b0e8                DrvAlgo_IF_IQ_GetOBC_P2
                0x000000000006b10c                DrvAlgo_IF_IQ_SetWDR
                0x000000000006b138                DrvAlgo_IF_IQ_GetWDR
                0x000000000006b15c                DrvAlgo_IF_IQ_SetWDR_LCE
                0x000000000006b188                DrvAlgo_IF_IQ_GetWDR_LCE
                0x000000000006b1ac                DrvAlgo_IF_IQ_SetWDR_LTM
                0x000000000006b1d8                DrvAlgo_IF_IQ_GetWDR_LTM
                0x000000000006b1fc                DrvAlgo_IF_IQ_SetWDR_NR
                0x000000000006b228                DrvAlgo_IF_IQ_GetWDR_NR
                0x000000000006b24c                DrvAlgo_IF_IQ_SetWDRCurveAdv
                0x000000000006b278                DrvAlgo_IF_IQ_GetWDRCurveAdv
                0x000000000006b29c                DrvAlgo_IF_IQ_SetWDRCurveFull
                0x000000000006b2c8                DrvAlgo_IF_IQ_GetWDRCurveFull
                0x000000000006b2ec                DrvAlgo_IF_IQ_SetDynamicDP
                0x000000000006b318                DrvAlgo_IF_IQ_GetDynamicDP
                0x000000000006b33c                DrvAlgo_IF_IQ_SetDynamicDP_CLUSTER
                0x000000000006b368                DrvAlgo_IF_IQ_GetDynamicDP_CLUSTER
                0x000000000006b38c                DrvAlgo_IF_IQ_SetHSV
                0x000000000006b3b8                DrvAlgo_IF_IQ_GetHSV
                0x000000000006b3dc                DrvAlgo_IF_IQ_SetRGBIR
                0x000000000006b408                DrvAlgo_IF_IQ_GetRGBIR
                0x000000000006b42c                DrvAlgo_IF_IQ_SetThermalIR
                0x000000000006b458                DrvAlgo_IF_IQ_GetThermalIR
                0x000000000006b47c                DrvAlgo_IF_IQ_SetFPN
                0x000000000006b4a4                DrvAlgo_IF_IQ_GetFPN
                0x000000000006b4c4                DrvAlgo_IF_IQ_SetFPN_CTRL
                0x000000000006b4ec                DrvAlgo_IF_IQ_GetFPN_CTRL
                0x000000000006b50c                DrvAlgo_IF_IQ_SetDarkFrame
                0x000000000006b534                DrvAlgo_IF_IQ_GetDarkFrame
                0x000000000006b554                DrvAlgo_IF_IQ_SetPFC
                0x000000000006b580                DrvAlgo_IF_IQ_GetPFC
                0x000000000006b5a4                DrvAlgo_IF_IQ_SetCOLORTRANS
                0x000000000006b5d0                DrvAlgo_IF_IQ_GetCOLORTRANS
                0x000000000006b5f4                DrvAlgo_IF_IQ_SetCOLORTRANS_EX
                0x000000000006b620                DrvAlgo_IF_IQ_GetCOLORTRANS_EX
                0x000000000006b644                DrvAlgo_IF_IQ_SetHDR
                0x000000000006b670                DrvAlgo_IF_IQ_GetHDR
                0x000000000006b694                DrvAlgo_IF_IQ_SetEffect
                0x000000000006b6c0                DrvAlgo_IF_IQ_GetEffect
                0x000000000006b6e4                DrvAlgo_IF_IQ_SetLSC
                0x000000000006b710                DrvAlgo_IF_IQ_GetLSC
                0x000000000006b734                DrvAlgo_IF_IQ_SetLSC_CTRL
                0x000000000006b760                DrvAlgo_IF_IQ_GetLSC_CTRL
                0x000000000006b784                DrvAlgo_IF_IQ_SetALSC
                0x000000000006b7b0                DrvAlgo_IF_IQ_GetALSC
                0x000000000006b7d4                DrvAlgo_IF_IQ_SetALSC_CTRL
                0x000000000006b800                DrvAlgo_IF_IQ_GetALSC_CTRL
                0x000000000006b824                DrvAlgo_IF_IQ_SetDKSHAD
                0x000000000006b850                DrvAlgo_IF_IQ_GetDKSHAD
                0x000000000006b874                DrvAlgo_IF_IQ_SetR2Y
                0x000000000006b8a0                DrvAlgo_IF_IQ_GetR2Y
                0x000000000006b8c4                DrvAlgo_IF_IQ_SetNRLuma_Adv
                0x000000000006b8f0                DrvAlgo_IF_IQ_GetNRLuma_Adv
                0x000000000006b914                DrvAlgo_IF_IQ_SetAlscRel
                0x000000000006b940                DrvAlgo_IF_IQ_GetAlscRel
                0x000000000006b964                DrvAlgo_IF_IQ_SetNRChroma_Adv
                0x000000000006b990                DrvAlgo_IF_IQ_GetNRChroma_Adv
                0x000000000006b9b4                DrvAlgo_IF_IQ_SetNRChroma_Pre
                0x000000000006b9e0                DrvAlgo_IF_IQ_GetNRChroma_Pre
                0x000000000006ba04                DrvAlgo_IF_IQ_SetPFC_EX
                0x000000000006ba30                DrvAlgo_IF_IQ_GetPFC_EX
                0x000000000006ba54                DrvAlgo_IF_IQ_SetHDR_EX
                0x000000000006ba80                DrvAlgo_IF_IQ_GetHDR_EX
                0x000000000006baa4                DrvAlgo_IF_IQ_SetSHP_EX
                0x000000000006bad0                DrvAlgo_IF_IQ_GetSHP_EX
                0x000000000006baf4                DrvAlgo_IF_IQ_SetNR_3D_EX
                0x000000000006bb20                DrvAlgo_IF_IQ_GetNR_3D_EX
                0x000000000006bb44                DrvAlgo_IF_IQ_SetDUMMY
                0x000000000006bb70                DrvAlgo_IF_IQ_GetDUMMY
                0x000000000006bb94                DrvAlgo_IF_IQ_SetDUMMY_EX
                0x000000000006bbc0                DrvAlgo_IF_IQ_GetDUMMY_EX
                0x000000000006bbe4                DrvAlgo_IF_IQ_SetROI
                0x000000000006bc10                DrvAlgo_IF_IQ_GetROI
                0x000000000006bc34                DrvAlgo_IF_IQ_SetTEMP
                0x000000000006bc60                DrvAlgo_IF_IQ_GetTEMP
                0x000000000006bc84                DrvAlgo_IF_IQ_GetTEMP_INFO
                0x000000000006bca8                DrvAlgo_IF_IQ_SetCSA
                0x000000000006bcd4                DrvAlgo_IF_IQ_GetCSA
                0x000000000006bcf8                DrvAlgo_IF_IQ_SetYCLPF
                0x000000000006bd24                DrvAlgo_IF_IQ_GetYCLPF
                0x000000000006bd48                DrvAlgo_IF_IQ_SetALSC_ADJ
                0x000000000006bd74                DrvAlgo_IF_IQ_GetALSC_ADJ
                0x000000000006bd98                DrvAlgo_IF_IQ_SetWDRCURVE_HDR2LDR
                0x000000000006bdc4                DrvAlgo_IF_IQ_GetWDRCURVE_HDR2LDR
                0x000000000006bde8                DrvAlgo_IF_IQ_SetWDRCURVE_LDR2HDR
                0x000000000006be14                DrvAlgo_IF_IQ_GetWDRCURVE_LDR2HDR
                0x000000000006be38                DrvAlgo_IF_IQ_SetSTITCH_LPF
                0x000000000006be64                DrvAlgo_IF_IQ_GetSTITCH_LPF
                0x000000000006be88                DrvAlgo_IF_IQ_SetWDRCURVE_Param
                0x000000000006beac                DrvAlgo_IF_IQ_GetWDRCURVE_Param
                0x000000000006bed4                DrvAlgo_IF_IQ_SetAwbAlign
                0x000000000006bef8                DrvAlgo_IF_IQ_GetAwbAlign
                0x000000000006bf1c                DrvAlgo_IF_IQ_SetSceneDecision
                0x000000000006bf30                DrvAlgo_IF_IQ_GetSceneDecision
                0x000000000006bf44                DrvAlgo_IF_IQ_SetSceneIndex
                0x000000000006bf58                DrvAlgo_IF_IQ_GetSceneIndex
                0x000000000006bf6c                DrvAlgo_IF_IQ_SetSceneAdj
                0x000000000006bf80                DrvAlgo_IF_IQ_GetSceneAdj
                0x000000000006bf94                DrvAlgo_IF_IQ_GetSceneCurLevelInfo
                0x000000000006bfa8                DrvAlgo_IF_IQ_SetDecompress
                0x000000000006bfcc                DrvAlgo_IF_IQ_GetDecompress
                0x000000000006bff0                DrvAlgo_IF_IQ_GetAiBnrInfo
                0x000000000006c014                DrvAlgo_IF_IQ_SetAiBnrCtrl
                0x000000000006c038                DrvAlgo_IF_IQ_GetAiBnrCtrl
                0x000000000006c05c                DrvAlgo_IF_CALIv30_OB_CaliApply
                0x000000000006c074                DrvAlgo_IF_CALIv30_LSC_CaliApply
                0x000000000006c08c                DrvAlgo_IF_CALIv30_ALSC_CaliApply
                0x000000000006c0a4                DrvAlgo_IF_CALIv30_SDC_CaliApply
                0x000000000006c0bc                DrvAlgo_IF_CALIv40_AWB_CaliApply
                0x000000000006c0d4                DrvAlgo_IF_CALIv30_NE_CaliApply
                0x000000000006c0ec                DrvAlgo_IF_CALIv30_FPN_CaliApply
                0x000000000006c104                DrvAlgo_IF_CALIv30_AIBNR_CaliApply
                0x000000000006c11c                DrvAlgo_IQ_IF_ApiSet
                0x000000000006c6d0                DrvAlgo_IQ_IF_ApiGet
                0x000000000006cba6                IQ_API20_LogPrint
                0x000000000006cbaa                IQ_API20_SET_FPN
                0x000000000006cbae                IQ_API20_SET_SIIR
                0x000000000006ce50                IQ_API20_SET_XNR
                0x000000000006cfb8                IQ_API20_SET_MXNR
                0x000000000006cfba                IQ_API20_SET_NR3D
                0x000000000006d24c                IQ_API20_SET_NR3D_EX
                0x000000000006d24e                IQ_API20_SET_NR3D_P1
                0x000000000006d250                IQ_API20_SET_CCM
                0x000000000006d434                IQ_API20_SET_CTG
                0x000000000006d46c                IQ_API20_SET_YCUVM10
                0x000000000006d654                IQ_API20_SET_ADJUV
                0x000000000006d890                IQ_API20_SET_DOBC
                0x000000000006db00                IQ_API20_SET_OBC_P1
                0x000000000006dc1a                IQ_API20_SET_OBC_P2
                0x000000000006dc1e                IQ_API20_SET_GE
                0x000000000006dd00                IQ_API20_SET_SpikeNR
                0x000000000006de60                IQ_API20_SET_YEE
                0x000000000006e500                IQ_API20_SET_YEE_EX
                0x000000000006ea4a                IQ_API20_SET_DARKSHADING
                0x000000000006ea9c                LutGen_GAMA_EFFECT
                0x000000000006ec5c                IQ_API20_SET_YUVGAMA
                0x000000000006f000                IQ_API20_SET_NLM
                0x000000000006f004                IQ_API20_SET_GNR
                0x000000000006f59e                IQ_API20_SET_HSV
                0x000000000006faaa                LutGen_WDR_BG_WEIGHT
                0x000000000006fbe0                LutGen_WDR_BG2_TRANS
                0x000000000006fc22                LutGen_WDR_BG2_WEIGHT
                0x000000000006fd64                LutGen_WDR_BG2LY1_WEIGHT
                0x000000000006fe08                IQ_API20_SET_WDRCurveAdv
                0x000000000006fe0c                IQ_API20_SET_WDRCurveFull
                0x00000000000700a4                IQ_API20_SET_STITCH_LPF
                0x00000000000700d0                IQ_API20_SET_GAMA_C2A_ISP
                0x00000000000702e0                IQ_API20_SET_WDR_GBL
                0x00000000000702e4                IQ_API20_SET_PFC_EX
                0x00000000000702e8                IQ_API20_SET_DEFOG
                0x00000000000703e8                IQ_API20_SET_RGBIR
                0x0000000000070538                IQ_API20_SET_ThermalIR
                0x000000000007053c                IQ_API20_SET_R2Y
                0x000000000007059e                IQ_API20_SET_COLORTRANS
                0x000000000007081c                IQ_API20_SET_COLORTRANS_EX
                0x0000000000070938                IQ_API20_SET_ROI
                0x0000000000070a50                IQ_API20_SET_DECOMPRESS
                0x0000000000070ad2                IQ_API20_SET_LSC
                0x0000000000070b82                IQ_API20_SET_LSC_CTRL
                0x0000000000070b86                IQ_API20_SET_ALSC
                0x0000000000070f0e                IQ_API20_SET_ALSC_CTRL
                0x0000000000070f12                IQ_API20_SET_EFFECT
                0x0000000000070f16                IQ_API20_SET_DUMMY
                0x000000000007101c                IQ_API20_SET_TEMP
                0x0000000000071030                IQ_API20_SET_DARKFRAME
                0x0000000000071034                IQ_API20_SET_CSA
                0x0000000000071038                IQ_API20_SET_WDRCurveAlignHDRtoLDR
                0x000000000007103c                IQ_API20_SET_WDRCurveAlignLDRtoHDR
                0x0000000000071040                pIQ_Cali_OBC_Apply
                0x00000000000710b8                pIQ_Cali_ALSC_Apply
                0x00000000000717ac                pIQ_Cali_LSC_Apply
                0x0000000000071afc                pIQ_Cali_SDC_Apply
                0x0000000000071b02                pIQ_Cali_AWB_Apply
                0x0000000000071b06                pIQ_Cali_FPN_Apply
                0x0000000000071b0a                pIQ_Cali_NE_Apply
                0x0000000000071d8e                pIQ_Cali_AIBNR_Apply
                0x0000000000071e10                hal_IQ_API20_API2IP
                0x0000000000071e14                hal_IQ_API20_IP2API
                0x0000000000072128                hal_IQ_API20_EnGet
                0x00000000000724ac                hal_IQ_API20_InitFuncPtr
                0x00000000000724ae                hal_IQ_API20_InitParameters
                0x00000000000756e8                hal_IQ_API20_SET_ALL
                0x000000000007584c                IQ_API20_SET_DEMOSAIC
                0x00000000000759c4                IQ_API20_SET_FCOLOR
                0x0000000000075aa0                IQ_API20_SET_DPC
                0x0000000000075d98                IQ_API20_SET_DPC_CLUSTER
                0x0000000000075f90                IQ_API20_SET_WDR_LOC
                0x00000000000763c6                IQ_API20_SET_WDR_LTM
                0x00000000000767e0                IQ_API20_SET_DUMMY_EX
                0x0000000000076a84                IQ_API20_SET_WDR_NR
                0x0000000000076ca8                IQ_API20_SET_PFC
                0x0000000000076f30                IQ_API20_SET_HDR
                0x000000000007722c                IQ_API20_SET_HDR_EX
                0x0000000000077330                IQ_Get_cfgcnt
                0x0000000000077398                IQ_Get_cfgdata
                0x00000000000774cc                IQ_CFG_Print
                0x00000000000774d0                IQ_DoEffect
                0x00000000000774d4                IQ_DOINTER_TEMP
                0x0000000000077532                IQ_CCM_inter
                0x000000000007757c                IQ_CCM_multiplier
                0x00000000000776f0                IQ_CCM_SaturctionCalc
                0x0000000000077a8a                IQ_PARSE_CCM
                0x0000000000077b6c                IQ_INTERPA_CCM
                0x0000000000077de0                IQ_DOINTER_CCM
                0x0000000000078014                IQ_SET_CCM
                0x0000000000078184                IQ_INTERPA_HSV
                0x0000000000078272                IQ_DOINTER_HSV
                0x00000000000783ac                IQ_HSV_Update_Iqsub_ByIso
                0x0000000000078984                IQ_SET_HSV
                0x0000000000078ab0                IQ_SET_INIT
                0x0000000000078b0c                IQ_PARSE_ITP
                0x0000000000078b5c                IQ_SET_ITP
                0x0000000000078bb4                IQ_Patch_DECOMP
                0x0000000000078bb8                IQ_Patch_BNR
                0x0000000000078bbc                IQ_Patch_NR3D_calc_noise_profile
                0x0000000000078bc0                IQ_Patch_NR3D_calc_motion_th_gain
                0x0000000000078f54                IQ_Patch_NR3D
                0x00000000000791e4                IQ_Patch_NR3D_P1
                0x00000000000791e8                IQ_Patch_FPN
                0x00000000000791ec                IQ_Patch_FPN_P1
                0x00000000000791f0                IQ_Patch_DOBC
                0x000000000007936c                IQ_Patch_OBC_P1
                0x00000000000794e8                IQ_Patch_OBC_P2
                0x00000000000794ec                IQ_Patch_GAMA_16to16_ISP
                0x00000000000794f0                IQ_Patch_GAMA_C2C_P1_ISP
                0x00000000000794f4                IQ_Patch_LSC
                0x00000000000795c8                IQ_Patch_LSC_P1
                0x00000000000795cc                IQ_Patch_ALSC
                0x0000000000079d7e                IQ_Patch_ALSC_P1
                0x0000000000079d82                IQ_Patch_HDR
                0x0000000000079e94                IQ_Patch_GAMA_16to12
                0x000000000007a224                IQ_Patch_DPC
                0x000000000007a320                IQ_Patch_GE
                0x000000000007a324                IQ_Patch_ANTICT
                0x000000000007a398                IQ_Patch_RGBIR
                0x000000000007a3bc                IQ_Patch_GAMA_12to16
                0x000000000007a3c0                IQ_Patch_LOG
                0x000000000007a3c4                IQ_Patch_WDRLOC_calc_nr_th_gain
                0x000000000007a634                IQ_Patch_WDRCurveAlignHDRtoLDR
                0x000000000007acd0                IQ_Patch_WDRCurveAlignLDRtoHDR
                0x000000000007b16c                IQ_Patch_WDRLOC
                0x000000000007b20c                IQ_Patch_WDR_Parser_BG1_Hori
                0x000000000007b4c8                IQ_Patch_WDR_Parser_BG2_Hori
                0x000000000007b916                IQ_Patch_StitchFIRHori
                0x000000000007ba1c                IQ_Patch_WDR_Parser_BG1_Vert
                0x000000000007bcc8                IQ_Patch_WDR_Parser_BG2_Vert
                0x000000000007c0c6                IQ_Patch_StitchFIRVert
                0x000000000007c1d8                IQ_Patch_StitchFIRHoriVert
                0x000000000007c1de                IQ_Patch_StitchLPF
                0x000000000007c222                IQ_Patch_SpikeNR
                0x000000000007c28c                IQ_Patch_SDC
                0x000000000007c290                IQ_Patch_DM
                0x000000000007c294                IQ_Patch_GAMA_C2A_ISP
                0x000000000007c298                IQ_Patch_R2Y
                0x000000000007c29c                IQ_Patch_YC_CT
                0x000000000007c2a0                IQ_Patch_DARK_SHADING
                0x000000000007c2a4                IQ_Patch_DEFOG
                0x000000000007c2a8                IQ_Patch_NLM
                0x000000000007c2ac                IQ_Patch_XNR
                0x000000000007c2b0                IQ_Patch_ROI
                0x000000000007c314                IQ_Patch_YEE
                0x000000000007c3d4                IQ_Patch_YEE1
                0x000000000007c494                IQ_Patch_SIIR
                0x000000000007c498                IQ_Patch_ACLUT
                0x000000000007c49c                IQ_Patch_PFC
                0x000000000007c4a0                IQ_Patch_GNR
                0x000000000007c580                IQ_Patch_UVM
                0x000000000007c584                IQ_Patch_WDRGBL
                0x000000000007c588                IQ_Patch_LCE
                0x000000000007c58c                IQ_Patch_DLC
                0x000000000007c590                IQ_Patch_UVC
                0x000000000007c594                IQ_Patch_IXC
                0x000000000007c598                IQ_Patch_FCC
                0x000000000007c59c                IQ_Patch_ACK
                0x000000000007c5a0                IQ_Patch_ADJUV
                0x000000000007c5a4                IQ_Patch_MXNR
                0x000000000007c5a8                IQ_Patch_YUVGAMA
                0x000000000007c5ac                IQ_Patch_YCUVM10
                0x000000000007c698                IQ_Patch_COLORTRANS
                0x000000000007c69c                IQ_Patch_AIBNR
                0x000000000007c76a                IQ_IP_Bypass_ALL
                0x000000000007cb0c                IQ_Yuv2Bayer_Init
                0x000000000007cb2e                IQ_Yuv_Init
                0x000000000007cb48                hal_IQ_InitTriggerMode
                0x000000000007cc42                hal_IQ_InitIPstatus
                0x000000000007cc5c                hal_IQ_SetNeMode
                0x000000000007cc6a                hal_IQ_InitParameters
                0x000000000007ccb8                hal_IQ_Set_INIT
                0x000000000007ccce                hal_IQ_Set_ALL
                0x000000000008109c                hal_DoIQ
                0x0000000000081118                hal_IQ_AIBNR_CalcPrePostGain
                0x000000000008188c                hal_DoIQPerFrame
                0x0000000000081d20                hal_DoIqStitchLPF
                0x0000000000081d34                WriteRegs
                0x0000000000082358                IspRegSetINIT
                0x000000000008239c                IspRegSetDECOMP
                0x00000000000823ec                IspRegSetBNR
                0x00000000000823f0                IspRegSetNR3D
                0x00000000000829e8                IspRegSetNR3D_P1
                0x00000000000829ec                IspRegSetFPN
                0x00000000000829f0                IspRegSetFPN_P1
                0x00000000000829f4                IspRegSetDOBC
                0x000000000008304e                IspRegSetOBC_P1
                0x000000000008309c                IspRegSetOBC_P2
                0x00000000000830a0                IspRegSetGAMA_16to16_ISP
                0x00000000000830a4                IspRegSetGAMA_C2C_P1_ISP
                0x00000000000830a8                IspRegSetLSC
                0x0000000000083174                IspRegSetLSC_P1
                0x0000000000083178                IspRegSetALSC_MirrorFlipTbl
                0x0000000000083258                IspRegSetALSC_MirrorFlip
                0x000000000008337a                IspRegSetALSC_P1
                0x000000000008337e                IspRegSetUVM
                0x0000000000083382                IspRegSetDARK_SHADING
                0x0000000000083428                IspRegSetYC_CT
                0x0000000000083478                IspRegSetHDR
                0x00000000000839d4                IspRegSetGAMA_16to12
                0x0000000000083a24                IspRegSetDPC
                0x0000000000083a70                IspRegSetGE
                0x0000000000083a74                IspRegSetANTICT
                0x0000000000083ac4                IspRegSetRGBIR
                0x0000000000083b14                IspRegSetLOG
                0x0000000000083b18                IspRegSetGAMA_12to16
                0x0000000000083b1c                IspRegSetWDRLOC_LocalSizeEX
                0x0000000000083fa0                IspRegSetSpikeNR
                0x00000000000840f4                IspRegSetSDC
                0x00000000000840f8                IspRegSetDM
                0x0000000000084148                IspRegSetCCM
                0x0000000000084198                IspRegSetHSV
                0x00000000000841e8                IspRegSetR2Y
                0x0000000000084238                IspRegSetNLM
                0x000000000008423c                IspRegSetXNR
                0x000000000008428c                IspRegSetYEE
                0x0000000000084972                IspRegSetYEE1
                0x0000000000084a24                IspRegSetSIIR
                0x0000000000084aec                IspRegSetACLUT
                0x0000000000084af0                IspRegSetGNR
                0x0000000000084bd4                IspRegSetWDRGBL
                0x0000000000084bd8                IspRegSetLCE
                0x0000000000084bdc                IspRegSetDLC
                0x0000000000084be0                IspRegSetUVC
                0x0000000000084be4                IspRegSetIXC
                0x0000000000084be8                IspRegSetFCC
                0x0000000000084bec                IspRegSetACK
                0x0000000000084bf0                IspRegSetADJUV
                0x0000000000084c40                IspRegSetMXNR
                0x0000000000084c44                IspRegSetYCUVM10
                0x0000000000084c94                IspRegSetCOLORTRANS
                0x0000000000084cf4                IspMLoadSetFPN_DF
                0x0000000000084cf8                IspMLoadSetFPN
                0x0000000000084cfc                IspMLoadSetFPN_P1
                0x0000000000084d00                IspMLoadSetGAMA_16to16_ISP
                0x0000000000084d04                IspMLoadSetGAMA_C2C_P1_ISP
                0x0000000000084d08                IspMLoadSetALSC_H
                0x0000000000084d48                IspMLoadSetALSC_V
                0x0000000000084d90                IspMLoadSetALSC
                0x0000000000084e06                IspRegSetALSC
                0x0000000000084ff0                IspMLoadSetALSC_P1
                0x0000000000084ff4                IspMLoadSetWDRLOC
                0x0000000000085f86                IspRegSetWDRLOC
                0x00000000000865d0                IspMLoadSetDEFOG
                0x0000000000086720                IspRegSetDEFOG
                0x0000000000086780                IspMLoadSetPFC
                0x0000000000086ae4                IspRegSetPFC
                0x0000000000086b44                IspMLoadSetSDC
                0x0000000000086b48                IspMLoadSetGAMA_C2A_ISP
                0x0000000000086bc4                IspRegSetGAMA_C2A_ISP
                0x0000000000086c24                IspMLoadSetROIGAMA
                0x0000000000086cb2                IspRegSetROI
                0x0000000000086e0c                IspMLoadSetYUVGAMA
                0x0000000000086e9a                IspRegSetYUVGAMA
 .text          0x0000000000086ef8      0x20c /home/lixx/ZGCX/S1_Project/SSC308QE_SDK/Iford_IMD00V005.0.1_fastboot/SourceCode/SSC308QE_SDK_TEXT/SSC308QE_CODEBASE/sdk/linux/init/isp/isp_init.o
                0x0000000000086fa8                IspSysRegV2R
                0x0000000000086fb4                IspSysGetRegBase
                0x0000000000086fd4                DRV_ISP_MODULE_GetIrqNum
                0x0000000000086fe0                DRV_ISP_MODULE_TopIsp0Isr
                0x0000000000086ffc                DRV_ISP_MODULE_IspClkGenInit
                0x0000000000087010                DRV_ISP_MODULE_IspClkGenDeinit
                0x0000000000087014                DRV_ISP_MODULE_IspClockSuspend
                0x0000000000087040                DRV_ISP_MODULE_IspClockResume
                0x000000000008707c                DRV_ISP_MODULE_IspDriverInit
                0x00000000000870b0                DRV_ISP_MODULE_IspDriverExit
                0x00000000000870d0                DRV_ISP_MODULE_GetClkDev
                0x00000000000870e4                isp_mod_init
                0x00000000000870f4                isp_mod_exit
 .text          0x0000000000087104      0x578 /home/lixx/ZGCX/S1_Project/SSC308QE_SDK/Iford_IMD00V005.0.1_fastboot/SourceCode/SSC308QE_SDK_TEXT/SSC308QE_CODEBASE/sdk/linux/init/isp/ispmid_init.o
                0x00000000000872b4                LIBCAMERA_MODULE_IspGetRiuAddrBase
                0x00000000000872c0                LIBCAMERA_MODULE_GetMiuSelBoundry
                0x00000000000872c6                LIBCAMERA_MODULE_GetIspRootPath
                0x00000000000872d0                LIBCAMERA_MODULE_CameraReadIqData
                0x000000000008735c                LIBCAMERA_POLL_IspAddFeNode
                0x00000000000873b8                LIBCAMERA_MODULE_DriverInit
                0x00000000000873e0                LIBCAMERA_POLL_IspRemoveFeNode
                0x0000000000087408                LIBCAMERA_MODULE_DriverExit
                0x0000000000087428                LIBCAMERA_POLL_IspmidConfigFrameEvent
                0x0000000000087488                LIBCAMERA_POLL_IspmidFrameEvent
                0x00000000000874f8                LIBCAMERA_POLL_IspmidReopenEvent
                0x0000000000087544                LIBCAMERA_POLL_IspmidResumeEvent
                0x0000000000087590                LIBCAMERA_POLL_IspmidAlgoEvent
                0x000000000008762c                LIBCAMERA_POLL_IspmidDebugEvent
 .text          0x000000000008767c       0x2c /home/lixx/ZGCX/S1_Project/SSC308QE_SDK/Iford_IMD00V005.0.1_fastboot/SourceCode/SSC308QE_SDK_TEXT/SSC308QE_CODEBASE/sdk/linux/init/isp/mload_init.o
                0x000000000008767c                MloadWarperInit
                0x0000000000087698                MloadWarperDeInit
 .text          0x00000000000876a8     0x6a08 /home/lixx/ZGCX/S1_Project/SSC308QE_SDK/Iford_IMD00V005.0.1_fastboot/SourceCode/SSC308QE_SDK_TEXT/SSC308QE_CODEBASE/sdk/linux/init/ipu/../../obj/uclibc/9.1.0/ipu.o
                0x0000000000087828                MI_DEVICE_WrapperFunction_ipu
                0x0000000000087844                IS_PRINT_MATCH_ipu
                0x00000000000878a8                MI_DEVICE_Instance_ipu
                0x00000000000878b0                MI_DEVICE_GetSelfDir_ipu
                0x00000000000878be                ipu__module_init
                0x0000000000087988                ipu__module_exit
                0x0000000000089018                MI_IPU_IMPL_DeviceLock
                0x0000000000089034                MI_IPU_IMPL_DeviceUnlock
                0x000000000008904c                MI_IPU_IMPL_DeviceAliveStatus
                0x000000000008905c                MI_IPU_IMPL_GetChannelId
                0x00000000000890ac                MI_IPU_IMPL_PutChannelId
                0x000000000008910c                MI_IPU_IMPL_GetFwInfo
                0x0000000000089120                MI_IPU_IMPL_SetFwInfo
                0x0000000000089134                MI_IPU_IMPL_CreateDev
                0x0000000000089234                MI_IPU_IMPL_DestroyDev
                0x00000000000892ec                MI_IPU_IMPL_ResetDev
                0x0000000000089370                MI_IPU_IMPL_RecoverDevStat
                0x00000000000893f4                MI_IPU_IMPL_CheckImgEfuse
                0x00000000000893f8                MI_IPU_IMPL_SyncInterProcessRes
                0x0000000000089414                MI_IPU_IMPL_CreateCHN
                0x00000000000895a8                MI_IPU_IMPL_DestroyCHN
                0x00000000000896a8                MI_IPU_IMPL_Invoke
                0x0000000000089834                MI_IPU_IMPL_SetLibVer
                0x0000000000089848                MI_IPU_IMPL_CancelInvoke
                0x0000000000089870                MI_IPU_Invoke_ByKernel
                0x0000000000089b48                MI_IPU_TrackThreadInit
                0x0000000000089bb0                MI_IPU_TrackThreadExit
                0x0000000000089c80                MI_IPU_Init
                0x0000000000089dbc                MI_IPU_Deinit
                0x0000000000089ee8                MI_IPU_CCIF_dev_init
                0x0000000000089f10                MI_IPU_CCIF_dev_deinit
                0x000000000008aad0                hal_swdisp_isr_handle
                0x000000000008ab18                Swdisp_Pa2Va
                0x000000000008abc4                MI_IPU_Init_GlobalVar
                0x000000000008ac5c                MI_IPU_Deinit_GlobalVar
                0x000000000008accc                MI_IPU_DevInUse_Lock
                0x000000000008acdc                MI_IPU_DevInUse_Unlock
                0x000000000008acec                MI_IPU_Mapping_Riu_ChipTop_IPU_Space
                0x000000000008ad64                MI_IPU_Unmap_ChipTop_IPU_Space
                0x000000000008ad8c                MI_IPU_Shutdown_SysTop
                0x000000000008ad9c                MI_IPU_SaveDevPower
                0x000000000008ae0c                MI_IPU_RestoreDevPower
                0x000000000008aeec                MI_IPU_Update_IpuLog_Param
                0x000000000008af04                MI_IPU_Update_SerialMode
                0x000000000008af18                _MI_IPU_Memset_DTCM
                0x000000000008af54                MI_IPU_Create_Dev
                0x000000000008b088                MI_IPU_Destroy_Dev
                0x000000000008b184                MI_IPU_Suspend_Dev
                0x000000000008b1a0                MI_IPU_Resume_Dev
                0x000000000008b1bc                MI_IPU_Track_SuspendQueue_Process
                0x000000000008b200                MI_IPU_Reset_Dev
                0x000000000008b274                MI_IPU_Recover_DevStat
                0x000000000008b298                MI_IPU_PostTask
                0x000000000008bf50                MI_IPU_CancelTask
                0x000000000008bfd8                MI_IPU_Get_Util
                0x000000000008bfec                MI_IPU_Invoke_Done
                0x000000000008c108                invoke_done_notify_cpu
                0x000000000008c170                hal_ipudone_to_riscv_isr
                0x000000000008c1c0                MI_IPU_CancelTaskDone
                0x000000000008c224                MI_IPU_WakeUp_Pending_Task
                0x000000000008c3bc                get_core_mask_of_queue
                0x000000000008c3d6                update_core_stat_of_queue
                0x000000000008c42a                enqueue_task_pure
                0x000000000008c450                dequeue_task_pure
                0x000000000008c476                enqueue_task
                0x000000000008c4b0                dequeue_task
                0x000000000008c4f0                wake_up_next_task
                0x000000000008c5c0                wake_up_first_task
                0x000000000008c638                wake_up_task
                0x000000000008c690                give_up_task
                0x000000000008c6d6                MI_IPU_Calc_Task_Weight
                0x000000000008c6d8                recover_core_stat_of_queue
                0x000000000008c706                suspend_task_queue
                0x000000000008c748                resume_task_queue
                0x000000000008c792                update_task_queue
                0x000000000008c7ea                check_core_stat_of_queue
                0x000000000008c822                cancel_task
                0x000000000008c8f4                swdisp_io_remap
                0x000000000008c8f8                sgs_swdisp_initOfflineInfo
                0x000000000008c90c                sgs_swdisp_dispatchCallbackOffline
                0x000000000008c960                sgs_swdisp_deinitOfflineInfo
                0x000000000008c978                Get_SR256_Value
                0x000000000008c99e                Set_SR256_Value
                0x000000000008c9c4                sgs_swdisp_RoiPooling_param
                0x000000000008cfb8                sgs_swdisp_PsRoiPooling_param
                0x000000000008d35c                Hal_Ipu_CtrlInit
                0x000000000008d3c4                Hal_Ipu_ClearSwdispIrq
                0x000000000008d3e0                Hal_Ipu_GetSwdispIrqStatus
                0x000000000008d3f8                Hal_Ipu_UnmaskSwdispIrq
                0x000000000008d414                Hal_Ipu_MaskSwdispIrq
                0x000000000008d430                Hal_Ipu_GetSwdispTask
                0x000000000008d450                Hal_Ipu_Trigger
                0x000000000008d4b4                Hal_Ipu_GetIpuDoneIrqStat
                0x000000000008d4cc                Hal_Ipu_ClearIpuDoneIrq
                0x000000000008d4e4                Hal_Ipu_UnmaskIpuDoneIrq
                0x000000000008d4fc                Hal_Ipu_GetEndTaskIrqStat
                0x000000000008d514                Hal_Ipu_TriggerEndTask
                0x000000000008d534                Hal_Ipu_FinishEndTask
                0x000000000008d54c                Hal_Ipu_UnmaskEndTaskIrq
                0x000000000008d564                Hal_Ipu_GetIpuDoneCycle
                0x000000000008d57c                Hal_Ipu_EnabePipoArb
                0x000000000008d5aa                Hal_Ipu_DmaParaInit
                0x000000000008d644                Hal_Ipu_DmaStatisticsEnable
                0x000000000008d674                Hal_Ipu_DmaStatisticsReset
                0x000000000008d69c                Hal_Ipu_DmaGetMemStatisticsInBytes
                0x000000000008d6a0                Hal_Ipu_L3DmaGetMemStatisticsInBytes
                0x000000000008d6a2                Hal_Ipu_DmaSetMmucfg
                0x000000000008d6d8                Hal_Ipu_MonitorBusClkInit
                0x000000000008d6f8                Hal_Ipu_DmaGetEmiStatisticsByMonitorBus
                0x000000000008d728                Hal_Ipu_SrWriteEnable
                0x000000000008d744                Hal_Ipu_SrWriteDisable
                0x000000000008d760                Hal_Ipu_TimerStart
                0x000000000008d798                Hal_Ipu_LogStart
                0x000000000008d7fc                Hal_Ipu_GetLogBufferFullStatus
                0x000000000008d814                Hal_Ipu_LogStop
                0x000000000008d96e                Hal_Ipu_GetDevInstance
                0x000000000008d97c                Hal_Ipu_TimerInit
                0x000000000008d98a                Hal_Ipu_WorkModeInit
                0x000000000008d9b8                Hal_Ipu_Get_Br
                0x000000000008d9d4                Hal_Ipu_SetIO
                0x000000000008da50                Hal_Ipu_PowerOn
                0x000000000008daf4                Hal_Ipu_MaskDlaIrq
                0x000000000008db00                Hal_Ipu_ConfigIrq
                0x000000000008db30                Hal_Ipu_ChipTopReleaseDla
                0x000000000008db40                Hal_Ipu_DisableIsoEn
                0x000000000008db54                Hal_Ipu_ChipTopPowerOn
                0x000000000008db8c                Hal_Ipu_PowerOnByCore
                0x000000000008dba8                Hal_Ipu_DisableIpu
                0x000000000008dbaa                Hal_Ipu_PowerOffByCore
                0x000000000008dbae                Hal_Ipu_ChipTopPowerOff
                0x000000000008dbce                Hal_Ipu_MtcmosPowerOff
                0x000000000008dc64                Hal_Ipu_MtcmosPowerOn
                0x000000000008dd18                Hal_Ipu_TopClockOn
                0x000000000008dd36                Hal_Ipu_TopClockOff
                0x000000000008dd54                Hal_Ipu_Memcpy_toio
                0x000000000008dd8a                Hal_Ipu_Memcpy_fromio
                0x000000000008ddc8                Hal_Ipu_SrSetValue
                0x000000000008de8c                Hal_Ipu_SrGetValue
                0x000000000008df54                Hal_Ipu_CmodelSetMmuEmiAddr
                0x000000000008df88                Hal_Ipu_DevInit
                0x000000000008e008                Hal_Ipu_ScalingFreq
                0x000000000008e05c                Hal_Ipu_ChipTopPowerOnPrivate
                0x000000000008e06c                Hal_Ipu_PowerOnPll
                0x000000000008e078                Hal_Ipu_PowerOffPll
                0x000000000008e084                Hal_Ipu_ClearL2Mem
                0x000000000008e098                Hal_Ipu_ClearBiasMem
                0x000000000008e0ac                MI_IPU_CheckIpuTimeout
                0x000000000008e0ae                MI_IPU_ShowIpuStatus
 .text          0x000000000008e0b0       0xcc /home/lixx/ZGCX/S1_Project/SSC308QE_SDK/Iford_IMD00V005.0.1_fastboot/SourceCode/SSC308QE_SDK_TEXT/SSC308QE_CODEBASE/sdk/linux/init/ipu/ipu_init.o
                0x000000000008e0b0                MI_IPU_Scaling_Freq
                0x000000000008e0bc                MI_IPU_ParseIrq
                0x000000000008e110                MI_IPU_GetPllClk
                0x000000000008e148                MI_IPU_LinuxInit
                0x000000000008e158                MI_IPU_Iounmap_Wrapper
                0x000000000008e15c                ipu_mod_init
                0x000000000008e16c                ipu_mod_exit
 *fill*         0x000000000008e17c        0x4 
 .text          0x000000000008e180    0x268ec /home/lixx/ZGCX/S1_Project/SSC308QE_SDK/Iford_IMD00V005.0.1_fastboot/SourceCode/SSC308QE_SDK_TEXT/SSC308QE_CODEBASE/sdk/linux/init/sys/../../obj/uclibc/9.1.0/sys.o
                0x000000000008f2fc                IS_PRINT_MATCH_sys
                0x000000000008f66c                MI_DEVICE_WrapperFunction_sys
                0x000000000008f684                MI_DEVICE_Instance_sys
                0x000000000008f68c                MI_DEVICE_GetSelfDir_sys
                0x000000000008f6d2                sys__module_init
                0x000000000008f798                sys__module_exit
                0x000000000008fe44                _MI_SYS_IMPL_OutputUsrBufOnBufRefRelFunc
                0x000000000008fe78                _MI_SYS_IMPL_UserPutInputPortBufRefCB
                0x0000000000090148                MI_SYS_IMPL_HwTimer
                0x0000000000091394                MI_SYS_IMPL_bInternalBusExchgmode
                0x000000000009139c                MI_SYS_IMPL_bLowLatencyKickOff
                0x00000000000913a4                MI_SYS_IMPL_GetChnBufInfo
                0x0000000000091540                MI_SYS_IMPL_ChnGetBufHandleType
                0x0000000000091588                MI_SYS_IMPL_ChnGetBufHandleInfo
                0x00000000000915d0                MI_SYS_IMPL_ChnDupBufHandle
                0x00000000000917bc                MI_SYS_IMPL_MmapBufToMultiUserVirAddr
                0x0000000000091868                MI_SYS_IMPL_UnmapBufToMultiUserVirAddr
                0x00000000000918e8                MI_SYS_IMPL_FlushRealTimeOutputBuf
                0x0000000000091a1c                _MI_SYS_IMPL_InitChannel
                0x0000000000091afc                _MI_SYS_IMPL_GetInputPortInfo
                0x0000000000091c84                MI_SYS_Mma_GetOutputPortInfo
                0x0000000000091e30                _MI_SYS_IMPL_GetModDevInfoById
                0x0000000000091e90                MI_SYS_IMPL_GetChnBufInfo2
                0x0000000000091eaa                MI_SYS_IMPL_GetDevChnInfo
                0x0000000000091f20                _MI_SYS_IMPL_UserGetOutputPortBuf
                0x0000000000091f7c                _MI_SYS_IMPL_MemCacheCreate
                0x0000000000092050                _MI_SYS_IMPL_MemCacheDestroy
                0x00000000000920c0                _MI_SYS_IMPL_UserGetInputPortBuf
                0x00000000000922f0                MI_SYS_IMPL_CheckExitReady
                0x00000000000923bc                MI_SYS_IMPL_Exit
                0x0000000000092544                MI_SYS_IMPL_UserSetChnOutPortBufExtConf
                0x0000000000092608                MI_SYS_IMPL_SetChnOutputPortUserFrc
                0x00000000000926f8                MI_SYS_IMPL_GetInputPortFrc
                0x00000000000927d8                MI_SYS_IMPL_SetInputPortFrc
                0x0000000000092924                MI_SYS_IMPL_QueryDevChnPortState
                0x0000000000092a60                MI_SYS_IMPL_InjectBuf
                0x0000000000092be0                MI_SYS_IMPL_GetVersion
                0x0000000000092c0c                MI_SYS_IMPL_Init
                0x0000000000092e8c                MI_SYS_IMPL_GetCurPts
                0x0000000000093030                MI_SYS_IMPL_InitPtsBase
                0x0000000000093090                MI_SYS_IMPL_SyncPts
                0x0000000000093094                MI_SYS_IMPL_SetReg
                0x0000000000093130                MI_SYS_IMPL_GetReg
                0x00000000000931c0                MI_SYS_IMPL_SetChnMMAConf
                0x0000000000093358                MI_SYS_IMPL_GetChnMMAConf
                0x000000000009347c                _MI_SYS_IMPL_GetInputportPeer
                0x00000000000934c2                MI_SYS_IMPL_GetBindbyDest
                0x0000000000093510                MI_SYS_IMPL_SetChnOutputPortDepth
                0x000000000009361c                MI_SYS_IMPL_GetChnOutputPortDepth
                0x000000000009368c                MI_SYS_IMPL_EnableChnOutputPortLowLatency
                0x0000000000093708                MI_SYS_IMPL_ChnOutputPortGetBuf
                0x0000000000093964                MI_SYS_IMPL_ChnOutputPortPutBuf
                0x0000000000093a60                MI_SYS_IMPL_ChnInputPortGetBuf
                0x0000000000093c6c                MI_SYS_IMPL_ChnInputPortPutBuf
                0x0000000000093dd8                MI_SYS_IMPL_EnableUserPicture
                0x0000000000093f6c                MI_SYS_IMPL_ChnInputPortSetUserPicture
                0x00000000000941e8                MI_SYS_IMPL_DisableUserPicture
                0x0000000000094490                _MI_SYS_IMPL_DeInitInputPort
                0x000000000009478c                _MI_SYS_IMPL_DeInitOutputPort
                0x0000000000094b04                _MI_SYS_IMPL_DeinitChannel
                0x0000000000094ba0                MI_SYS_IMPL_FreeUsrProcessBufByModule
                0x0000000000094d48                MI_SYS_IMPL_RegisterDev
                0x0000000000094fe4                MI_SYS_IMPL_RegisterDevRel
                0x00000000000950c4                MI_SYS_Mprotect_IsEnableMiuProtect
                0x00000000000950d0                MI_SYS_IMPL_FlushInputPortTasks
                0x0000000000095224                _MI_SYS_IMPL_BindChannelPort
                0x00000000000957b4                _MI_SYS_IMPL_UnBindChannelPort
                0x0000000000095d78                MI_SYS_IMPL_UnRegisterDev
                0x0000000000095ea4                MI_SYS_IMPL_EnableOutputPort
                0x0000000000095eb8                MI_SYS_IMPL_DisableOutputPort
                0x0000000000095fc8                MI_SYS_IMPL_SetMaxEnqueueTasks
                0x0000000000096030                MI_SYS_IMPL_SetOutputPortBufExtConf
                0x00000000000960b0                MI_SYS_IMPL_GetOutputPortBufExtConf
                0x00000000000961a4                MI_SYS_IMPL_SetOutputPortBufClearConf
                0x000000000009622c                MI_SYS_IMPL_SetInputPortBufExtConf
                0x00000000000962bc                MI_SYS_IMPL_GetInputPortBufExtConf
                0x00000000000963e0                MI_SYS_IMPL_SetInputPortBufClearConf
                0x0000000000096468                MI_SYS_IMPL_EnableInputPort
                0x0000000000096478                MI_SYS_IMPL_BindAndEnableAllInnerPasses
                0x0000000000096670                MI_SYS_IMPL_SetInputPortSidebandMsg
                0x00000000000966ec                MI_SYS_IMPL_GetOutputPortSidebandMsg
                0x00000000000968b8                MI_SYS_IMPL_DisableInputPort
                0x0000000000096b18                MI_SYS_IMPL_UnBindAndDisableAllInnerPasses
                0x0000000000096c14                MI_SYS_IMPL_BindChnPortWithParam
                0x0000000000096dbc                MI_SYS_IMPL_BindChnPort
                0x0000000000096dec                MI_SYS_IMPL_UnBindChnPort
                0x000000000009701c                MI_SYS_IMPL_EnableChannel
                0x00000000000970d0                MI_SYS_IMPL_DisableChannel
                0x000000000009717c                MI_SYS_IMPL_SetInputPortUsrAllocator
                0x00000000000971a4                MI_SYS_IMPL_SetPeerOutputPortCusAllocator
                0x0000000000097224                MI_SYS_IMPL_ReadUuid
                0x0000000000097268                MI_SYS_IMPL_GetPollData
                0x00000000000972bc                MI_SYS_IMPL_GetModuleMMaHeapName
                0x00000000000973e0                MI_SYS_IMPL_GetDeviceBaseAddr
                0x0000000000097418                MI_SYS_IMPL_FreeMMAPReservedArea
                0x0000000000097490                MI_SYS_IMPL_GetPeerInputPortsBufExtConf
                0x000000000009754c                MI_SYS_IMPL_EarlyInitConfig
                0x0000000000097594                generic_allocation_on_ref
                0x00000000000975dc                generic_allocator_on_ref
                0x0000000000097614                generic_allocation_on_unref
                0x0000000000097668                generic_allocator_on_unref
                0x0000000000097e68                generic_allocation_on_release
                0x0000000000097f8c                generic_allocation_init
                0x0000000000097fd8                generic_allocator_init
                0x0000000000098020                MI_SYS_Buf_MgrFillBufinfo
                0x0000000000098340                MI_SYS_Buf_IsBufInfoMeetBufExtraConfigRequire
                0x00000000000983bc                MI_SYS_Buf_CreateBufref
                0x0000000000098474                MI_SYS_Buf_CreateRealtimeBufref
                0x0000000000098674                MI_SYS_Buf_MgrFillHwRingBufinfo
                0x0000000000098818                MI_SYS_Buf_ReleaseBufref
                0x0000000000098888                MI_SYS_Buf_DupBufref
                0x000000000009894c                MI_SYS_Buf_InitBufQueue
                0x000000000009897e                MI_SYS_Buf_DeinitBufQueue
                0x000000000009899e                MI_SYS_Buf_AddToQueueHead
                0x0000000000098a04                MI_SYS_Buf_AddToQueueTail
                0x0000000000098a6a                MI_SYS_Buf_RemoveFromQueueHead
                0x0000000000098ad2                MI_SYS_Buf_RemoveFromQueueTail
                0x0000000000098b3a                MI_SYS_Buf_RemoveFromQueue
                0x0000000000098bae                MI_SYS_Buf_MgrGetSize
                0x0000000000098cc8                MI_SYS_GetFrameBufSize
                0x0000000000098d58                MI_SYS_Buf_ClearFramebufPadingArea
                0x000000000009903c                MI_SYS_Buf_ClearFbcbufPadingArea
                0x0000000000099128                MI_SYS_PutModParaInfoArray
                0x000000000009916c                MI_SYS_GetModParaInfoArray
                0x000000000009935a                MI_SYS_Mma_AllocatorSuitBufconfig
                0x00000000000993a4                MI_SYS_Mma_AllocationVunmapKern
                0x00000000000995cc                MI_SYS_Mma_MmuCallback
                0x0000000000099772                MI_SYS_Mma_AllocatorOnRelease
                0x00000000000998d0                MI_SYS_Mma_AllocationUnmapUser
                0x00000000000999ec                MI_SYS_Mma_AllocationOnRelease
                0x0000000000099bc8                MI_SYS_Mma_AllocationMapUser
                0x0000000000099dc0                MI_SYS_Mma_AllocationVmapKern
                0x0000000000099e02                MI_SYS_Mma_AllocatorAlloc
                0x000000000009a20c                MI_SYS_Mma_CheckMmuListCoherence
                0x000000000009a2ac                MI_SYS_Mma_IsEnableMMU
                0x000000000009a2c8                MI_SYS_Mma_GetMainMmuAllocator
                0x000000000009a2d4                MI_SYS_Mma_MapVpaToPa
                0x000000000009a304                MI_SYS_Mma_UnMapVpaToPa
                0x000000000009a334                MI_SYS_Mma_MmapTotalSize
                0x000000000009a370                MI_SYS_Mma_AllocatorCreate
                0x000000000009ab78                MI_SYS_Mma_AllocatorDestory
                0x000000000009ac34                MI_SYS_Mma_AllocatorAssignEarlyInitOps
                0x000000000009ac36                MI_SYS_Mma_FindAllocationByPa
                0x000000000009ad48                MI_SYS_Mma_FindAllocatorByPa
                0x000000000009aed8                MI_SYS_Mma_Pa2Vpa
                0x000000000009af7c                MI_SYS_Mma_ExchangeBufInfo
                0x000000000009afe2                MI_SYS_Mma_AllocFromMmaAllocators
                0x000000000009b1ec                MI_SYS_Mma_IsEnableDebugMMU
                0x000000000009b4c8                MI_SYS_Chunk_StatMemoryUsagePrintk
                0x000000000009b724                MI_SYS_Chunk_Init
                0x000000000009b80c                MI_SYS_Chunk_DeInit
                0x000000000009b8cc                MI_SYS_Chunk_Alloc
                0x000000000009bc40                MI_SYS_Chunk_Free
                0x000000000009bf20                MI_SYS_Chunk_ExchangeBufinfo
                0x000000000009c2e0                MI_SYS_Mprotect_CpuBusAddrToMiuOffset
                0x000000000009c31c                MI_SYS_Mprotect_GetIdleBlockIndx
                0x000000000009c326                MI_SYS_Mprotect_SetAccessFromVpaOnly
                0x000000000009c32a                MI_SYS_Mprotect_SetMiuProtectIdList
                0x000000000009c4f8                MI_SYS_Mprotect_SetMiuProtect
                0x000000000009c5e4                MI_SYS_Mprotect_setMiuProtectMMa
                0x000000000009c8a4                MI_SYS_Mprotect_ResumeMiuProtect
                0x000000000009c97c                MI_SYS_Mprotect_DeleteKRange
                0x000000000009cc24                MI_SYS_Mprotect_AddKRange
                0x000000000009cf90                MI_SYS_Mprotect_InitGlobMiuKranges
                0x000000000009d100                MI_SYS_Mprotect_ExitGlobMiuKranges
                0x000000000009d198                MI_SYS_MProtect_GetMiuInfo
                0x000000000009da38                _MI_SYS_InferGraph_PosInList
                0x000000000009da4e                MI_SYS_InferGraph_ProcessChnPassNextInqueueTasks
                0x000000000009da6c                MI_SYS_InferGraph_EnsureInputPortFifoEmpty
                0x000000000009dcb0                MI_SYS_InferGraph_PmSyncChnPassDescent
                0x000000000009dd58                MI_SYS_InferGraph_KickoffRealTimeOutputTasks
                0x000000000009dd94                MI_SYS_InferGraph_KickoffDMABasedLowLatencyOutputTasks
                0x000000000009ddd0                MI_SYS_InferGraph_Finish_Output_Task
                0x000000000009de34                MI_SYS_InferGraph_ProcessChnPassNotifyReset
                0x000000000009de50                MI_SYS_InferGraph_InitDevPassDAGInfo
                0x000000000009de74                MI_SYS_InferGraph_DeInitDevPassDAGInfo
                0x000000000009de8e                MI_SYS_InferGraph_InitStaticInfo
                0x000000000009deba                MI_SYS_InferGraph_InitChnPassDAGInfo
                0x000000000009dee4                MI_SYS_InferGraph_DeInitChnPassDAGInfo
                0x000000000009dee6                MI_SYS_InferGraph_InitInputPortDAGInfo
                0x000000000009def2                MI_SYS_InferGraph_DeInitInputPortDAGInfo
                0x000000000009defa                MI_SYS_InferGraph_UpdateStatTimeInfo
                0x000000000009df54                MI_SYS_InferGraph_RecAction
                0x000000000009e06c                MI_SYS_InferGraph_DetermineDevRoleForCmdq
                0x000000000009e0ee                MI_SYS_InferGraph_OnBind
                0x000000000009e180                MI_SYS_InferGraph_OnUnBind
                0x000000000009e288                MI_SYS_Cmdq_AllocMma
                0x000000000009e2f8                MI_SYS_Cmdq_FreeMma
                0x000000000009e4e0                MI_SYS_Cmdq_DoneNotify
                0x000000000009e560                MI_SYS_Cmdq_ResetIsrNotify
                0x000000000009e5ec                MI_SYS_Cmdq_AllocateBuffer
                0x000000000009e6cc                MI_SYS_Cmdq_GetBufMap
                0x000000000009e6e8                MI_SYS_Cmdq_FreeBuffer
                0x000000000009e75c                MI_SYS_Cmdq_InitMmapInfo
                0x000000000009e784                MI_SYS_Cmdq_ExitMmapInfo
                0x000000000009e7b0                MI_SYS_Cmdq_GetFreeCMDQ
                0x000000000009e7e6                MI_SYS_Cmdq_DupCMDQ
                0x000000000009e7f4                MI_SYS_Cmdq_PutCMDQ
                0x000000000009e7fa                MI_SYS_Cmdq_KickOffCMDQ
                0x000000000009e8ac                MI_SYS_Cmdq_IsSWFenceDone
                0x000000000009e980                _MI_SYS_Cmdq_RegisterIsrCallBack
                0x000000000009e9c0                MI_SYS_Cmdq_GetCMDQ
                0x000000000009eba8                MI_SYS_Cmdq_Reset
                0x000000000009ebcc                MI_SYS_Cmdq_Suspend
                0x000000000009ebe4                MI_SYS_Cmdq_Resume
                0x000000000009f2e4                MI_SYS_Ringpool_Create
                0x000000000009f484                MI_SYS_Ringpool_FindRingPoolByRecord
                0x000000000009f4ba                MI_SYS_Ringpool_RingPoolUnref
                0x000000000009f5b0                MI_SYS_Ringpool_Destory
                0x000000000009f5e8                MI_SYS_Ringpool_GetTotalSpace
                0x000000000009f638                MI_SYS_Ringpool_EnsureTailSpace
                0x000000000009f700                MI_SYS_Ringpool_EnsureTailSpaceInISR
                0x000000000009f70e                MI_SYS_Ringpool_EnsureTailSpaceTimeout
                0x000000000009f7ae                MI_SYS_Ringpool_DumpRecordInfo
                0x000000000009f7e2                MI_SYS_Ringpool_GetHeadRecordInISR
                0x000000000009f7f6                MI_SYS_Ringpool_GetHeadRecordTimeout
                0x000000000009f89c                MI_SYS_Ringpool_PutHeadRecordTimeout
                0x000000000009f948                MI_SYS_Ringpool_PutHeadRecordWithPATimeout
                0x000000000009f9e8                MI_SYS_Ringpool_GetHeadRecordUnrelease
                0x000000000009fa8c                MI_SYS_Ringpool_ReleaseHeadRecord
                0x000000000009fbe4                MI_SYS_Ringpool_GetRecordTotalNum
                0x000000000009fc80                MI_SYS_Ringpool_GetRecordUnreadNum
                0x000000000009fd2c                MI_SYS_Ringpool_GetHeadRecordTotalNum
                0x000000000009fdd0                MI_SYS_Ringpool_AppendTailContentTailRecord
                0x00000000000a00ac                MI_SYS_Ringpool_CancelUnFinishedTailRecord
                0x00000000000a02c0                MI_SYS_Ringpool_ReleaseTailRecord
                0x00000000000a0410                MI_SYS_Ringpool_SetRecordMinAllocSize
                0x00000000000a048c                MI_SYS_Ringpool_ModifyStreamStartPa
                0x00000000000a0868                MI_SYS_Frc_ResetInputPort
                0x00000000000a08f0                MI_SYS_Frc_ResetOutputPort
                0x00000000000a0940                MI_SYS_Frc_InitInputPort
                0x00000000000a0944                MI_SYS_Frc_InitOutputPort
                0x00000000000a0948                MI_SYS_Frc_SetFrameRate
                0x00000000000a09dc                MI_SYS_Frc_StopReceivedFrame
                0x00000000000a09e4                MI_SYS_Frc_StartReceivedFrame
                0x00000000000a0a0c                MI_SYS_Frc_SetFrcAttr
                0x00000000000a0ac8                MI_SYS_Frc_GetFrcAttr
                0x00000000000a0afc                MI_SYS_Frc_RcAcceptBufDispatch
                0x00000000000a0bb4                MI_SYS_Frc_StepRcBufDispatch
                0x00000000000a0c3c                MI_SYS_Frc_RcAcceptBufAlloc
                0x00000000000a0d78                MI_SYS_Frc_StepRcBufAlloc
                0x00000000000a0e00                _MI_SYS_Frc_UpdateLastPeriodFR
                0x00000000000a0e78                MI_SYS_Frc_CalcInputPortFrameRate
                0x00000000000a0f20                MI_SYS_Frc_CalcOutputPortFrameRate
                0x00000000000a10bc                MI_SYS_Proc_StripFileName
                0x00000000000a1194                MI_SYS_Proc_FuncName
                0x00000000000a119c                MI_SYS_Proc_BugOn
                0x00000000000a11bc                MI_SYS_Proc_Print
                0x00000000000a13a4                MI_SYS_Proc_CommonRealGetSelfDir
                0x00000000000a13a6                MI_SYS_Proc_GetModuleOpsDelay
                0x00000000000a1418                MI_SYS_Proc_AllocatorCreate
                0x00000000000a14c8                MI_SYS_Proc_AllocatorRemove
                0x00000000000a1544                MI_SYS_Proc_DrvInit
                0x00000000000a159c                MI_SYS_Proc_DrvExit
                0x00000000000a15dc                MI_SYS_Debug_GetRefDbgParam
                0x00000000000a15e4                MI_SYS_Proc_DebugRegister
                0x00000000000a16a0                MI_SYS_Proc_DebugUnRegister
                0x00000000000a16d4                MI_SYS_Proc_DevCommonReg
                0x00000000000a17b4                MI_SYS_Proc_DevCommonUnReg
                0x00000000000a1830                MI_SYS_Proc_Debug_InitMod
                0x00000000000a1840                _MI_SYS_Timer_IrqHandler
                0x00000000000a189c                MI_SYS_Timer_Register
                0x00000000000a19d4                MI_SYS_Timer_Mod
                0x00000000000a1a08                MI_SYS_Timer_Enable
                0x00000000000a1a5c                MI_SYS_Timer_Disable
                0x00000000000a1ab8                MI_SYS_Timer_UnRegister
                0x00000000000a1b2c                MI_SYS_Directbuf_HeapProcExecCmd
                0x00000000000a1b40                MI_SYS_Directbuf_HeapAlloc
                0x00000000000a1c04                MI_SYS_Directbuf_HeapProcDumpAttr
                0x00000000000a1ce8                MI_SYS_Directbuf_HeapAllocatorCreate
                0x00000000000a1dec                MI_SYS_Dma_MemsetPa
                0x00000000000a1eb4                MI_SYS_Dma_MemcpyPa
                0x00000000000a1f6c                MI_SYS_Dma_MemcpyPaEx
                0x00000000000a2038                MI_SYS_Dma_BufFillPa
                0x00000000000a26cc                __min
                0x00000000000a26d4                MI_SYS_Dma_BufBlitPa
                0x00000000000a2dfc                MI_SYS_Sram_PreAllocBuf
                0x00000000000a2f94                MI_SYS_Sram_FreeBuf
                0x00000000000a3190                MI_SYS_Mma_ConfigModDevRingPrivateHeap
                0x00000000000a3354                MI_SYS_Mma_ConfigEarlyInitPrivateHeap
                0x00000000000a3358                MI_SYS_Mma_ConfigEarlyInitChnPortBufPrivateHeap
                0x00000000000a335c                MI_SYS_Mma_AllocByChn
                0x00000000000a3578                MI_SYS_Mma_Alloc
                0x00000000000a358e                MI_SYS_Mma_Free
                0x00000000000a364c                MI_SYS_Mma_ConfigDevChnPrivateHeap
                0x00000000000a3ab4                MI_SYS_Mma_PrivateDevChnHeapFree
                0x00000000000a3c2c                MI_SYS_Mma_PrivateDevChnHeapAlloc
                0x00000000000a3f18                MI_SYS_Mma_PrivateDevChnHeapAlloc2
                0x00000000000a3f5c                MI_SYS_Mma_PrivateDevChnHeapFree2
                0x00000000000a41a4                MI_SYS_Mma_ConfigChnPortBufPrivateHeap
                0x00000000000a4298                MI_SYS_Mma_ConfigPrivatePool
                0x00000000000a43e0                MI_SYS_Mma_AllocSubHeap
                0x00000000000a450c                MI_SYS_Mma_PhyAddrIsInMmaHeapRange
                0x00000000000a47e0                MI_SYS_Vma_DoGetTrueVa
                0x00000000000a47e2                MI_SYS_Vma_FlushInvCache
                0x00000000000a486c                MI_SYS_Vma_MmapToUserVirAddr
                0x00000000000a4a84                MI_SYS_Vma_UnMmapUserVirAddr
                0x00000000000a4bde                MI_SYS_Vma_DoMapUser
                0x00000000000a4be4                MI_SYS_Vma_Mmap
                0x00000000000a4cd8                MI_SYS_Vma_MmapBufToUser
                0x00000000000a5080                MI_SYS_Vma_DoUnmapUser
                0x00000000000a5096                MI_SYS_Vma_Munmap
                0x00000000000a5114                MI_SYS_Vma_MunmapBufToUser
                0x00000000000a53d4                MI_SYS_Vma_UserMap
                0x00000000000a54d0                MI_SYS_Vma_UserUnmap
                0x00000000000a54d2                MI_SYS_Vma_VmapKern
                0x00000000000a5604                MI_SYS_Vma_VunmapKern
                0x00000000000a5626                MI_SYS_Vma_Vmap
                0x00000000000a5668                MI_SYS_Vma_UnVmap
                0x00000000000a566c                MI_SYS_Vma_MapKernVa
                0x00000000000a608e                MI_SYS_Pass_OutputPortOnBufRefRelFunc
                0x00000000000a60e4                MI_SYS_Pass_InputPortOnUserInjectBufRefRelFunc
                0x00000000000a6130                MI_SYS_Pass_InputPortOnPipeInBufRefRelFunc
                0x00000000000a7500                MI_SYS_Pass_GetCurWorkingFifoInputQueueCnt
                0x00000000000a7552                MI_SYS_Pass_GetWorkingInputTaskCnt
                0x00000000000a7596                MI_SYS_Pass_GetLazzyRewindInputTaskCnt
                0x00000000000a75da                MI_SYS_Pass_GetWorkingOutputTaskCnt
                0x00000000000a761e                MI_SYS_Pass_GetFinishedOutputTaskCnt
                0x00000000000a7662                MI_SYS_Pass_DupBufrefIntoOutputDrvBkRefQueue
                0x00000000000a770c                MI_SYS_Pass_DupBufrefIntoInputDrvBkRefQueue
                0x00000000000a78a0                MI_SYS_Pass_DupBufrefIntoOutputFifoQueue
                0x00000000000a7b7c                MI_SYS_Pass_DupBufrefIntoBindInQueue
                0x00000000000a7c70                MI_SYS_Pass_DupBufrefIntoInjectQueue
                0x00000000000a7e6c                MI_SYS_Pass_InputPortRewindBuf
                0x00000000000a844c                MI_SYS_Pass_OnAllocationFreeCB
                0x00000000000a8668                MI_SYS_Pass_AllocBufDefaultPolicy
                0x00000000000a87c8                MI_SYS_Pass_EnsureOutportBKRefFifoDepth
                0x00000000000a8848                MI_SYS_Pass_EnsureInportBKRefFifoDepth
                0x00000000000a8886                MI_SYS_Pass_SetBufClearFlag
                0x00000000000a95ac                MI_SYS_Pass_FindDirectBufInfoByAddr
                0x00000000000a9ab0                MI_SYS_Pass_DoDirectBufTask
                0x00000000000a9cc0                MI_SYS_Pass_ExchangeBufInfo
                0x00000000000a9da0                MI_SYS_Pass_DropAndReleaseOutputTask
                0x00000000000aa4b8                MI_SYS_Pass_FinishOutputTasks
                0x00000000000aa56c                MI_SYS_Pass_EnqueueBufToInputPort
                0x00000000000aa744                MI_SYS_Pass_SyncDevConfig
                0x00000000000aa7e8                MI_SYS_Pass_RescursivelyResetDropInputOutputTasks
                0x00000000000aa87c                MI_SYS_Pass_DequeueInputOutputTasks
                0x00000000000ab574                MI_SYS_Pass_KickOffSyncInferencedDevPassInputBufs
                0x00000000000ab948                MI_SYS_Pass_TryProcessAsyncOutputTask
                0x00000000000ac09c                MI_SYS_Pass_InternalAsyncOutputWorkerThread
                0x00000000000ac2ca                MI_SYS_Pass_InternalMainWorkerThread
                0x00000000000ac9f8                MI_SYS_Pass_NotifySyncDevConfig
                0x00000000000acb58                MI_SYS_Pass_NotifyWakeupISREvent
                0x00000000000acbec                MI_SYS_Pass_NotifyWakeupForceCheck
                0x00000000000acc38                MI_SYS_ModParam_Init
                0x00000000000ad4e6                MHal_cmdq_DumpIrqErr
                0x00000000000ad564                MHal_cmdq_AnalysisCrashCommand
                0x00000000000ad76c                MHal_cmdq_PrintfCrashCommand
                0x00000000000ad858                CMDQ_Log_Get
                0x00000000000ad864                MHal_cmdq_SetBuffer
                0x00000000000adb8c                MHal_cmdq_CheckBufferAvailTimeout
                0x00000000000adc42                MHal_cmdq_GetAvailCmdqNumber
                0x00000000000add58                MHal_cmdq_InsertOneCommand
                0x00000000000ade50                MHal_cmdq_WriteCommandMask
                0x00000000000adf44                MHal_cmdq_WriteX32CommandMask
                0x00000000000ae8dc                MHal_cmdq_ServiceAllocBuf
                0x00000000000aea50                MHal_cmdq_PollEqCommandMaskByTime
                0x00000000000af64c                MHal_cmdq_GetCmdqHWNumber
                0x00000000000af650                MHal_cmdq_GetFreeId
                0x00000000000af658                MHal_cmdq_GetBridgeFreeId
                0x00000000000af6c4                MHal_cmdq_GetSpecificId
                0x00000000000af6c8                MHal_cmdq_ReleaseId
                0x00000000000af710                MHal_cmdq_InitCmdqMmapInfo
                0x00000000000af748                MHal_cmdq_DeinitCmdqMmapInfo
                0x00000000000af7bc                MHal_cmdq_GetSysCmdqService
                0x00000000000af8f0                MHal_cmdq_GetSysCmdqServiceBufferDirectMode
                0x00000000000af9c4                MHal_cmdq_ReleaseSysCmdqService
                0x00000000000afab0                MHal_cmdq_CreateMemoryScriptCmdq
                0x00000000000afcb4                MHal_cmdq_DestoryMemoryScriptCmdq
                0x00000000000afdb4                MHal_cmdq_GetMemCmdqBufAddr
                0x00000000000afdd8                MHal_cmdq_ReleaseSysCmdqServiceBufferDirectMode
                0x00000000000afec0                MHal_cmdq_HostControlSlave
                0x00000000000afff8                MHal_cmdq_HostAddWaitSlaveIdle
                0x00000000000b0030                MHal_cmdq_GetEarlyRunStatus
                0x00000000000b0058                MHal_cmdq_DirectModeEarlyRun
                0x00000000000b0194                MHal_cmdq_DirectModeEarlyRunStop
                0x00000000000b01fc                MHal_cmdq_DirectModeByteModeCmd
                0x00000000000b0294                MHal_cmdq_WriteCommandMaskMulti
                0x00000000000b035c                MHal_cmdq_WriteX32CommandMaskMulti
                0x00000000000b0418                MHal_cmdq_MemWriteCommandMaskMulti
                0x00000000000b05a0                MHal_cmdq_SetTimeoutByPriv
                0x00000000000b064e                MHal_cmdq_EnableRunCmdInt
                0x00000000000b0680                MHal_cmdq_WriteRegCmdqMaskWithInt
                0x00000000000b0738                MHal_cmdq_SetImiMode
                0x00000000000b0748                MHal_cmdq_Suspend
                0x00000000000b0824                MHal_cmdq_Resume
                0x00000000000b0970                DrvCmdqStatInit
                0x00000000000b09b4                DrvCmdqStatClear
                0x00000000000b09e8                DrvCmdqStatKickInfoPut
                0x00000000000b0a48                DrvCmdqStatCmdCountIncrease
                0x00000000000b0a68                CmdqReg32R
                0x00000000000b0a72                Hal_cmdq_GetBank
                0x00000000000b0a98                Hal_cmdq_Enable
                0x00000000000b0b00                Hal_cmdq_EnableTriggerBusSample
                0x00000000000b0b54                Hal_cmdq_Stop
                0x00000000000b0ba4                Hal_cmdq_Reset
                0x00000000000b0c28                Hal_cmdq_ResetAll
                0x00000000000b0c84                Hal_cmdq_GetEngineNumber
                0x00000000000b0cac                Hal_cmdq_SetEngineNumber
                0x00000000000b0d64                Hal_cmdq_SetMode
                0x00000000000b0e7c                Hal_cmdq_SetStartPointer
                0x00000000000b0ed0                Hal_cmdq_SetEndPointer
                0x00000000000b0f24                Hal_cmdq_SetTimer
                0x00000000000b0f98                Hal_cmdq_SetRatio
                0x00000000000b1010                Hal_cmdq_SetTimeout
                0x00000000000b1088                Hal_cmdq_SetIsrMsk
                0x00000000000b10dc                Hal_cmdq_GetIsrMsk
                0x00000000000b1114                Hal_cmdq_SetIsrMsk2
                0x00000000000b1168                Hal_cmdq_ResetSoftInterrupt
                0x00000000000b11c0                Hal_cmdq_ReadIdleDone
                0x00000000000b11f8                Hal_cmdq_EnableIdleNotify
                0x00000000000b1260                Hal_cmdq_ReadFinalIrq2
                0x00000000000b129c                Hal_cmdq_ByIdClrGroupIrq2
                0x00000000000b1300                Hal_cmdq_ClearIrqByFlag
                0x00000000000b138c                Hal_cmdq_ReadIrqStatus
                0x00000000000b1400                Hal_cmdq_ReadFinalIrqStatus
                0x00000000000b147c                Hal_cmdq_Start
                0x00000000000b14cc                Hal_cmdq_PrintAll
                0x00000000000b1780                Hal_cmdq_ReadDummyRegister
                0x00000000000b17b8                Hal_cmdq_WriteDummyRegister
                0x00000000000b1810                Hal_cmdq_ClearHwDummyRegister
                0x00000000000b184c                Hal_cmdq_GetDummyRegisterRiuAddr
                0x00000000000b1878                Hal_cmdq_GetDummy2RegisterRiuAddr
                0x00000000000b18a4                Hal_cmdq_GetCmdqRiuAddr
                0x00000000000b18cc                Hal_cmdq_ErrorCommand
                0x00000000000b19a8                Hal_cmdq_WritePointer
                0x00000000000b19e0                Hal_cmdq_ReadPointer
                0x00000000000b1a3c                Hal_cmdq_BuffReadPointer
                0x00000000000b1a70                Hal_cmdq_Reset2
                0x00000000000b1ac8                Hal_cmdq_GetHWDummyRegAddr
                0x00000000000b1ad8                Hal_cmdq_GetSWDummyRegAddr
                0x00000000000b1ae8                Hal_cmdq_GetRegBridge
                0x00000000000b1b24                Hal_cmdq_SetWeight
                0x00000000000b1c2c                Hal_cmdq_GetPhyTrigEvnt
                0x00000000000b1d8c                Hal_cmdq_ReleaseTrigBus
                0x00000000000b1dc0                Hal_cmdq_GetTrigEventStr
                0x00000000000b1e50                Hal_cmdq_PrintfTrigEvent
                0x00000000000b1eac                Hal_cmdq_GetDyTrigEventUsedNum
                0x00000000000b1eec                Hal_cmdq_EnableRunCmdInt
                0x00000000000b1f54                Hal_cmdq_SetImiMode
                0x00000000000b1fd4                HAL_CMDQ_GetInternalApis
                0x00000000000b1fdc                SsHtDefaultHash
                0x00000000000b1fe0                SsHtDefaultCompare
                0x00000000000b1fe4                SsHtIsEmpty
                0x00000000000b1ff6                SsHtIsInitialized
                0x00000000000b2002                SsHtMove
                0x00000000000b202c                SsHtIntSwap
                0x00000000000b2036                SsHtPointerSwap
                0x00000000000b2040                SsHtSwap
                0x00000000000b20a0                SsHtHash
                0x00000000000b20b6                SsHtEqual
                0x00000000000b20cc                SsHtContains
                0x00000000000b2106                SsHtLookup
                0x00000000000b2138                SsHtConstLookup
                0x00000000000b213c                SsHtShouldGrow
                0x00000000000b2148                SsHtShouldShrink
                0x00000000000b2152                SsHtCreateNode
                0x00000000000b21b0                SsHtPushFront
                0x00000000000b21d8                SsHtDestroyNode
                0x00000000000b2202                SsHtDestroy
                0x00000000000b2238                SsHtAllocate
                0x00000000000b2262                SsHtSetup
                0x00000000000b229c                SsHtCopy
                0x00000000000b2300                SsHtClear
                0x00000000000b2322                SsHtReHash
                0x00000000000b235c                SsHtReSize
                0x00000000000b238c                SsHtReserve
                0x00000000000b23c0                SsHtAdjustCapacity
                0x00000000000b23c8                SsHtInsert
                0x00000000000b243c                SsHtErase
                0x00000000000b24b4                Hal_cmdq_SetBank
                0x00000000000b2588                Hal_cmdq_GetBridgeGroup
                0x00000000000b2ff4                MI_SYS_PM_PostSuspendDevPass
                0x00000000000b2ffe                MI_SYS_PM_StrTryToFreeze
                0x00000000000b30c4                MI_SYS_PM_StrSuspend
                0x00000000000b310c                MI_SYS_PM_StrSuspendLate
                0x00000000000b3188                MI_SYS_PM_StrResumeEarly
                0x00000000000b3240                MI_SYS_PM_StrResume
                0x00000000000b3270                MI_SYS_PM_StrSuspendPrepare
                0x00000000000b33a0                MI_SYS_PM_StrPostSuspend
                0x00000000000b3476                MI_COMMON_Release
                0x00000000000b3554                MI_COMMON_WakeUpClient
                0x00000000000b359c                MI_COMMON_ReleasePollFd
                0x00000000000b35fc                MI_COMMON_GetPoll
                0x00000000000b36c0                MI_SYS_Poll_CreatePollDev
                0x00000000000b3754                MI_SYS_Poll_DestoryPollDev
                0x00000000000b378c                _MI_SYS_Ringbuf_HeapFillBufInfo
                0x00000000000b3a00                _MI_SYS_Ringbuf_HeapPostModifyBufConf
                0x00000000000b3a64                mi_sys_ringheap_allocator_create
                0x00000000000b3bc4                MI_SYS_Adaptor_AllocatorSuitBufconfig
                0x00000000000b3c04                MI_SYS_Adaptor_AllocationVunmapKern
                0x00000000000b3c30                MI_SYS_Adaptor_AllocatorAlloc
                0x00000000000b3e0c                MI_SYS_Adaptor_AllocatorOnRelease
                0x00000000000b3ee0                MI_SYS_Adaptor_AllocationUnmapUser
                0x00000000000b3fc4                MI_SYS_Adaptor_AllocationOnRelease
                0x00000000000b40c0                MI_SYS_Adaptor_AllocationMapUser
                0x00000000000b4180                MI_SYS_Adaptor_AllocationVMapKern
                0x00000000000b41b8                MI_SYS_Adaptor_AllocatorCreate
                0x00000000000b42b4                MI_SYS_Adaptor_AllocatorGetPrivateData
                0x00000000000b4354                MI_SYS_Meta_AllocatorSuitBufconfig
                0x00000000000b43dc                MI_SYS_Meta_AllocationUnmapUser
                0x00000000000b4414                mi_sys_meta_allocation_on_map_kern
                0x00000000000b4444                MI_SYS_Meta_AllocationOnUnmapKern
                0x00000000000b4450                mi_sys_meta_allocator_alloc
                0x00000000000b45a4                MI_SYS_Meta_AllocatorOnRelease
                0x00000000000b46e4                MI_SYS_Meta_AllocationOnRelease
                0x00000000000b47f4                mi_sys_meta_allocation_map_user
                0x00000000000b482c                mi_sys_meta_allocator_create
                0x00000000000b4a2c                MI_SYS_Buf_GetGlobalMetaAllocator
                0x00000000000b4a54                MI_SYS_Buf_DestroyGlobalMetaAllocator
 .text          0x00000000000b4a6c        0x0 /home/lixx/ZGCX/S1_Project/SSC308QE_SDK/Iford_IMD00V005.0.1_fastboot/SourceCode/SSC308QE_SDK_TEXT/SSC308QE_CODEBASE/sdk/linux/init/sys/cmdq_export.o
 .text          0x00000000000b4a6c      0x118 /home/lixx/ZGCX/S1_Project/SSC308QE_SDK/Iford_IMD00V005.0.1_fastboot/SourceCode/SSC308QE_SDK_TEXT/SSC308QE_CODEBASE/sdk/linux/init/sys/cmdq_init.o
                0x00000000000b4a6c                DrvCmdqGetIrqNum
                0x00000000000b4ae8                DrvCmdqGetClk
 .text          0x00000000000b4b84      0x718 /home/lixx/ZGCX/S1_Project/SSC308QE_SDK/Iford_IMD00V005.0.1_fastboot/SourceCode/SSC308QE_SDK_TEXT/SSC308QE_CODEBASE/sdk/linux/init/sys/sys_init.o
                0x00000000000b4bd0                MI_SYS_SetFreezable
                0x00000000000b4bd4                MI_SYS_TryToFreeze
                0x00000000000b4bd8                MI_SYS_IMPL_InitPmNotify
                0x00000000000b4be4                MI_SYS_IMPL_DeInitPmNotify
                0x00000000000b4bf0                MI_SYS_FreeReservedArea
                0x00000000000b4c0e                MI_SYS_GetPid
                0x00000000000b4c2c                MI_SYS_Buf_GetCurUserMapCtx
                0x00000000000b4c3e                MI_SYS_ShowTask
                0x00000000000b4cc4                parese_Cmdline
                0x00000000000b4dc8                MI_SYS_IMPL_ProcessFilePrivate
                0x00000000000b4e00                _MI_SYS_IMPL_FreeMMAPReservedArea
                0x00000000000b4e74                MI_SYS_Is_Va_Invalid
                0x00000000000b4f50                MI_SYS_Vma_Is_Va_Invalid
                0x00000000000b5058                MI_SYS_Is_KernVa_Invalid
                0x00000000000b50a0                MI_SYS_Pass_IsUnmapVmallocAddr
                0x00000000000b50f4                MI_SYS_IMPL_Va2Pa
                0x00000000000b5238                MI_SYS_GetIrqNum
                0x00000000000b5270                MI_SYS_FileGet
                0x00000000000b5274                MI_SYS_FilePrivGet
                0x00000000000b527a                MI_SYS_FilePut
                0x00000000000b527e                sys_mod_init
                0x00000000000b528c                sys_mod_exit
 *fill*         0x00000000000b529c        0x4 
 .text          0x00000000000b52a0    0x152b4 /home/lixx/ZGCX/S1_Project/SSC308QE_SDK/Iford_IMD00V005.0.1_fastboot/SourceCode/SSC308QE_SDK_TEXT/SSC308QE_CODEBASE/sdk/linux/init/disp/../../obj/uclibc/9.1.0/disp.o
                0x00000000000b5e4c                IS_PRINT_MATCH_disp
                0x00000000000b604c                MI_DEVICE_WrapperFunction_disp
                0x00000000000b6064                MI_DEVICE_Instance_disp
                0x00000000000b606c                MI_DEVICE_GetSelfDir_disp
                0x00000000000b607a                disp__module_init
                0x00000000000b6140                disp__module_exit
                0x00000000000b69ac                MI_DISP_PASS_SuspendNotify
                0x00000000000b6b08                MI_DISP_PASS_Suspend
                0x00000000000b6bb4                MI_DISP_PASS_Resume
                0x00000000000b6c84                MI_DISP_PASS_ResumeNotify
                0x00000000000b6c88                MI_DISP_PASS_GetDevMaxPortCnt
                0x00000000000b6c98                MI_DISP_PASS_NeedIndividualWorkThread
                0x00000000000b6c9c                MI_DISP_PASS_BarrierByPass
                0x00000000000b6ca0                MI_DISP_PASS_RejectCmdq
                0x00000000000b6cca                MI_DISP_PASS_OnConfigSramBuf
                0x00000000000b6d38                MI_DISP_PASS_OnAllowMoveableSram
                0x00000000000b6d3c                MI_DISP_PASS_OnPreProcessInputTask
                0x00000000000b6d42                MI_DISP_PASS_EnqueueInputTask
                0x00000000000b6e60                MI_DISP_PASS_BarrierInputTask
                0x00000000000b6e7c                MI_DISP_PASS_CheckInputTaskStatus
                0x00000000000b6f4c                MI_DISP_PASS_DequeueInputTask
                0x00000000000b6f50                MI_DISP_PASS_CheckOutputTaskStatus
                0x00000000000b6f54                MI_DISP_PASS_DequeueOutputTask
                0x00000000000b6f56                MI_DISP_PASS_OnGetInputPortBindCapability
                0x00000000000b6f6c                MI_DISP_PASS_OnGetOutputPortBindCapability
                0x00000000000b6f82                MI_DISP_PASS_OnBindInputPort
                0x00000000000b6fb8                MI_DISP_PASS_OnUnBindInputPort
                0x00000000000b6fe8                MI_DISP_PASS_OnBindOutputPort
                0x00000000000b6fec                MI_DISP_PASS_OnUnBindOutputPort
                0x00000000000b6ff0                MI_DISP_PASS_OnSyncDevConfig
                0x00000000000b7160                MI_DISP_PASS_WakeUpBySelf
                0x00000000000b7164                MI_DISP_PASS_OnCusFrcChanged
                0x00000000000b7336                MI_DISP_IMPL_GetVgaParam
                0x00000000000b8658                MI_DISP_IMPL_GetLcdParam
                0x00000000000b883c                MI_DISP_IMPL_SetVideoLayerRotateMode
                0x00000000000b9194                MI_DISP_IMPL_BindVideoLayer
                0x00000000000b940c                MI_DISP_IMPL_PauseInputPort
                0x00000000000b9568                MI_DISP_IMPL_ResumeInputPort
                0x00000000000b96c4                MI_DISP_IMPL_StepInputPort
                0x00000000000b9820                MI_DISP_IMPL_ClearInputPortBuffer
                0x00000000000b9988                MI_DISP_IMPL_SetZoomInWindow
                0x00000000000b9d20                MI_DISP_IMPL_ShowInputPort
                0x00000000000b9e9c                MI_DISP_IMPL_HideInputPort
                0x00000000000ba018                MI_DISP_IMPL_SetLcdParam
                0x00000000000ba168                MI_DISP_IMPL_DeviceSetColorTempeture
                0x00000000000ba214                MI_DISP_IMPL_SetCvbsParam
                0x00000000000ba216                MI_DISP_IMPL_GetCvbsParam
                0x00000000000ba218                MI_DISP_IMPL_SetHdmiParam
                0x00000000000ba21a                MI_DISP_IMPL_GetHdmiParam
                0x00000000000ba21c                MI_DISP_IMPL_SetVgaParam
                0x00000000000ba21e                MI_DISP_IMPL_Insmod
                0x00000000000ba238                MI_DISP_IMPL_Rmmod
                0x00000000000ba23c                MI_DISP_IMPL_Init
                0x00000000000ba278                MI_DISP_IMPL_DeInit
                0x00000000000ba2e0                MI_DISP_IMPL_Enable
                0x00000000000ba3b4                MI_DISP_IMPL_Disable
                0x00000000000ba57c                MI_DISP_IMPL_SetPubAttr
                0x00000000000ba6fc                MI_DISP_IMPL_GetPubAttr
                0x00000000000ba768                MI_DISP_IMPL_EnableVideoLayer
                0x00000000000ba824                MI_DISP_IMPL_DisableVideoLayer
                0x00000000000ba96c                MI_DISP_IMPL_SetVideoLayerAttr
                0x00000000000baa2c                MI_DISP_IMPL_GetVideoLayerAttr
                0x00000000000baa9c                MI_DISP_IMPL_SetVideoLayerAttrBatchBegin
                0x00000000000bab60                MI_DISP_IMPL_SetVideoLayerAttrBatchEnd
                0x00000000000bac88                MI_DISP_IMPL_UnBindVideoLayer
                0x00000000000bae78                MI_DISP_IMPL_SetPlayToleration
                0x00000000000bae7c                MI_DISP_IMPL_GetPlayToleration
                0x00000000000bae80                MI_DISP_IMPL_GetOutputTiming
                0x00000000000baf48                MI_DISP_IMPL_SetInputPortAttr
                0x00000000000bb098                MI_DISP_IMPL_GetInputPortAttr
                0x00000000000bb10c                MI_DISP_IMPL_EnableInputPort
                0x00000000000bb350                MI_DISP_IMPL_DisableInputPort
                0x00000000000bb4b0                MI_DISP_IMPL_SetInputPortDispPos
                0x00000000000bb688                MI_DISP_IMPL_GetInputPortDispPos
                0x00000000000bb7b4                MI_DISP_IMPL_SetInputPortSyncMode
                0x00000000000bb92c                MI_DISP_IMPL_QueryInputPortStat
                0x00000000000bba58                MI_DISP_IMPL_GetCurrentPts
                0x00000000000bbb54                MI_DISP_IMPL_DeviceGetColorTempeture
                0x00000000000bbbec                MI_DISP_IMPL_DeviceSetGammaParam
                0x00000000000bbd80                MI_DISP_IMPL_SetPowerConfig
                0x00000000000bbe80                MI_DISP_IMPL_WriteMipiDsiCmd
                0x00000000000bbe84                MI_DISP_IMPL_ReadMipiDsiCmd
                0x00000000000bbef0                MI_DISP_COMMON_GetTimestamp
                0x00000000000bbf4c                MI_DISP_COMMON_PrintPnlInfo
                0x00000000000bbf4e                MI_DISP_COMMON_GetArraySize
                0x00000000000bbf5e                MI_DISP_COMMON_GetStr
                0x00000000000bbf6e                MI_DISP_COMMON_GetIntWithExist
                0x00000000000bc4fc                MI_DISP_COMMON_GetFileSize
                0x00000000000bc584                MI_DISP_COMMON_ReadFile
                0x00000000000bc644                MI_DISP_COMMON_ParseToIntArray
                0x00000000000bc730                MI_DISP_COMMON_ParseToU8Array
                0x00000000000bc818                MI_DISP_COMMON_LoadPanelInfo
                0x00000000000bc904                MI_DISP_COMMON_ParseMiscInfo
                0x00000000000bc964                MI_DISP_COMMON_LoadMiscInfo
                0x00000000000bc9b0                MI_DISP_COMMON_ParsePQInfo
                0x00000000000bca2c                MI_DISP_COMMON_GetPqDataSize
                0x00000000000bca84                MI_DISP_COMMON_LoadPQInfo
                0x00000000000bcab8                MI_DISP_COMMON_GetPanelInfoCnt
                0x00000000000bcb30                MI_DISP_COMMON_GetMiscInfoCnt
                0x00000000000bcb50                MI_DISP_COMMON_Init
                0x00000000000bcc34                MI_DISP_COMMON_DeInit
                0x00000000000bcc90                MI_DISP_COMMON_GetPanelInfo
                0x00000000000bcca4                MI_DISP_COMMON_ConvertTimingToRes
                0x00000000000bcde8                MI_DISP_COMMON_GetLayerCapability
                0x00000000000bce40                MI_DISP_COMMON_GetInputPortBufConfig
                0x00000000000bce9c                MI_DISP_COMMON_IsValidLayerId
                0x00000000000bceb4                MI_DISP_COMMON_EnableInputPort
                0x00000000000bcf40                MI_DISP_COMMON_GetVideoLayerType
                0x00000000000bcf48                MI_DISP_COMMON_GetLayerPortCnt
                0x00000000000bcf5c                MI_DISP_COMMON_EnsureDoubleBufFired
                0x00000000000bcfba                MI_DISP_COMMON_SetChnRotateMode
                0x00000000000bd03c                MI_DISP_COMMON_InputVideoMute
                0x00000000000bd0b8                MI_DISP_COMMON_WaitCleanInputPortTaskDone
                0x00000000000bd148                MI_DISP_COMMON_DisableInputPort
                0x00000000000bd1e0                MI_DISP_COMMON_OpenFile
                0x00000000000bd24c                MI_DISP_COMMON_WriteFile
                0x00000000000bd298                MI_DISP_COMMON_CloseFile
                0x00000000000bd2dc                MI_DISP_COMMON_DumpFrameToFile
                0x00000000000bd344                MI_DISP_COMMON_CheckPreStreamStop
                0x00000000000bd398                MI_DISP_COMMON_CheckFrameBufIsValid
                0x00000000000bd450                MI_DISP_COMMON_CheckFenceDone
                0x00000000000bd468                MI_DISP_COMMON_CheckChnTaskDone
                0x00000000000bd4e0                MI_DISP_COMMON_PortStatusToChnStatus
                0x00000000000bd554                MI_DISP_COMMON_PerfStatistics
                0x00000000000bd654                MI_DISP_COMMON_GetDevRes
                0x00000000000bd6b0                MI_DISP_COMMON_GetLayerRes
                0x00000000000bd6dc                MI_DISP_COMMON_CreateVideoLayerRes
                0x00000000000bd794                MI_DISP_COMMON_GetChnRes
                0x00000000000bd7ca                MI_DISP_COMMON_DeviceSetBackGroundColor
                0x00000000000bd7ce                MI_DISP_COMMON_VideoLayerSetPriority
                0x00000000000bd7d2                MI_DISP_COMMON_GetWbcDevRes
                0x00000000000bd82c                MI_DISP_COMMON_IsFrameSyncMode
                0x00000000000bd84c                MI_DISP_PLATFORM_SupportCmdq
                0x00000000000bd850                MI_DISP_PLATFORM_SupportInterface
                0x00000000000bd862                MI_DISP_PLATFORM_SetSupportTiming
                0x00000000000bd894                MI_DISP_MODPARAM_Init
                0x00000000000bd980                MI_DISP_MODPARAM_DeInit
                0x00000000000bd984                DRV_DISP_OS_Printf
                0x00000000000bd9e8                DRV_DISP_OS_GetSystemTimeStamp
                0x00000000000bda38                DRV_DISP_OS_Split
                0x00000000000bda94                DRV_DISP_OS_SplitByToken
                0x00000000000bdaa2                DRV_DISP_OS_StrCmp
                0x00000000000bdabc                DRV_DISP_OS_CreateMutex
                0x00000000000bdaec                DRV_DISP_OS_DestroyMutex
                0x00000000000bdb18                DRV_DISP_OS_ObtainMutex
                0x00000000000bdb3c                DRV_DISP_OS_ReleaseMutex
                0x00000000000bdb60                DRV_DISP_OS_StrToL
                0x00000000000bdb72                DRV_DISP_OS_MathDivU64
                0x00000000000bdb80                DRV_DISP_OS_PadMuxGetMode
                0x00000000000bdc28                DRV_DISP_OS_GpioPadModeToPadIndex
                0x00000000000bdc2c                DRV_DISP_OS_GpioDrvSet
                0x00000000000bdc30                DRV_DISP_OS_GpioDrvGet
                0x00000000000bed64                DRV_DISP_IF_GetClk
                0x00000000000bedfc                DRV_DISP_IF_SetClk
                0x00000000000bf028                DRV_DISP_IF_InitPanelConfig
                0x00000000000bf1f8                DRV_DISP_IF_SetRegAccessConfig
                0x00000000000bf244                DRV_DISP_IF_SetRegFlipConfig
                0x00000000000bf288                DRV_DISP_IF_SetRegWaitDoneConfig
                0x00000000000bf2d4                DRV_DISP_IF_SetCmdqInterfaceConfig
                0x00000000000bf324                DRV_DISP_IF_DeviceCreateInstance
                0x00000000000bf3e4                DRV_DISP_IF_DeviceDestroyInstance
                0x00000000000bf498                DRV_DISP_IF_DeviceEnable
                0x00000000000bf4ec                DRV_DISP_IF_DeviceSetBackGroundColor
                0x00000000000bf53c                DRV_DISP_IF_DeviceAddOutInterface
                0x00000000000bf58c                DRV_DISP_IF_DeviceSetOutputTiming
                0x00000000000bf5e8                DRV_DISP_IF_DeviceSetColortemp
                0x00000000000bf634                DRV_DISP_IF_DeviceSetCvbsParam
                0x00000000000bf694                DRV_DISP_IF_DeviceGetCvbsParam
                0x00000000000bf700                DRV_DISP_IF_DeviceSetHdmiParam
                0x00000000000bf760                DRV_DISP_IF_DeviceGetHdmiParam
                0x00000000000bf7cc                DRV_DISP_IF_DeviceSetLcdParam
                0x00000000000bf82c                DRV_DISP_IF_DeviceGetLcdParam
                0x00000000000bf898                DRV_DISP_IF_DeviceSetVgaParam
                0x00000000000bf8f8                DRV_DISP_IF_DeviceGetVgaParam
                0x00000000000bf964                DRV_DISP_IF_DeviceSetGammaParam
                0x00000000000bf9b0                DRV_DISP_IF_DeviceAttach
                0x00000000000bfa0c                DRV_DISP_IF_DeviceDetach
                0x00000000000bfa68                DRV_DISP_IF_DeviceGetTimeZone
                0x00000000000bfab8                DRV_DISP_IF_DeviceSetTimeZoneConfig
                0x00000000000bfb04                DRV_DISP_IF_DeviceGetDisplayInfo
                0x00000000000bfb58                DRV_DISP_IF_DeviceGetInstance
                0x00000000000bfb94                DRV_DISP_IF_DeviceSetPqConfig
                0x00000000000bfbf4                DRV_DISP_IF_DeviceGetHwCount
                0x00000000000bfc54                DRV_DISP_IF_SetDeviceConfig
                0x00000000000bfcc4                DRV_DISP_IF_GetDeviceConfig
                0x00000000000bfd34                DRV_DISP_IF_DeviceGetCapabilityConfig
                0x00000000000bfd90                DRV_DISP_IF_DeviceGetInterfaceCapabilityConfig
                0x00000000000bfdec                DRV_DISP_IF_VideoLayerCreateInstance
                0x00000000000bfec8                DRV_DISP_IF_VideoLayerDestoryInstance
                0x00000000000bfef8                DRV_DISP_IF_VideoLayerEnable
                0x00000000000bff44                DRV_DISP_IF_VideoLayerBind
                0x00000000000bff88                DRV_DISP_IF_VideoLayerUnBind
                0x00000000000bffcc                DRV_DISP_IF_VideoLayerSetAttr
                0x00000000000c0010                DRV_DISP_IF_VideoLayerBufferFire
                0x00000000000c0054                DRV_DISP_IF_VideoLayerCheckBufferFired
                0x00000000000c0098                DRV_DISP_IF_VideoLayerSetCompress
                0x00000000000c00e4                DRV_DISP_IF_VideoLayerSetPriority
                0x00000000000c012c                DRV_DISP_IF_VideoLayerGetCapabilityConfig
                0x00000000000c0194                DRV_DISP_IF_InputPortCreateInstance
                0x00000000000c0218                DRV_DISP_IF_InputPortDestroyInstance
                0x00000000000c0248                DRV_DISP_IF_InputPortRotate
                0x00000000000c028c                DRV_DISP_IF_InputPortSetCropAttr
                0x00000000000c02d0                DRV_DISP_IF_InputPortFlip
                0x00000000000c0314                DRV_DISP_IF_InputPortSetRingBuffAttr
                0x00000000000c0358                DRV_DISP_IF_InputPortEnable
                0x00000000000c040c                DRV_DISP_IF_InputPortSetAttr
                0x00000000000c0450                DRV_DISP_IF_InputPortShow
                0x00000000000c0494                DRV_DISP_IF_InputPortHide
                0x00000000000c04d8                DRV_DISP_IF_InputPortAttrBegin
                0x00000000000c051c                DRV_DISP_IF_InputPortAttrEnd
                0x00000000000c0560                DRV_DISP_IF_InputPortSetImiAddr
                0x00000000000c05a4                DRV_DISP_IF_SetDbgLevel
                0x00000000000c05d0                DRV_DISP_IF_DmaCreateInstance
                0x00000000000c0654                DRV_DISP_IF_DmaDestoryInstance
                0x00000000000c06d8                DRV_DISP_IF_DmaBind
                0x00000000000c071c                DRV_DISP_IF_DmaUnBind
                0x00000000000c0760                DRV_DISP_IF_DmaSetAttr
                0x00000000000c07ac                DRV_DISP_IF_DmaSetBufferAttr
                0x00000000000c07f8                DRV_DISP_IF_DmaGetHwCount
                0x00000000000c0858                DRV_DISP_IF_DmaGetCapabilityConfig
                0x00000000000c08b8                DRV_DISP_IF_ClkOn
                0x00000000000c0908                DRV_DISP_IF_ClkOff
                0x00000000000c0958                DRV_DISP_IF_Suspend
                0x00000000000c0a80                DRV_DISP_IF_Resume
                0x00000000000c0b04                DRV_DISP_IF_SetPnlUnifiedParamConfig
                0x00000000000c0b54                DRV_DISP_IF_GetPnlUnifiedParamConfig
                0x00000000000c0ba8                DRV_DISP_IF_SetPnlPowerConfig
                0x00000000000c0bf4                DRV_DISP_IF_SetPnlMipiDsiWriteCmdConfig
                0x00000000000c0c40                DRV_DISP_IF_SetPnlMipiDsiReadCmdConfig
                0x00000000000c0c8c                DRV_DISP_IF_GetFpllLockStatus
                0x00000000000c140c                DRV_DISP_CTX_GetDeviceContainIdx
                0x00000000000c1410                DRV_DISP_CTX_ListAddList
                0x00000000000c1450                DRV_DISP_CTX_ListDelList
                0x00000000000c1460                DRV_DISP_CTX_Init
                0x00000000000c14ec                DRV_DISP_CTX_DeInit
                0x00000000000c1550                DRV_DISP_CTX_Allocate
                0x00000000000c15ec                DRV_DISP_CTX_Free
                0x00000000000c1694                DRV_DISP_CTX_IsLastDeviceCtx
                0x00000000000c16a4                DRV_DISP_CTX_IsAllFree
                0x00000000000c16bc                DRV_DISP_CTX_SetCurCtx
                0x00000000000c172c                DRV_DISP_CTX_GetDeviceCurCtx
                0x00000000000c176c                DRV_DISP_IRQ_Init
                0x00000000000c1788                DRV_DISP_IRQ_SetIsrNum
                0x00000000000c17dc                DRV_DISP_IRQ_GetIsrNumByDevId
                0x00000000000c188c                DRV_DISP_IRQ_GetIsrNum
                0x00000000000c19d0                DRV_DISP_IRQ_Enable
                0x00000000000c1b2c                DRV_DISP_IRQ_GetFlag
                0x00000000000c1bbc                DRV_DISP_IRQ_Clear
                0x00000000000c1c50                DRV_DISP_IRQ_GetLcdIsrNum
                0x00000000000c1d34                DRV_DISP_IRQ_EnableLcd
                0x00000000000c1e5c                DRV_DISP_IRQ_GetLcdFlag
                0x00000000000c1ee8                DRV_DISP_IRQ_ClearLcd
                0x00000000000c1f70                DRV_DISP_IRQ_CreateInternalIsr
                0x00000000000c1f7c                DRV_DISP_IRQ_DestroyInternalIsr
                0x00000000000c1f80                DRV_DISP_IRQ_Str
                0x00000000000c1fd0                DRV_DISP_IRQ_GetIrqCount
                0x00000000000c1fd4                DRV_DISP_DEBUG_GetClk
                0x00000000000c2024                DRV_DISP_DEBUG_SetClk
                0x00000000000c2154                DRV_DISP_DEBUG_SetDbgmgFlag
                0x00000000000c2166                DRV_DISP_DEBUG_GetDeviceInstance
                0x00000000000c216a                DRV_DISP_DEBUG_GetDbgmgFlag
                0x00000000000c21d4                DRV_DISP_DEBUG_SetFunc
                0x00000000000c2220                DRV_DISP_DEBUG_GetFunc
                0x00000000000c2224                DRV_DISP_DEBUG_SetTurnDrv
                0x00000000000c22dc                DRV_DISP_DEBUG_GetTurnDrv
                0x00000000000c2364                DRV_DISP_DEBUG_GetIrqHist
                0x00000000000c237c                DRV_DISP_DEBUG_GetHalProcfsOps
                0x00000000000c2388                DRV_DISP_DEBUG_GetCrc16
                0x00000000000c23a0                DRV_DISP_DEBUG_GetAffCnt
                0x00000000000c23b8                DRV_DISP_DEBUG_Str
                0x00000000000c2760                HAL_DISP_COLOR_InitVar
                0x00000000000c283c                HAL_DISP_UTILITY_Init
                0x00000000000c2910                HAL_DISP_UTILITY_DeInit
                0x00000000000c2968                HAL_DISP_UTILITY_GetCmdqContext
                0x00000000000c299c                HAL_DISP_UTILITY_SetCmdqInf
                0x00000000000c29b0                HAL_DISP_UTILITY_R2BYTEDirect
                0x00000000000c29ba                HAL_DISP_UTILITY_R2BYTEMaskDirect
                0x00000000000c2b1c                HAL_DISP_UTILITY_W2BYTEDirect
                0x00000000000c2bd0                HAL_DISP_UTILITY_W2BYTEMSKDirect
                0x00000000000c2efc                HAL_DISP_UTILITY_AddW2BYTEMSK
                0x00000000000c2f84                HAL_DISP_UTILITY_KickoffCmdq
                0x00000000000c2f90                HAL_DISP_UTILITY_PollWait
                0x00000000000c3084                HAL_DISP_UTILITY_AddDelayCmd
                0x00000000000c30c4                HAL_DISP_UTILITY_CheckCmdqIdle
                0x00000000000c3100                HAL_DISP_UTILITY_ReadBankCpyToBuffer
                0x00000000000c311c                HAL_DISP_UTILITY_SetRegAccessMode
                0x00000000000c312c                HAL_DISP_UTILITY_GetRegAccessMode
                0x00000000000c313c                HAL_DISP_UTILITY_W2BYTEMSKDirectCmdq
                0x00000000000c31c4                HAL_DISP_UTILITY_W2BYTE
                0x00000000000c31f2                HAL_DISP_UTILITY_W2BYTEMSK
                0x00000000000c321e                HAL_DISP_UTILITY_W2BYTEMSKByType
                0x00000000000c324c                HAL_DISP_UTILITY_WritePollCmd
                0x00000000000c32dc                HAL_DISP_UTILITY_WritePollCmdByType
                0x00000000000c332a                HAL_DISP_UTILITY_WriteDelayCmd
                0x00000000000c3398                HAL_DISP_UTILITY_AddWaitCmd
                0x00000000000c3530                HAL_DISP_UTILITY_W2BYTEMSKDirectCmdqWrite
                0x00000000000c3720                HAL_DISP_CLK_GetClkMuxAttr
                0x00000000000c3728                HAL_DISP_CLK_GetClkDispPixel0
                0x00000000000c3748                HAL_DISP_CLK_SetClkDispPixel0
                0x00000000000c37b0                HAL_DISP_CLK_MapBasicClkgenToIdx
                0x00000000000c37d8                HAL_DISP_CLK_MapBasicClkgenToRate
                0x00000000000c3870                HAL_DISP_CLK_GetBasicClkgen
                0x00000000000c38fc                HAL_DISP_CLK_SetBasicClkgen
                0x00000000000c3984                HAL_DISP_CLK_InitGpCtrlCfg
                0x00000000000c39c0                HAL_DISP_CLK_DeInitGpCtrlCfg
                0x00000000000c39e2                HAL_DISP_CLK_SetGpCtrlCfg
                0x00000000000c3ad8                HAL_DISP_CLK_Init
                0x00000000000c3ada                HAL_DISP_PICTURE_TransNonLinear
                0x00000000000c3cb8                HAL_DISP_PICTURE_IsPqUpdate
                0x00000000000c3ce4                HAL_DISP_PICTURE_SetPqConfig
                0x00000000000c3e04                HAL_DISP_GetUtilityIdByDevId
                0x00000000000c3fbc                HAL_DISP_GetCmdqByCtx
                0x00000000000c40a4                HAL_DISP_COLOR_SetColorMatrixEn
                0x00000000000c40f0                HAL_DISP_COLOR_SetColorMatrixMd
                0x00000000000c41b0                HAL_DISP_GetDeviceId
                0x00000000000c41cc                HAL_DISP_COLOR_SetColorCorrectMatrix
                0x00000000000c42b0                HAL_DISP_COLOR_SeletYuvToRgbMatrix
                0x00000000000c43cc                HAL_DISP_COLOR_AdjustBrightness
                0x00000000000c458c                HAL_DISP_COLOR_AdjustHCS
                0x00000000000c4634                HAL_DISP_PICTURE_SetConfig
                0x00000000000c46c0                HAL_DISP_COLOR_AdjustVideoRGB
                0x00000000000c4760                HAL_DISP_PICTURE_ApplyPqConfig
                0x00000000000c4808                HAL_DISP_GetDeviceTimeGenStart
                0x00000000000c485c                HAL_DISP_SetTimeGenStartFlag
                0x00000000000c48c0                HAL_DISP_SetSwReset
                0x00000000000c4908                HAL_DISP_SetInterCfgDispPat
                0x00000000000c4960                HAL_DISP_SetTgenFwVtt
                0x00000000000c49a4                HAL_DISP_GetTgenHtt
                0x00000000000c49e4                HAL_DISP_GetTgenVtt
                0x00000000000c4a24                HAL_DISP_SetTgenHtt
                0x00000000000c4a68                HAL_DISP_SetTgenVtt
                0x00000000000c4aac                HAL_DISP_SetTgenHsyncSt
                0x00000000000c4af0                HAL_DISP_SetTgenHsyncEnd
                0x00000000000c4b34                HAL_DISP_SetTgenVsyncSt
                0x00000000000c4b78                HAL_DISP_SetTgenVsyncEnd
                0x00000000000c4bbc                HAL_DISP_SetTgenHfdeSt
                0x00000000000c4c00                HAL_DISP_SetTgenHfdeEnd
                0x00000000000c4c44                HAL_DISP_SetTgenVfdeSt
                0x00000000000c4c88                HAL_DISP_SetTgenVfdeEnd
                0x00000000000c4ccc                HAL_DISP_SetTgenHdeSt
                0x00000000000c4d10                HAL_DISP_SetTgenHdeEnd
                0x00000000000c4d54                HAL_DISP_SetTgenVdeSt
                0x00000000000c4d98                HAL_DISP_SetTgenVdeEnd
                0x00000000000c4ddc                HAL_DISP_SetFrameColor
                0x00000000000c4e44                HAL_DISP_SetFrameColorForce
                0x00000000000c4e94                HAL_DISP_SetFixedCsc
                0x00000000000c4fa0                HAL_DISP_SetInputPortCrop
                0x00000000000c505c                HAL_DISP_SetDispMux
                0x00000000000c50c4                HAL_DISP_SetRdmaPatTgHtt
                0x00000000000c5108                HAL_DISP_SetRdmaPatTgVtt
                0x00000000000c514c                HAL_DISP_SetRdmaPatTgHsyncSt
                0x00000000000c5190                HAL_DISP_SetRdmaPatTgHsyncEnd
                0x00000000000c51d4                HAL_DISP_SetRdmaPatTgVsyncSt
                0x00000000000c5218                HAL_DISP_SetRdmaPatTgVsyncEnd
                0x00000000000c525c                HAL_DISP_SetRdmaPatTgHfdeSt
                0x00000000000c52a0                HAL_DISP_SetRdmaPatTgHfdeEnd
                0x00000000000c52e4                HAL_DISP_SetRdmaPatTgVfdeSt
                0x00000000000c5328                HAL_DISP_SetRdmaPatTgVfdeEnd
                0x00000000000c536c                HAL_DISP_SetRdmaPatTgHdeSt
                0x00000000000c53b0                HAL_DISP_SetRdmaPatTgHdeEnd
                0x00000000000c53f4                HAL_DISP_SetRdmaPatTgVdeSt
                0x00000000000c5438                HAL_DISP_SetTgenModeEn
                0x00000000000c543c                HAL_DISP_SetRdmaPatTgVdeEnd
                0x00000000000c5480                HAL_DISP_SetSgRdmaCfg
                0x00000000000c5650                HAL_DISP_SetSgRdmaSize
                0x00000000000c57a8                HAL_DISP_SetSgRdmaBufConfig
                0x00000000000c5890                HAL_DISP_SetSgRdmaEn
                0x00000000000c59b8                HAL_DISP_SetSgRdmaFifoPush
                0x00000000000c5a14                HAL_DISP_SetCmdqIntMask
                0x00000000000c5a58                HAL_DISP_SetCmdqIntClear
                0x00000000000c5a9c                HAL_DISP_LpllSetTbl
                0x00000000000c5ab0                HAL_DISP_LcdSetUnifiedPrototypeConfig
                0x00000000000c5b28                HAL_DISP_LcdSetUnifiedPolarityConfig
                0x00000000000c5b84                HAL_DISP_LcdSetUnifiedSwapChnConfig
                0x00000000000c5be0                HAL_DISP_LpllSetSscEn
                0x00000000000c5be4                HAL_DISP_LpllSetSscConfigEx
                0x00000000000c5c20                HAL_DISP_LcdSetUnifiedRgbDeltaMode
                0x00000000000c5d78                HAL_DISP_LcdSetPadMux
                0x00000000000c5f10                HAL_DISP_WaitDeviceVdeStm
                0x00000000000c5f94                HAL_DISP_CheckCmdqIdle
                0x00000000000c5fd8                HAL_DISP_ClearCmdq
                0x00000000000c9964                HAL_DISP_IF_SetUnifiedLpllConfig
                0x00000000000c9be8                HAL_DISP_IF_Init
                0x00000000000c9fbc                HAL_DISP_IF_DeInit
                0x00000000000c9ff4                HAL_DISP_IF_Query
                0x00000000000ca028                HAL_DISP_IF_ParseFunc
                0x00000000000ca2b8                HAL_DISP_IRQ_SetDevIntClr
                0x00000000000ca2dc                HAL_DISP_IRQ_IoCtl
                0x00000000000ca550                HAL_DISP_IRQ_Init
 .text          0x00000000000ca554      0x348 /home/lixx/ZGCX/S1_Project/SSC308QE_SDK/Iford_IMD00V005.0.1_fastboot/SourceCode/SSC308QE_SDK_TEXT/SSC308QE_CODEBASE/sdk/linux/init/disp/disp_init.o
                0x00000000000ca554                DRV_DISP_GetDeviceInstance
                0x00000000000ca558                DRV_DISP_OS_SetClkOn
                0x00000000000ca63c                DRV_DISP_OS_SetClkOff
                0x00000000000ca710                DRV_DISP_OS_SetLpllClkConfig
                0x00000000000ca7ac                DRV_DISP_ModuleDeviceInit
                0x00000000000ca84c                DRV_DISP_ModuleDeviceDeInit
                0x00000000000ca87c                disp_mod_init
                0x00000000000ca88c                disp_mod_exit
 *fill*         0x00000000000ca89c        0x4 
 .text          0x00000000000ca8a0    0x12574 /home/lixx/ZGCX/S1_Project/SSC308QE_SDK/Iford_IMD00V005.0.1_fastboot/SourceCode/SSC308QE_SDK_TEXT/SSC308QE_CODEBASE/sdk/linux/init/vif/../../obj/uclibc/9.1.0/vif.o
                0x00000000000ca8a0                MI_VIF_IOCTL_CreateDevGroup
                0x00000000000ca910                MI_VIF_IOCTL_DestroyDevGroup
                0x00000000000ca988                MI_VIF_IOCTL_GetDevGroupAttr
                0x00000000000ca9b0                MI_VIF_IOCTL_SetDevGroupAttr
                0x00000000000ca9d8                MI_VIF_IOCTL_CallBackTaskRegister
                0x00000000000caa30                MI_VIF_IOCTL_CallBackTaskUnRegister
                0x00000000000cadcc                IS_PRINT_MATCH_vif
                0x00000000000caf3c                MI_DEVICE_WrapperFunction_vif
                0x00000000000caf54                MI_DEVICE_Instance_vif
                0x00000000000caf5c                MI_DEVICE_GetSelfDir_vif
                0x00000000000caf6a                vif__module_init
                0x00000000000cb030                vif__module_exit
                0x00000000000cb110                MI_VIF_DEBUG_GetWdmaInt
                0x00000000000cb148                mi_vif_InputMaskRealtime
                0x00000000000cb14c                DRV_VIF_GetSensorFrmCnt64
                0x00000000000cb200                MI_VIF_PASS_OnBindInputPort
                0x00000000000cb204                MI_VIF_PASS_OnUnBindInputPort
                0x00000000000cb208                _MI_VIF_IMPL_SensorResume
                0x00000000000cb720                MI_VIF_PASS_OnGetOutputPortBindCapability
                0x00000000000cb944                MI_VIF_TRANS_PixelToString
                0x00000000000cbb14                MI_VIF_DEBUG_SetClk
                0x00000000000cbb6c                MI_VIF_DEBUG_GetClk
                0x00000000000cbbb8                MI_VIF_DEBUG_GetClkRateByIdx
                0x00000000000cbbc0                MI_VIF_DEBUG_GetClkDfs
                0x00000000000cbbca                MI_VIF_DEBUG_GetInts
                0x00000000000cbc6c                MI_VIF_DEBUG_GetInfo
                0x00000000000cbce4                mi_vif_InputMask
                0x00000000000cbcfa                mi_vif_GetInputMask
                0x00000000000cbd08                MI_VIF_DRVCFG_PortStatQuery
                0x00000000000cbd84                MI_VIF_DRVCFG_PatGen
                0x00000000000cbe38                MI_VIF_DRVCFG_DataGen
                0x00000000000cbe80                mi_vif_KeepUserSensorShutterGain
                0x00000000000cbec4                mi_vif_GetUserSensorShutterGain
                0x00000000000cbefc                mi_vif_GetRealtimeWorkCh
                0x00000000000cc134                MI_VIF_IMPL_LockDev
                0x00000000000cc1cc                MI_VIF_IMPL_UnLockDev
                0x00000000000cc724                MI_VIF_CHECK_IsYuv422
                0x00000000000cc81c                MI_VIF_CHECK_IsBayer
                0x00000000000cc828                MI_VIF_CHECK_NeedCrop
                0x00000000000cc88c                MI_VIF_CHECK_DevIdVaild
                0x00000000000cc8d0                MI_VIF_CHECK_GroupCreateDevSupport
                0x00000000000cc934                MI_VIF_CHECK_GroupAttr
                0x00000000000cca6c                MI_VIF_CHECK_DestroyDevGroup
                0x00000000000ccb10                MI_VIF_CHECK_EnableDev
                0x00000000000ccbc0                MI_VIF_CHECK_DisableDev
                0x00000000000ccc70                MI_VIF_CHECK_AllPortbEn
                0x00000000000ccce0                MI_VIF_CHECK_OutputBuffInfo
                0x00000000000ccce4                MI_VIF_CHECK_CanUnmask
                0x00000000000ccd5c                MI_VIF_CHECK_ParamChange
                0x00000000000cce60                MI_VIF_CHECK_IsFrameMode
                0x00000000000cce86                MI_VIF_CHECK_RealtimeBindCheck
                0x00000000000ccf2c                MI_VIF_PASS_OnBindOutputPort
                0x00000000000ccfe0                MI_VIF_CHECK_AllDevSuspend
                0x00000000000cd024                MI_VIF_DEBUG_GetDevDebugLevel
                0x00000000000cd048                MI_VIF_CHECK_BufferListAvailable
                0x00000000000cd21c                MI_VIF_CHECK_EnqueueInfo
                0x00000000000cddcc                MI_VIF_IMPL_HwTimerHandler
                0x00000000000ce0cc                MI_VIF_DEBUG_WriteFile
                0x00000000000ce1b0                MI_VIF_DEBUG_DumpFrame
                0x00000000000ce460                MI_VIF_DEBUG_LimitChangeRange
                0x00000000000ce4ba                MI_VIF_DEBUG_ChangeBuf
                0x00000000000ce684                MI_VIF_DEBUG_GetBufCnt
                0x00000000000ce7dc                MI_VIF_DEBUG_PrepareOutTaskMetaInfo
                0x00000000000ce7e0                MI_VIF_DEBUG_CheckOutputTaskStatusDev
                0x00000000000ce8ac                MI_VIF_DEBUG_API
                0x00000000000cedd4                MI_VIF_DRVCFG_GetSensorStatus
                0x00000000000cee28                MI_VIF_DRVCFG_Init
                0x00000000000cee2c                MI_VIF_DRVCFG_Deinit
                0x00000000000cee36                MI_VIF_DRVCFG_StreamOnOff
                0x00000000000cefdc                MI_VIF_PASS_OnUnBindOutputPort
                0x00000000000cf0f0                _MI_VIF_IMPL_SkipFrame
                0x00000000000cf160                MI_VIF_DRVCFG_GetStreamStatus
                0x00000000000cf1a0                MI_VIF_DRVCFG_PortEnable
                0x00000000000cf284                MI_VIF_DRVCFG_PortDisable
                0x00000000000cf360                MI_VIF_DRVCFG_PortCfg
                0x00000000000cf4e4                MI_VIF_DRVCFG_QueueFrameBuffer
                0x00000000000cf6b8                MI_VIF_DRVCFG_QueryFrameInfo
                0x00000000000cf6bc                MI_VIF_DRVCFG_GroupSetConfig
                0x00000000000cf7a8                MI_VIF_DRVCFG_GroupEnable
                0x00000000000cf820                MI_VIF_DRVCFG_GroupDisable
                0x00000000000cf8a0                MI_VIF_DRVCFG_DevEnable
                0x00000000000cf93c                MI_VIF_DRVCFG_DevDisable
                0x00000000000cf9bc                MI_VIF_DRVCFG_Suspend
                0x00000000000cfa44                MI_VIF_PASS_OnSuspend
                0x00000000000cfd40                MI_VIF_MODPARAM_ModuleCtlAttrPrint
                0x00000000000d02b0                MI_VIF_MODPARAM_PortCtlAttrInit
                0x00000000000d0398                MI_VIF_MODPARAM_DevCtlAttrInit
                0x00000000000d0480                MI_VIF_MODPARAM_GroupCtlAttrInit
                0x00000000000d059c                MI_VIF_MODPARAM_ModuleCtlAttrInit
                0x00000000000d0658                MI_VIF_MODPARAM_ModuleCtlInit
                0x00000000000d06bc                MI_VIF_MODPARAM_ModuleCtlDeInit
                0x00000000000d06dc                MI_VIF_MODPARAM_InitExtraCtlParam
                0x00000000000d0740                MI_VIF_PASS_FifoFullForceDrop
                0x00000000000d0794                MI_VIF_PASS_Lock
                0x00000000000d082c                MI_VIF_PASS_UnLock
                0x00000000000d08c4                MI_VIF_PASS_OnPollingAsyncOutputTaskConfigDev
                0x00000000000d0b4c                MI_VIF_PASS_OnPrepareAsyncOutputTaskMetaInfo
                0x00000000000d0dc0                MI_VIF_PASS_BarrierOutputTaskDev
                0x00000000000d0ecc                MI_VIF_PASS_DequeueOutputTaskDev
                0x00000000000d11e0                MI_VIF_PLATFORM_OutputPortSupport
                0x00000000000d11e8                MI_VIF_CHECK_GroupCreateDevPortSupport
                0x00000000000d1278                MI_VIF_CHECK_EnableOutputPort
                0x00000000000d1398                MI_VIF_IMPL_EnableOutputPort
                0x00000000000d15dc                MI_VIF_IMPL_DisableOutputPort
                0x00000000000d1890                MI_VIF_PLATFORM_DevPixelSupport
                0x00000000000d18ac                MI_VIF_CHECK_DevAttr
                0x00000000000d19c4                MI_VIF_PLATFORM_OutputPortPixelSupport
                0x00000000000d19e6                MI_VIF_TRANS_PixelFormatToBayerId
                0x00000000000d1a44                MI_VIF_TRANS_PixelFormatToDataPrec
                0x00000000000d1b2c                MI_VIF_CHECK_PortAttr
                0x00000000000d1dcc                MI_VIF_DRVCFG_DevSetConfig
                0x00000000000d1fcc                MI_VIF_DRVCFG_Resume
                0x00000000000d215c                MI_VIF_IMPL_SetOutputPortAttr
                0x00000000000d2380                _MI_VIF_TRANS_SysFrameBuffSave
                0x00000000000d2446                _MI_VIF_TRANS_SysMultiPlaneBuffSave
                0x00000000000d2516                MI_VIF_TRANS_SysOutputTaskToCommonBufferInfo
                0x00000000000d28e8                MI_VIF_TRANS_OuputEventTypeToInfo
                0x00000000000d29fc                MI_VIF_TRANS_IspDevToVifRealtimeDev
                0x00000000000d2a00                MI_VIF_WORK_ThreadWqAdd
                0x00000000000d2e0c                MI_VIF_WORK_ThreadWqGet
                0x00000000000d2e74                MI_VIF_WORK_ThreadWqProc
                0x00000000000d2ed8                MI_VIF_WORK_ThreadWqClean
                0x00000000000d2f28                MI_VIF_WORK_ThreadWqInit
                0x00000000000d2fb0                MI_VIF_WORK_ThreadWqDeinit
                0x00000000000d2fd0                MI_VIF_WORK_ThreadWqFlush
                0x00000000000d3010                MI_VIF_IMPL_DisableHwTimer
                0x00000000000d304c                MI_VIF_IMPL_EnableHwTimer
                0x00000000000d32b0                _MI_VIF_IMPL_SensorSuspend
                0x00000000000d3330                MI_VIF_IMPL_BuffDoneCheck
                0x00000000000d36e0                _MI_VIF_IMPL_FrameEndCallback
                0x00000000000d3890                _MI_VIF_IMPL_FrameStartCallback
                0x00000000000d3c74                _MI_VIF_IMPL_FrameLineCountCallback
                0x00000000000d3c94                _MI_VIF_IMPL_FifoFullCallback
                0x00000000000d3cc6                _MI_VIF_IMPL_ChnEventCallback
                0x00000000000d3cea                _MI_VIF_IMPL_UpdatePortEvent
                0x00000000000d3d28                _MI_VIF_IMPL_OutputEventCallback
                0x00000000000d3fd0                MI_VIF_IMPL_TimerFunc
                0x00000000000d3fd2                _MI_VIF_IMPL_GroupCfg
                0x00000000000d4008                _MI_VIF_IMPL_DevCfg
                0x00000000000d40b4                _MI_VIF_IMPL_PortCfg
                0x00000000000d412c                MI_VIF_IMPL_StreamOnOff
                0x00000000000d4210                MI_VIF_DRVCFG_SensorSTR
                0x00000000000d43b4                MI_VIF_DRVCFG_PreSuspend
                0x00000000000d4480                MI_VIF_PASS_OnPmSuspendNotify
                0x00000000000d47c0                MI_VIF_DRVCFG_ExitPreSuspend
                0x00000000000d4858                MI_VIF_PASS_OnPmResumeNotify
                0x00000000000d4a80                MI_VIF_PASS_OnOutputPortBufReleaseDev
                0x00000000000d4d80                MI_VIF_PASS_CheckOutputTaskStatusDev
                0x00000000000d4fe0                MI_VIF_PASS_EnqueueOutputTaskDev
                0x00000000000d5658                MI_VIF_IMPL_Insmod
                0x00000000000d5668                MI_VIF_IMPL_Init
                0x00000000000d5888                MI_VIF_IMPL_CreateDevGroup
                0x00000000000d5b90                MI_VIF_IMPL_SetDevGroupAttr
                0x00000000000d5cf0                MI_VIF_IMPL_GetDevGroupAttr
                0x00000000000d5dc8                MI_VIF_IMPL_SetDevAttr
                0x00000000000d5f3c                MI_VIF_IMPL_GetDevAttr
                0x00000000000d6040                MI_VIF_IMPL_EnableDev
                0x00000000000d61dc                MI_VIF_IMPL_DisableDev
                0x00000000000d63d8                MI_VIF_IMPL_DestroyDevGroup
                0x00000000000d66dc                MI_VIF_IMPL_DeInit
                0x00000000000d6800                MI_VIF_IMPL_GetOutputPortAttr
                0x00000000000d693c                MI_VIF_IMPL_Query
                0x00000000000d6adc                MI_VIF_IMPL_GetDevStatus
                0x00000000000d6be4                MI_VIF_IMPL_CallBackTaskRegister
                0x00000000000d6d9c                MI_VIF_IMPL_CallBackTaskUnRegister
                0x00000000000d6f5c                MI_VIF_IMPL_SleepModeParamUpdate
                0x00000000000d6f8a                MI_VIF_PASS_OnResume
                0x00000000000d7208                _MI_VIF_IMPL_SetAeShutterGain
                0x00000000000d72ac                _MI_VIF_IMPL_SetFastAeStatus
                0x00000000000d7420                MI_VIF_IMPL_CustFunction
                0x00000000000d74c4                MI_VIF_IMPL_ResumeEarly
                0x00000000000d74d4                MI_VIF_IMPL_SuspendLate
                0x00000000000d751a                VIF_DEV2STR
                0x00000000000d7528                DRV_VIF_DEVICE_Create
                0x00000000000d754a                DRV_VIF_DEVICE_Relese
                0x00000000000d7550                DRV_VIF_DEVICE_Init
                0x00000000000d756c                DRV_VIF_DEVICE_Deinit
                0x00000000000d7586                DRV_VIF_DEVICE_RegisterSubdev
                0x00000000000d759e                DRV_VIF_DEVICE_UnregisterSubdev
                0x00000000000d75b2                DRV_VIF_DEVICE_GetSubdev
                0x00000000000d75ce                DRV_VIF_SubdevCeate
                0x00000000000d7602                DRV_VIF_SubdevRelease
                0x00000000000d761c                _DRV_VIF_SubdevGetPrivSize
                0x00000000000d762c                _DRV_VIF_SubdevOpsMemalloc
                0x00000000000d7658                _DRV_VIF_SubdevOpsMemrelease
                0x00000000000d766e                DRV_VIF_SUBDEV_Init
                0x00000000000d76c8                DRV_VIF_SUBDEV_DeInit
                0x00000000000d7710                DRV_VIF_SUBDEV_Enable
                0x00000000000d7744                DRV_VIF_SUBDEV_Disable
                0x00000000000d776a                DRV_VIF_SUBDEV_Reset
                0x00000000000d7772                DRV_VIF_SUBDEV_ChnSetFormat
                0x00000000000d7796                DRV_VIF_SUBDEV_ChnSetCrop
                0x00000000000d77ba                DRV_VIF_SUBDEV_ChnSetCount
                0x00000000000d77d0                DRV_VIF_SUBDEV_ChnSetStreamSel
                0x00000000000d77e6                DRV_VIF_SUBDEV_ChnSetFps
                0x00000000000d7802                DRV_VIF_SUBDEV_ChnGetSource
                0x00000000000d7898                DRV_VIF_LinkInit
                0x00000000000d78f8                DRV_VIF_LinkGetSubdevByOutputId
                0x00000000000d790c                DRV_VIF_LinkGetOutputType
                0x00000000000d7934                _DRV_VIF_LinkAddPathNode
                0x00000000000d7968                _DRV_VIF_CreateFrameLink
                0x00000000000d79e8                _DRV_VIF_CreateRealIspLink
                0x00000000000d7a6c                _DRV_VIF_CreateRealSclLink
                0x00000000000d7a72                DRV_VIF_LinkDestroy
                0x00000000000d7ac8                DRV_VIF_LinkDeInit
                0x00000000000d7b00                DRV_VIF_FindLinkBySubdev
                0x00000000000d7b40                DRV_VIF_FindLinkBySrcSubdev
                0x00000000000d7b6c                DRV_VIF_LinkCreate
                0x00000000000d7c54                DRV_VIF_LinkResetByAff
                0x00000000000d7d08                DRV_VIF_FindLinkByDestSubdev
                0x00000000000d7d34                DRV_VIF_FindSrcSubdevByDestSubdev
                0x00000000000d7e28                DRV_VIF_DevtreeCreate
                0x00000000000d7e64                DRV_VIF_DevtreeRelease
                0x00000000000d7e84                DRV_VIF_GetDevHandle
                0x00000000000d7e98                DRV_VIF_GetSubDevHandle
                0x00000000000d7ee8                DRV_VIF_EventInit
                0x00000000000d7f18                DRV_VIF_EventDeInit
                0x00000000000d7f2c                ISPSCL_ISRCB_RegisterCallback
                0x00000000000d7f70                ISPSCL_ISRCB_UnRegisterCallback
                0x00000000000d7f88                DRV_VIF_RegisterEventCb
                0x00000000000d7fa4                DRV_VIF_UnRegisterEventCb
                0x00000000000d7fc4                DRV_VIF_RegisterFrameEventCb
                0x00000000000d7fe8                DRV_VIF_UnRegisterFrameEventCb
                0x00000000000d8008                DRV_VIF_RunEventCb
                0x00000000000d8038                DRV_VIF_RunFrameEventCb
                0x00000000000d80d8                DRV_VIF_StaticIsrInfo
                0x00000000000d8162                DRV_VIF_EventIspVifIsr
                0x00000000000d8226                DRV_VIF_EventIspDmaIsr
                0x00000000000d8364                DRV_VIF_ShowIsrStat
                0x00000000000d84a8                DRV_VIF_ShowWdmaIsrStat
                0x00000000000d85b4                DRV_VIF_ShowAffIsrStat
                0x00000000000d865c                DRV_VIF_EventIsr
                0x00000000000d8670                DRV_VIF_LogEn
                0x00000000000d8688                DRV_VIF_GetLogLv
                0x00000000000d869e                DRV_VIF_Init
                0x00000000000d86ce                DRV_VIF_Deinit
                0x00000000000d86f4                DRV_VIF_GetDrvCap
                0x00000000000d8746                DRV_VIF_InputCfg
                0x00000000000d8768                DRV_VIF_SensorCfg
                0x00000000000d876c                DRV_VIF_EnableInput
                0x00000000000d8784                DRV_VIF_DisableInput
                0x00000000000d879c                DRV_VIF_ChnCfg
                0x00000000000d8868                DRV_VIF_EnableChn
                0x00000000000d887a                DRV_VIF_DisableChn
                0x00000000000d888c                DRV_VIF_QueryChnInfo
                0x00000000000d8890                DRV_VIF_OutputCfg
                0x00000000000d89ac                DRV_VIF_EnableOutput
                0x00000000000d89e4                DRV_VIF_DisableOutput
                0x00000000000d8a0c                DRV_VIF_QueryOutputInfo
                0x00000000000d8ac0                DRV_VIF_QueueBuff
                0x00000000000d8af8                DRV_VIF_QueryBuffInfo
                0x00000000000d8b80                DRV_VIF_DequeueBuff
                0x00000000000d8b84                DRV_VIF_StreamOnOff
                0x00000000000d8ba8                DRV_VIF_GetStreamStatus
                0x00000000000d8bc8                DRV_VIF_PatGenConfig
                0x00000000000d8e58                DRV_VIF_DataGenEnable
                0x00000000000d8ec8                DRV_VIF_VirtualGetDrvCap
                0x00000000000d8ef2                DRV_VIF_VirtualTransToPhyId
                0x00000000000d8efe                DRV_VIF_VirtualOutputCfg
                0x00000000000d8f44                DRV_VIF_VirtualEnableOutput
                0x00000000000d8f52                DRV_VIF_VirtualDisableOutput
                0x00000000000d8f60                DRV_VIF_VirtualQueryOutputInfo
                0x00000000000d8f6e                DRV_VIF_VirtualQueryBuffInfo
                0x00000000000d8f82                DRV_VIF_Group2DevId
                0x00000000000d8f8a                DRV_VIF_Dev2ChnId
                0x00000000000d8f90                DRV_VIF_GetDevIDByPipeID
                0x00000000000d8fbe                DRV_VIF_SetFifoControlMode
                0x00000000000d8fd4                DRV_VIF_SwitchRealtimeVifCh
                0x00000000000d9024                DRV_VIF_GetRealtimeWorkCh
                0x00000000000d903e                DRV_VIF_COMMON_ChnId2DevId
                0x00000000000d9040                DRV_VIF_COMMON_InputMaskFrameSync
                0x00000000000d9042                DRV_VIF_COMMON_TriggerMaskChange
                0x00000000000d9046                DRV_VIF_COMMON_InputMask
                0x00000000000d904c                DRV_VIF_COMMON_GetInputMask
                0x00000000000d9052                DRV_VIF_Dev2GroupId
                0x00000000000d905a                DRV_VIF_SetNucConfig
                0x00000000000d905e                DRV_VIF_SetNucSyncWord
                0x00000000000d9062                DRV_VIF_SetNucClk
                0x00000000000d9066                DRV_VIF_SetNucDeInit
                0x00000000000d9070                VifRegBitShift
                0x00000000000d9088                DRV_VIF_SwIdMappingPhyId
                0x00000000000d90b0                DRV_VIF_PhyIdMappingSwId
                0x00000000000d90d8                DRV_VIF_ClkCtrl
                0x00000000000d9100                DRV_VIF_ClkSetRate
                0x00000000000d914c                DRV_VIF_ClkGetRate
                0x00000000000d9166                DRV_VIF_ClkGetPreRate
                0x00000000000d9184                DRV_VIF_ClkSetPreRate
                0x00000000000d91a0                DRV_VIF_CLKGetCurrentIdx
                0x00000000000d9214                DRV_VIF_CLK_GetRateByIdx
                0x00000000000d923a                DRV_VIF_CLK_GetClkDfs
                0x00000000000d9280                DRV_VIF_ClkGetNodeRate
                0x00000000000d92bc                DRV_VIF_FrameCalculatePts
                0x00000000000d9390                HAL_VIF_GetGrpId
                0x00000000000d93b6                HAL_VIF_SetChnBaseAddr
                0x00000000000d93e0                HAL_VIF_GetChnBaseAddr
                0x00000000000d93f0                HAL_VIF_Init
                0x00000000000d94d4                HAL_VIF_DeInit
                0x00000000000d94e0                HAL_VIF_GetHandle
                0x00000000000d952c                HAL_VIF_SensorSwReset
                0x00000000000d953e                HAL_VIF_IfStatusReset
                0x00000000000d9550                HAL_VIF_SensorChannelEnable
                0x00000000000d9562                HAL_VIF_MaskFrameSync
                0x00000000000d9594                HAL_VIF_SensorMask
                0x00000000000d9614                HAL_VIF_GetSensorMask
                0x00000000000d9648                HAL_VIF_SensorMaskSel
                0x00000000000d9688                HAL_VIF_SensorBitSwap
                0x00000000000d969c                HAL_VIF_SensorHsyncPolarity
                0x00000000000d96d2                HAL_VIF_SensorVsyncPolarity
                0x00000000000d9708                HAL_VIF_SensorHsyncPolarityBt656
                0x00000000000d972e                HAL_VIF_SensorVsyncPolarityBt656
                0x00000000000d9754                HAL_VIF_SensorFormatGroup
                0x00000000000d97b0                HAL_VIF_SelectSource
                0x00000000000d9820                HAL_VIF_SensorRgbIn
                0x00000000000d9834                HAL_VIF_SensorYc16Bit
                0x00000000000d9848                HAL_VIF_SensorHsDly
                0x00000000000d985c                HAL_VIF_Crop
                0x00000000000d98be                HAL_VIF_CropEnable
                0x00000000000d9900                HAL_VIF_Vif2IspLineCnt0
                0x00000000000d9976                HAL_VIF_Vif2IspLineCnt1
                0x00000000000d99ec                HAL_VIF_Vif2IspPixCnt
                0x00000000000d9a62                HAL_VIF_LiCh
                0x00000000000d9a76                HAL_VIF_LiModeEn
                0x00000000000d9a8a                HAL_VIF_PatTgenEn
                0x00000000000d9aa0                HAL_VIF_PatDgenEn
                0x00000000000d9ab6                HAL_VIF_PatSensorArray
                0x00000000000d9acc                HAL_VIF_PatDeRate
                0x00000000000d9ae2                HAL_VIF_PatDgen4PMode
                0x00000000000d9afa                HAL_VIF_PatGenInit
                0x00000000000d9c26                HAL_VIF_SetPclkSource
                0x00000000000d9c88                HAL_VIF_SetPatternGenPclkSrc
                0x00000000000d9cba                HAL_VIF_PatternGenPclkSrc
                0x00000000000d9cbe                HAL_VIF_GetVifInfo
                0x00000000000d9cea                HAL_VIF_ShowInfo
                0x00000000000d9e9c                HAL_VIF_GetInfo
                0x00000000000d9fc6                HAL_VIF_ItuTdmEnable
                0x00000000000d9fe4                HAL_VIF_AffMerge
                0x00000000000da018                VifSysRegV2R
                0x00000000000da024                VifRegWM
                0x00000000000da072                HAL_VIF_FifoMuxSelectWM
                0x00000000000da0aa                HAL_VIF_FifoMuxSelect
                0x00000000000da16a                HAL_VIF_VcMux2PipeSelectMask
                0x00000000000da346                HAL_VIF_PipeReset
                0x00000000000da46c                HAL_VIF_AffReset
                0x00000000000da516                HAL_VIF_AffClkEnable
                0x00000000000da630                HAL_VIF_MaskFifoVsync2T
                0x00000000000da632                HAL_VIF_FrameMask
                0x00000000000da702                HAL_VIF_PatFdEn
                0x00000000000da71a                HAL_VIF_ClearSwWdmaDoneStatus
                0x00000000000da734                HAL_VIF_GetSwWdmaDoneStatus
                0x00000000000da74c                HAL_VIF_IrqClkEn
                0x00000000000da770                HAL_VIF_PipeCropEnable
                0x00000000000da790                HAL_VIF_PipeCrop
                0x00000000000da916                HAL_VIF_PipePixelRecoveryRangeEnable
                0x00000000000da936                HAL_VIF_PipePixelRecoveryRange
                0x00000000000da96e                HAL_VIF_PipeRawStoreMode
                0x00000000000daa0e                HAL_VIF_GetVifToIspRealtimePipe
                0x00000000000daa18                _HAL_VIF_WdmaBase
                0x00000000000daa44                _HAL_VIF_SgdmaBase
                0x00000000000daa70                HAL_VIF_WdmaSwTrig
                0x00000000000daa8c                HAL_VIF_WdmaGetMiuReqParam
                0x00000000000daa96                HAL_VIF_WdmaGetReqBustNum
                0x00000000000daab6                HAL_VIF_WdmaGetReqThd
                0x00000000000daad2                HAL_VIF_WdmaReqThd
                0x00000000000dab12                HAL_VIF_WdmaReqHighPriThd
                0x00000000000dab42                HAL_VIF_WdmaSetHighPri
                0x00000000000dab46                HAL_VIF_WdmaReqBustNum
                0x00000000000dab72                HAL_VIF_WdmaStatusClear
                0x00000000000dab84                HAL_VIF_WdmaBaseAddr
                0x00000000000dabaa                HAL_VIF_WdmaBase1Addr
                0x00000000000dabd0                HAL_VIF_WdmaFifoPush
                0x00000000000dabe0                HAL_VIF_WdmaDataPrecision
                0x00000000000dac2a                HAL_VIF_WdmaSetPitchDirect
                0x00000000000dac62                HAL_VIF_WdmaSetLineCntHit
                0x00000000000dac70                HAL_VIF_WdmaUpdatePitch
                0x00000000000dac90                HAL_VIF_SenDataPrecision
                0x00000000000dacc2                HAL_VIF_WdmaSetPitch
                0x00000000000dadce                HAL_VIF_WdmaEnable
                0x00000000000dadea                HAL_VIF_Wdmanofifoemptyirq
                0x00000000000dae0a                HAL_VIF_4PixelDataPakAtMsbToWdma
                0x00000000000dae46                HAL_VIF_WdmaSetFrameIndexMode
                0x00000000000dae5e                HAL_VIF_WdmaFbcEnable
                0x00000000000dae90                HAL_VIF_WdmaFbcVsyncSel
                0x00000000000daeaa                HAL_VIF_WdmaFbcWidth
                0x00000000000daf04                HAL_VIF_WdmaFieldModeConfig
                0x00000000000daf20                HAL_VIF_WdmaFifoBaseClr
                0x00000000000daf32                HAL_VIF_WdmaGetInfo
                0x00000000000db02c                HAL_VIF_GetWdmaStsInfo
                0x00000000000db060                HAL_VIF_WdmaTimerEnable
                0x00000000000db078                HAL_VIF_Wdma2FieldTrigEnable
                0x00000000000db092                HAL_VIF_WdmaGetEvent
                0x00000000000db0a2                HAL_VIF_WdmaEventClr
                0x00000000000db0ba                HAL_VIF_WdmaInit
                0x00000000000db164                HAL_VIF_WdmaGetSizeInfo
                0x00000000000db17e                HAL_VIF_WdmaDeinit
                0x00000000000db198                HAL_VIF_WdmaSetCrcMode
                0x00000000000db1ae                HAL_VIF_ItuWdmaInit
                0x00000000000db1b2                HAL_VIF_GetWdmaWffNum
                0x00000000000db1c6                HAL_VIF_GetWdmaWffMaxSize
                0x00000000000db1dc                HAL_VIF_SetWdmaWffStart
                0x00000000000db1fc                HAL_VIF_GetFristWdmaIdbyGroup
                0x00000000000db204                HAL_VIF_GetWdmaWffStart
                0x00000000000db22c                HAL_VIF_SetWdmaWffSize
                0x00000000000db254                HAL_VIF_GetWdmaWffSize
                0x00000000000db27e                HAL_VIF_WdmaCusFrameId
                0x00000000000db294                HAL_VIF_WInfoPop
                0x00000000000db2aa                HAL_VIF_WinfoPopMode
                0x00000000000db2c0                HAL_VIF_GetWinfoPopMode
                0x00000000000db2d0                HAL_VIF_WdmaFbcReset
                0x00000000000db2e6                HAL_VIF_WdmaPipeClkEn
                0x00000000000db37a                HAL_VIF_WdmaGateClkEn
                0x00000000000db458                HAL_VIF_WdmaResetRefCnt
                0x00000000000db46c                HAL_VIF_WdmaIrqClkEn
                0x00000000000dc01c                HAL_VIF_IF_GetDevNum
                0x00000000000dc02c                _HAL_VIF_IF_WDMA_Config
                0x00000000000dc1cc                _HAL_VIF_FrameGetWptrm
                0x00000000000dc33c                HAL_VIF_IF_Init
                0x00000000000dc354                HAL_VIF_IF_DeInit
                0x00000000000dc368                HAL_VIF_IF_GetDevCap
                0x00000000000dc36e                HAL_VIF_IF_SetPrivOps
                0x00000000000dc468                HAL_VIF_IF_SubdevInit
                0x00000000000dc4d0                HAL_VIF_IF_SubdevDeInit
                0x00000000000dc4d4                HAL_VIF_IspDmaMaskIntAll
                0x00000000000dc51e                HAL_VIF_IspDmaGetIntStatus1
                0x00000000000dc52a                HAL_VIF_IspDmaGetIntStatus2
                0x00000000000dc536                HAL_VIF_IspDmaGetIntStatus5
                0x00000000000dc544                HAL_VIF_IspDmaGetIntStatus6
                0x00000000000dc552                HAL_VIF_IspDmaMaskClear1
                0x00000000000dc574                HAL_VIF_IspDmaMaskClear2
                0x00000000000dc596                HAL_VIF_IspDmaMaskClear5
                0x00000000000dc5c2                HAL_VIF_IspDmaMaskClear6
                0x00000000000dc5ee                HAL_VIF_IspDmaMaskInt1
                0x00000000000dc600                HAL_VIF_IspDmaMaskInt2
                0x00000000000dc612                HAL_VIF_IspDmaMaskInt5
                0x00000000000dc628                HAL_VIF_IspDmaMaskInt6
                0x00000000000dc63e                HAL_VIF_IspDmaUnMaskInt1
                0x00000000000dc652                HAL_VIF_IspDmaUnMaskInt2
                0x00000000000dc666                HAL_VIF_IspDmaUnMaskInt5
                0x00000000000dc67e                HAL_VIF_IspDmaUnMaskInt6
                0x00000000000dc696                HAL_VIF_IspDmaClearInt
                0x00000000000dc6a2                HAL_VIF_IspDmaIsr
                0x00000000000dc788                HAL_VIF_IspVifIntMask
                0x00000000000dc7f6                HAL_VIF_IspVifIntUnMask
                0x00000000000dc860                HAL_VIF_IspVifIntMaskGet
                0x00000000000dc890                HAL_VIF_IspVifIntForce
                0x00000000000dc8aa                HAL_VIF_IspVifIntClr
                0x00000000000dc8c4                HAL_VIF_IspVifIntFinalStatus
                0x00000000000dc8e0                HAL_VIF_IspVifIntRawStatus
                0x00000000000dc90e                DRV_VIF_GetUsTimeStamp
                0x00000000000dc960                DRV_VIF_ShowInfo
                0x00000000000dcadc                DRV_VIF_DebugInterface
                0x00000000000dcce4                _vif_module_verify
                0x00000000000dcce6                vif_module_get_clk_hd
                0x00000000000dccf8                DRV_VIF_IrqCrtl
                0x00000000000dcd1c                drv_vif_isr
                0x00000000000dcd48                drv_vif_module_insmod
                0x00000000000dcdf4                drv_vif_module_rmmod
 .text          0x00000000000dce14        0x0 /home/lixx/ZGCX/S1_Project/SSC308QE_SDK/Iford_IMD00V005.0.1_fastboot/SourceCode/SSC308QE_SDK_TEXT/SSC308QE_CODEBASE/sdk/linux/init/vif/vif_export.o
 .text          0x00000000000dce14      0x270 /home/lixx/ZGCX/S1_Project/SSC308QE_SDK/Iford_IMD00V005.0.1_fastboot/SourceCode/SSC308QE_SDK_TEXT/SSC308QE_CODEBASE/sdk/linux/init/vif/vif_init.o
                0x00000000000dcf10                vif_ioremap
                0x00000000000dcf14                vif_unmap
                0x00000000000dcf1e                vif_inirq
                0x00000000000dcf30                vif_dev_get
                0x00000000000dcf3c                vif_of_property_readu32
                0x00000000000dcf70                vif_irq_of_parse_and_map
                0x00000000000dcfa0                vif_request_irq
                0x00000000000dcfbc                vif_free_irq
                0x00000000000dcfc0                vif_devnode_init
                0x00000000000dd004                vif_register_misc_device
                0x00000000000dd058                vif_unregister_misc_device
                0x00000000000dd064                vif_mod_init
                0x00000000000dd074                vif_mod_exit
 .text          0x00000000000dd084     0x2acc /home/lixx/ZGCX/S1_Project/SSC308QE_SDK/Iford_IMD00V005.0.1_fastboot/SourceCode/SSC308QE_SDK_TEXT/SSC308QE_CODEBASE/sdk/linux/init/common/../../obj/uclibc/9.1.0/common.o
                0x00000000000dd488                number_write
                0x00000000000dd498                number_show
                0x00000000000dd4a4                debug_write
                0x00000000000dd4c0                debug_show
                0x00000000000dd4cc                version_show
                0x00000000000dd4d0                MI_DEVICE_GetClass
                0x00000000000dd4dc                MI_DEVICE_GetProcModuleDir
                0x00000000000dd4e8                MI_DEVICE_GetProcCommonModuleDir
                0x00000000000dd4f4                MI_DEVICE_GetProcHalDir_Tag
                0x00000000000dd504                MI_DEVICE_SetProcHalDir_Tag
                0x00000000000dd514                MI_DEVICE_RemoteWrapper
                0x00000000000dd51a                MI_DEVICE_Register
                0x00000000000dd588                MI_DEVICE_Unregister
                0x00000000000dd5dc                MI_DEVICE_SetTaskExiting
                0x00000000000dd5f4                MI_DEVICE_SetTaskExitDone
                0x00000000000dd6a0                MI_DEVICE_NotifyMiSysExit
                0x00000000000dd6a2                MI_DEVICE_RegisterToAdaptor
                0x00000000000dd6a4                MI_DEVICE_UnregisterToAdaptor
                0x00000000000dd6a6                core_module_init
                0x00000000000dd7f4                core_module_exit
                0x00000000000dd85c                MI_COMMON_ModuleIdToPrefixName
                0x00000000000ddcf8                MI_COMMON_GetResKeyVal
                0x00000000000ddd10                MI_COMMON_ProcessInit
                0x00000000000ddd70                MI_COMMON_ProcessDeInit
                0x00000000000dde5c                MI_COMMON_FindResourcePidByKey
                0x00000000000ddee0                MI_COMMON_CheckResourceExist
                0x00000000000ddf70                MI_COMMON_AddResource
                0x00000000000de098                MI_COMMON_DelResource
                0x00000000000de154                MI_COMMON_ProcessRegisterEarlyFreeCb
                0x00000000000de160                MI_COMMON_ProcessExit
                0x00000000000deca4                cJSON_GetErrorPtr
                0x00000000000decb4                cJSON_Version
                0x00000000000decd8                cJSON_InitHooks
                0x00000000000ded14                cJSON_Delete
                0x00000000000deffa                cJSON_ParseWithOpts
                0x00000000000df0cc                cJSON_Parse
                0x00000000000df0d4                cJSON_Print
                0x00000000000df0d6                cJSON_GetArraySize
                0x00000000000df0e6                cJSON_GetArrayItem
                0x00000000000df0f2                cJSON_GetObjectItem
                0x00000000000df0f8                cJSON_GetObjectItemCaseSensitive
                0x00000000000df0fe                cJSON_HasObjectItem
                0x00000000000df10c                cJSON_IsInvalid
                0x00000000000df118                cJSON_IsFalse
                0x00000000000df124                cJSON_IsTrue
                0x00000000000df130                cJSON_IsBool
                0x00000000000df13e                cJSON_IsNull
                0x00000000000df14a                cJSON_IsNumber
                0x00000000000df158                cJSON_IsString
                0x00000000000df166                cJSON_GetStringValue
                0x00000000000df174                cJSON_IsArray
                0x00000000000df182                cJSON_IsObject
                0x00000000000df190                cJSON_IsRaw
                0x00000000000df20c                _mi_common_CjsonMemoryFree
                0x00000000000df270                _mi_common_CjsonMemoryAlloc
                0x00000000000df2c8                mi_common_CjsonDumpInfoCustomerCjson
                0x00000000000df2f4                mi_common_CjsonParse
                0x00000000000df2f8                mi_common_CjsonHasObjectItem
                0x00000000000df2fc                mi_common_CjsonGetObjectItem
                0x00000000000df300                mi_common_CjsonGetArraySize
                0x00000000000df304                mi_common_CjsonGetArrayItem
                0x00000000000df308                mi_common_CjsonPrint
                0x00000000000df360                mi_common_CjsonDelete
                0x00000000000df364                mi_common_CjsonFreeCustomerCjson
                0x00000000000df3f0                mi_common_CjsonLoad
                0x00000000000df4c4                mi_common_CjsonAddCustomerCjson
                0x00000000000df54c                mi_common_CjsonGetCustomerCjson
                0x00000000000df65c                mi_common_CjsonFreeAllCustomerCjson
                0x00000000000df69c                mi_common_GetConfigJsonPath
                0x00000000000df6a4                _createCjsonProc
                0x00000000000df6e0                _mi_common_CjsonMemoryInit
                0x00000000000df7b0                _mi_common_CjsonMemoryDeinit
                0x00000000000df7e4                mi_common_CjsonInitCustomerCjson
                0x00000000000df898                mi_common_CjsonDeInitCustomerCjson
                0x00000000000df964                mi_common_ModParamInit
                0x00000000000df9f4                mi_common_ModParamDeInit
                0x00000000000dfa0c                mi_common_ModParamGetCjsonObjectItem
                0x00000000000dfa48                MI_COMMON_MODPARAM_GETVALUE
                0x00000000000dfa9c                MI_COMMON_MODPARAM_GETSTRING
                0x00000000000dfabc                MI_COMMON_MODPARAM_GETARRAY
 .text          0x00000000000dfb50       0x70 /home/lixx/ZGCX/S1_Project/SSC308QE_SDK/Iford_IMD00V005.0.1_fastboot/SourceCode/SSC308QE_SDK_TEXT/SSC308QE_CODEBASE/sdk/linux/init/common/common_init.o
                0x00000000000dfb50                MI_DEVICE_IsCurrentExiting
                0x00000000000dfb64                MI_DEVICE_IsMmExist
                0x00000000000dfb7c                MI_DEVICE_GetPid
                0x00000000000dfb8e                MI_DEVICE_GetTgid
                0x00000000000dfba0                common_mod_init
                0x00000000000dfbb0                common_mod_exit
 .text          0x00000000000dfbc0     0x5b38 /home/lixx/ZGCX/S1_Project/SSC308QE_SDK/Iford_IMD00V005.0.1_fastboot/SourceCode/SSC308QE_SDK_TEXT/SSC308QE_CODEBASE/sdk/linux/init/ai/../../obj/uclibc/9.1.0/ai.o
                0x00000000000e0494                IS_PRINT_MATCH_ai
                0x00000000000e0594                MI_DEVICE_WrapperFunction_ai
                0x00000000000e05ac                MI_DEVICE_Instance_ai
                0x00000000000e05b4                MI_DEVICE_GetSelfDir_ai
                0x00000000000e05c2                ai__module_init
                0x00000000000e0688                ai__module_exit
                0x00000000000e0ae8                MI_AI_IMPL_CloseAllDumpMhalChnFile
                0x00000000000e0b80                MI_AI_IMPL_OpenAllDumpMhalChnFile
                0x00000000000e0ca2                MI_AI_IMPL_CloseDumpMiChnFile
                0x00000000000e0e8c                MI_AI_IMPL_OpenDumpMiChnFile
                0x00000000000e2c5c                _MI_AI_IMPL_AllDeviceIsClosed
                0x00000000000e2c80                MI_AI_IMPL_CheckAndPrintModulePara
                0x00000000000e2d7c                MI_AI_IMPL_Init
                0x00000000000e2ddc                MI_AI_IMPL_DeInit
                0x00000000000e2e40                _MI_AI_IMPL_CheckIfsAttachToDevice
                0x00000000000e2ec4                MI_AI_IMPL_InitGlobalData
                0x00000000000e30b4                MI_AI_IMPL_DeInitGlobalData
                0x00000000000e3144                MI_AI_IMPL_Open
                0x00000000000e33c0                MI_AI_IMPL_AttachIf
                0x00000000000e37b4                MI_AI_IMPL_Close
                0x00000000000e3a9c                MI_AI_IMPL_GetChipDevNum
                0x00000000000e3aa4                MI_AI_IMPL_GetChnNumOfDev
                0x00000000000e3b50                MI_AI_IMPL_GetDevAttr
                0x00000000000e3c40                MI_AI_IMPL_EnableChnGrp
                0x00000000000e3e34                MI_AI_IMPL_DisableChnGrp
                0x00000000000e4010                MI_AI_IMPL_SetMute
                0x00000000000e4228                MI_AI_IMPL_GetMute
                0x00000000000e4394                MI_AI_IMPL_SetDpgaGain
                0x00000000000e46bc                MI_AI_IMPL_GetDpgaGain
                0x00000000000e4858                MI_AI_IMPL_SetIfGain
                0x00000000000e4940                MI_AI_IMPL_GetIfGain
                0x00000000000e49e0                MI_AI_IMPL_SetI2sConfig
                0x00000000000e4d3c                MI_AI_IMPL_GetI2sConfig
                0x00000000000e4e1c                MI_AI_IMPL_GetChnGrpBufInfo
                0x00000000000e4f54                MI_AI_IMPL_GetChnGrpEnableStatus
                0x00000000000e5060                MI_AI_IMPL_SetIfMute
                0x00000000000e5114                MI_AI_IMPL_GetIfMute
                0x00000000000e51b0                MI_AI_IMPL_OpenWithCfgFile
                0x00000000000e54b8                _MI_AI_IMPL_MiDevToMhalDev
                0x00000000000e54c8                MI_AI_IMPL_SoundModeToChannelCount
                0x00000000000e54dc                MI_AI_IMPL_I2sIfToI2sSet
                0x00000000000e54f4                MI_AI_IMPL_IfToStr
                0x00000000000e5590                _MI_AI_IMPL_MiIfToMhalIf
                0x00000000000e559c                MI_AI_IMPL_MhalGetCurrDataLen
                0x00000000000e55b6                MI_AI_IMPL_MhalSetIfGain
                0x00000000000e55d4                MI_AI_IMPL_MhalSetIfMute
                0x00000000000e55f2                MI_AI_IMPL_MhalDpgaGain
                0x00000000000e5610                MI_AI_IMPL_MhalDpgaMute
                0x00000000000e562e                MI_AI_IMPL_MhalSineGenStart
                0x00000000000e5680                MI_AI_IMPL_MhalSineGenStop
                0x00000000000e5698                MI_AI_IMPL_MhalSetI2sRxChSwap
                0x00000000000e56c8                MI_AI_IMPL_MhalSetDmicShareI2sClk
                0x00000000000e56dc                MI_AI_IMPL_MhalSetMicHpf
 .text          0x00000000000e56f8       0x20 /home/lixx/ZGCX/S1_Project/SSC308QE_SDK/Iford_IMD00V005.0.1_fastboot/SourceCode/SSC308QE_SDK_TEXT/SSC308QE_CODEBASE/sdk/linux/init/ai/ai_init.o
                0x00000000000e56f8                ai_mod_init
                0x00000000000e5708                ai_mod_exit
 .text          0x00000000000e5718    0x310b0 /home/lixx/ZGCX/S1_Project/SSC308QE_SDK/Iford_IMD00V005.0.1_fastboot/SourceCode/SSC308QE_SDK_TEXT/SSC308QE_CODEBASE/sdk/linux/init/venc/../../obj/uclibc/9.1.0/venc.o
                0x00000000000e643c                IS_PRINT_MATCH_venc
                0x00000000000e6724                MI_DEVICE_WrapperFunction_venc
                0x00000000000e673c                MI_DEVICE_Instance_venc
                0x00000000000e6744                MI_DEVICE_GetSelfDir_venc
                0x00000000000e6752                venc__module_init
                0x00000000000e6818                venc__module_exit
                0x00000000000e6b84                _MI_VENC_DEBUG_SetProcfsOps
                0x00000000000e6bec                MI_VENC_DEBUG_InitProcfsParam
                0x00000000000e6cb0                MI_VENC_DEBUG_DeInitProcfsParam
                0x00000000000e6d34                MI_VENC_Debug_InitProcFs
                0x00000000000e6df0                MI_VENC_Debug_DeinitProcFs
                0x00000000000e6e3c                MI_VENC_DEBUG_AutoUpdateStatTimeIntvl
                0x00000000000e6f08                MI_VENC_DEBUG_StartRecordStatTimeIntvl
                0x00000000000e6f5c                MI_VENC_DEBUG_EndRecordStatTimeIntvl
                0x00000000000e7038                MI_VENC_DEBUG_UpdateStatTimeInfo
                0x00000000000e70ac                MI_VENC_DEBUG_GetStatTimeInfo
                0x00000000000e70f8                MI_VENC_DEBUG_InitFlowStatTimeIntvl
                0x00000000000e7124                MI_VENC_DEBUG_InitStatTimeInfo
                0x00000000000e715c                MI_VENC_DEBUG_DumpInputBufIfOutputRaised
                0x00000000000e728c                MI_VENC_DEBUG_DumpInputBuf
                0x00000000000e7664                MI_VENC_DEBUG_DumpOutputBuf
                0x00000000000e77cc                MI_VENC_DEBUG_ShowOutInfo
                0x00000000000e7814                MI_VENC_DEBUG_DumpCustMap
                0x00000000000e79c4                MI_VENC_DEBUG_UpdateForceResetFrameCount
                0x00000000000e79e8                MI_VENC_DEBUG_NeedForceReset
                0x00000000000e7a50                MI_VENC_DEBUG_IsProcfsEnableRecover
                0x00000000000e7a6c                MI_VENC_DEBUG_DumpMhalRegWhenHang
                0x00000000000e7a6e                MI_VENC_DEBUG_AllocDevDbgFsInfoHandle
                0x00000000000e7b28                MI_VENC_DEBUG_FreeDevDbgFsInfoHandle
                0x00000000000e7b88                MI_VENC_DEBUG_AllocChnDbgFsInfoHandle
                0x00000000000e7c70                MI_VENC_DEBUG_FreeChnDbgFsInfoHandle
                0x00000000000e7cf4                MI_VENC_DEBUG_SetStartDumpOut
                0x00000000000e7d14                MI_VENC_DEBUG_InitBufferFullRecordList
                0x00000000000e7d30                MI_VENC_DEBUG_AddBufferFullRecord
                0x00000000000e7d4c                MI_VENC_DEBUG_DelBufferFullRecord
                0x00000000000e7d94                MI_VENC_DEBUG_IsDropInputTask
                0x00000000000e7dac                MI_VENC_DEBUG_IsDropOutputTask
                0x00000000000e7dc4                MI_VENC_DEBUG_IsDumpOut
                0x00000000000e7de4                MI_VENC_DEBUG_IsFrcChangedDumpMode
                0x00000000000e7e20                MI_VENC_DEBUG_IsDbgSupFrmInfoMode
                0x00000000000e7e40                MI_VENC_DEBUG_IsDbgSupFrmWrnMode
                0x00000000000e7e60                MI_VENC_DEBUG_IsDbgFrmLostInfoMode
                0x00000000000e7e80                MI_VENC_DEBUG_IsDbgFrmLostWrnMode
                0x00000000000e7ea0                OpenFile
                0x00000000000e7edc                WriteFile
                0x00000000000e7ee0                CloseFile
                0x00000000000e7eea                _MI_VENC_MapMemToFile
                0x00000000000e7fbc                mi_venc_ResetSw
                0x00000000000e7fda                mi_venc_InitSw
                0x00000000000e800a                mi_venc_RecSw
                0x00000000000e8064                MI_VENC_MODPARAM_Init
                0x00000000000e81c4                MI_VENC_MODPARAM_GetHandle
                0x00000000000e9694                MI_VENC_IMPL_GetDefaultDevMaxResolution
                0x00000000000e96ae                MI_VENC_IMPL_UpdateStatTimeInfo
                0x00000000000e96b2                MI_VENC_IMPL_Insmod
                0x00000000000e96cc                MI_VENC_IMPL_Rmmod
                0x00000000000e96e8                MI_VENC_IMPL_Init
                0x00000000000e9768                MI_VENC_IMPL_DeInitDev
                0x00000000000e97bc                MI_VENC_IMPL_DeInit
                0x00000000000e982c                MI_VENC_IMPL_DupChn
                0x00000000000e98b8                MI_VENC_IMPL_ResetChn
                0x00000000000e9a70                MI_VENC_IMPL_StartRecvPicEx
                0x00000000000e9edc                MI_VENC_IMPL_StartRecvPic
                0x00000000000e9f0c                MI_VENC_IMPL_StopRecvPic
                0x00000000000ea2d4                MI_VENC_IMPL_DestroyChn
                0x00000000000ea6f8                MI_VENC_IMPL_Query
                0x00000000000ea924                _MI_VENC_IMPL_SetParamRcAdvance
                0x00000000000eae30                MI_VENC_IMPL_SetParams
                0x00000000000eb7f4                MI_VENC_IMPL_GetParamRcAdvance
                0x00000000000eb9c8                MI_VENC_IMPL_GetPollData
                0x00000000000eba9c                MI_VENC_IMPL_GetParams
                0x00000000000ebf24                MI_VENC_IMPL_SetChnAttr
                0x00000000000ec340                MI_VENC_IMPL_GetStream
                0x00000000000ec490                MI_VENC_IMPL_ReleaseStream
                0x00000000000ec648                MI_VENC_IMPL_ReleaseFrame
                0x00000000000ec744                MI_VENC_IMPL_InitDev
                0x00000000000ec8e8                MI_VENC_IMPL_CreateChn
                0x00000000000ecfc4                MI_VENC_IMPL_SetParamPenalty
                0x00000000000ed030                MI_VENC_IMPL_SetParamScalinglist
                0x00000000000ed09c                MI_VENC_IMPL_SetParamDefloat
                0x00000000000ed108                MI_VENC_IMPL_SetParamDumpBuffer
                0x00000000000ed2a4                MI_VENC_RGN_NotifyFrameDone
                0x00000000000ed368                MI_VENC_RGN_CloseGwin
                0x00000000000ed418                MI_VENC_RGN_Process
                0x00000000000ed550                MI_VENC_RGN_DestroyMemCmdq
                0x00000000000ed582                MI_VENC_RGN_AllocMemCmdq
                0x00000000000ed5de                MI_VENC_RGN_FreeMemCmdq
                0x00000000000ed61a                MI_VENC_RGN_OnSuspend
                0x00000000000ed684                MI_VENC_RGN_OnResume
                0x00000000000edc6c                MI_VENC_CORE_GetDevResHandle
                0x00000000000ee620                MI_VENC_CORE_GetDevResByHalDev
                0x00000000000ee678                MI_VENC_CORE_GetChnResHandle
                0x00000000000ee74a                MI_VENC_CORE_FoundChipIdx
                0x00000000000ee754                MI_VENC_CORE_IsFrameLost
                0x00000000000ee98c                MI_VENC_CORE_IsSuperFrame
                0x00000000000eea04                MI_VENC_CORE_ReportChnFps
                0x00000000000eea84                MI_VENC_CORE_CheckChnAttr
                0x00000000000eeac4                MI_VENC_CORE_ValidateResolution
                0x00000000000eee48                MI_VENC_CORE_ValidBufferSize
                0x00000000000ef254                MI_VENC_CORE_VerifyFps
                0x00000000000ef394                MI_VENC_CORE_SetResolution
                0x00000000000ef424                MI_VENC_CORE_CheckYuvOutputBufSize
                0x00000000000ef4d8                MI_VENC_CORE_ReleaseFd
                0x00000000000ef4ec                MI_VENC_CORE_PollFdState
                0x00000000000ef57c                MI_VENC_CORE_SetPollState
                0x00000000000ef598                MI_VENC_CORE_CreateRingPool
                0x00000000000ef6a4                MI_VENC_CORE_EncodeSmoothWindowInit
                0x00000000000ef6b6                MI_VENC_CORE_EncodeTimeDeinit
                0x00000000000ef6ce                MI_VENC_CORE_EncodeTimeRecordStart
                0x00000000000ef6e8                MI_VENC_CORE_EncodeTimeRecordEnd
                0x00000000000ef718                MI_VENC_CORE_GetSmoothEncodeTime
                0x00000000000ef71e                MI_VENC_CORE_MhalReleaseFrame
                0x00000000000ef77c                MI_VENC_CORE_GetBspRingBuffer
                0x00000000000ef788                MI_VENC_CORE_ReleaseBspRingBuffer
                0x00000000000ef8d4                MI_VENC_CORE_ReleaseRingPoolRecords
                0x00000000000ef9f4                MI_VENC_CORE_FreeCustMap
                0x00000000000efa94                MI_VENC_CORE_FreeRingPool
                0x00000000000efb54                MI_VENC_CORE_AllocChnMemory
                0x00000000000efcb0                MI_VENC_CORE_FreeChnMemory
                0x00000000000efd54                MI_VENC_CORE_GetResolution
                0x00000000000efdc4                MI_VENC_CORE_ClearInterAttrIfResChange
                0x00000000000efe64                MI_VENC_CORE_ClearUserAttrIfResChange
                0x00000000000eff04                MI_VENC_CORE_CheckResolution
                0x00000000000effa0                MI_VENC_CORE_AddRecordToBspRingList
                0x00000000000f009a                MI_VENC_CORE_AppendContentTailRecord
                0x00000000000f0158                MI_VENC_CORE_JpeRecordBspRingInfo
                0x00000000000f0364                MI_VENC_CORE_GetJpeDropRecordCnt
                0x00000000000f0394                MI_VENC_CORE_ReleaseJpeDropRecord
                0x00000000000f03cc                MI_VENC_CORE_ProcessTaskDone
                0x00000000000f0588                MI_VENC_CORE_ResetChnRes
                0x00000000000f0594                MI_VENC_CORE_WorkerThreadTimeoutMonitor
                0x00000000000f05b0                MI_VENC_CORE_FindChnByInstHandle
                0x00000000000f066c                MI_VENC_CORE_GetFreeTaskInfo
                0x00000000000f06d8                MI_VENC_CORE_PutTaskInfo
                0x00000000000f0710                MI_VENC_CORE_AddTaskInfo
                0x00000000000f0736                MI_VENC_CORE_SetInputPortSideBindMsg
                0x00000000000f07e0                MI_VENC_CORE_SetInputPortBufExtConf
                0x00000000000f0934                MI_VENC_CORE_SetRestartInterval
                0x00000000000f0a28                MI_VENC_CORE_ConfigVeAttr
                0x00000000000f0a9c                MI_VENC_CORE_ConfigInstance
                0x00000000000f0b2c                MI_VENC_CORE_SetRoiCfg
                0x00000000000f0bdc                _MI_VENC_CORE_CalculateVuiTimingInfo
                0x00000000000f0c62                _VencWrapperSetIntraRefreshInfo
                0x00000000000f0dec                MI_VENC_CORE_StreamOnAllChannel
                0x00000000000f0f04                MI_VENC_CORE_DisableChannel
                0x00000000000f102c                MI_VENC_CORE_EnableChannel
                0x00000000000f111c                MI_VENC_CORE_EnableSliceIrq
                0x00000000000f1288                MI_VENC_CORE_UpdateUserAttr
                0x00000000000f12c0                MI_VENC_CORE_UpdateUbrParam
                0x00000000000f1488                MI_VENC_CORE_ExecUserRcFunc
                0x00000000000f1540                MI_VENC_CORE_ConfigFrcPort
                0x00000000000f165c                MI_VENC_CORE_TransSysInputTaskToCommonBufferInfo
                0x00000000000f1788                MI_VENC_CORE_PreResetCodec
                0x00000000000f1894                MI_VENC_CORE_StreamOffAllChannel
                0x00000000000f1964                MI_VENC_CORE_InitModRes
                0x00000000000f1984                MI_VENC_CORE_DeInitChnOsRes
                0x00000000000f19aa                MI_VENC_CORE_FreeChnResHandle
                0x00000000000f1a80                MI_VENC_CORE_GetModuleRes
                0x00000000000f1a88                MI_VENC_CORE_AllocChnResHandle
                0x00000000000f1b68                MI_VENC_CORE_AllocDevResHandle
                0x00000000000f1c04                MI_VENC_CORE_FreeDevResHandle
                0x00000000000f1cec                MI_VENC_CORE_DestroyDevice
                0x00000000000f1e5c                MI_VENC_CORE_DeInitDev
                0x00000000000f1f34                MI_VENC_CORE_DeinitDevInChannel
                0x00000000000f1ff4                MI_VENC_CORE_GetCustomMapSize
                0x00000000000f200e                MI_VENC_CORE_SetCustomMap
                0x00000000000f2184                MI_VENC_CORE_SetDynamicAttr
                0x00000000000f2a28                MI_VENC_CORE_PmTryWake
                0x00000000000f2a84                MI_VENC_CORE_PmTrySleep
                0x00000000000f2ae0                MI_VENC_CORE_CreateDevice
                0x00000000000f2cb8                MI_VENC_PASS_OnPreProcessInputTask
                0x00000000000f33e8                MI_VENC_PASS_EnqueueInputTask
                0x00000000000f418c                MI_VENC_PASS_BarrierInputTask
                0x00000000000f42c4                MI_VENC_PASS_CheckInputTaskStatus
                0x00000000000f4760                MI_VENC_PASS_DequeueInputTask
                0x00000000000f4f98                MI_VENC_PASS_CheckOutputTaskStatus
                0x00000000000f4ff0                MI_VENC_PASS_DequeueOutputTask
                0x00000000000f5044                MI_VENC_PASS_NeedIndividualWorkThread
                0x00000000000f5072                MI_VENC_PASS_OnGetInputPortBindCapability
                0x00000000000f5178                MI_VENC_PASS_OnGetOutputPortBindCapability
                0x00000000000f518c                MI_VENC_PASS_OnBindInputPort
                0x00000000000f5744                MI_VENC_PASS_OnBindInputPortPost
                0x00000000000f5748                MI_VENC_PASS_OnUnBindInputPort
                0x00000000000f574c                MI_VENC_PASS_OnUnBindInputPortPost
                0x00000000000f5924                MI_VENC_PASS_OnBindOutputPort
                0x00000000000f5928                MI_VENC_PASS_OnUnBindOutputPort
                0x00000000000f592c                MI_VENC_PASS_OnInputPortFrcChanged
                0x00000000000f5a58                MI_VENC_PASS_OnCusFrcChanged
                0x00000000000f5ad8                MI_VENC_PASS_OnPmSuspendNotify
                0x00000000000f5b78                MI_VENC_PASS_OnPmResumeNotify
                0x00000000000f5b7c                MI_VENC_PASS_OnSuspend
                0x00000000000f5cf8                MI_VENC_PASS_OnResume
                0x00000000000f5dc4                MI_VENC_PASS_RejectCmdq
                0x00000000000f5e68                MI_VENC_PASS_ResetDevPass
                0x00000000000f6130                MI_VENC_DRVCFG_MiSysVFlushInvCache
                0x00000000000f617c                MI_VENC_DRVCFG_GetMiDeviceConfigHandle
                0x00000000000f618c                MI_VENC_DRVCFG_GetHalDevCb
                0x00000000000f61a0                MI_VENC_DRVCFG_MhalVencEncDone
                0x00000000000f6264                MI_VENC_DRVCFG_MhalVencEncodeCancel
                0x00000000000f62dc                MI_VENC_DRVCFG_MhalVencEncodeAddOutBuff
                0x00000000000f6350                _MI_VENC_DRVCFG_VencCodecIsrHandle
                0x00000000000f69b4                MI_VENC_DRVCFG_DriverProbe
                0x00000000000f69b8                MI_VENC_DRVCFG_DriverRemove
                0x00000000000f69bc                MI_VENC_DRVCFG_JPE_DriverProbe
                0x00000000000f69c0                MI_VENC_DRVCFG_JPE_DriverRemove
                0x00000000000f69c4                MI_VENC_PLATFORM_GetChipIdx
                0x00000000000f69d0                MI_VENC_PLATFORM_SetChipIdx
                0x00000000000f69dc                HalVcodecMathIntMin
                0x00000000000f69e4                HalVcodecMathIntMax
                0x00000000000f69ec                HalVcodecMathIntAbs
                0x00000000000f69f4                HalVcodecMathIntClip3
                0x00000000000f6a0a                HalVcodecMathUintMin
                0x00000000000f6a12                HalVcodecMathUintMax
                0x00000000000f6a1a                HalVcodecMathUintClip3
                0x00000000000f6a30                HalVcodecMathI64Clip3
                0x00000000000f6a58                HalVcodecMathU64Clip3
                0x00000000000f6a80                HalVcodecMathCeilLog2
                0x00000000000f6a98                VenLogOut
                0x00000000000f6b00                VenLogOutKmsg
                0x00000000000f6b68                VenLogE
                0x00000000000f6bd0                VenLogW
                0x00000000000f6c40                VenLogKmsg
                0x00000000000f6cc0                VenLogI
                0x00000000000f6d34                VenLogD
                0x00000000000f6da8                HalVcodecDumpReg
                0x00000000000f6e38                HalVcodecDumpRegx16
                0x00000000000f6eb8                HalVcodecDumpRegx32
                0x00000000000f6f38                HalVcodecCheckVer
                0x00000000000f6f64                HalVcodecDumpBuffer
                0x00000000000f8c38                MI_VENC_Wrapper_SetModParam
                0x00000000000f8d04                MI_VENC_WRAPPER_DriverRemove
                0x00000000000f8d74                MI_VENC_WRAPPER_DriverProbe
                0x00000000000f8e38                MI_VENC_wrapper_StreamOn
                0x00000000000f8e84                MI_VENC_wrapper_StreamOff
                0x00000000000f8ed8                MI_VENC_Wrapper_SetResolution
                0x00000000000f8fd0                MI_VENC_Wrapper_SetCrop
                0x00000000000f9010                MI_VENC_Wrapper_SetParamRef
                0x00000000000f9198                MI_VENC_Wrapper_SetRoiCfg
                0x00000000000f92b4                MI_VENC_Wrapper_SetCustomerMapBuffer
                0x00000000000f9374                MI_VENC_Wrapper_SetParamRc
                0x00000000000f939c                MI_VENC_Wrapper_SetParamRcAdvance
                0x00000000000f93b2                MI_VENC_Wrapper_SetRecRefRing
                0x00000000000f93c6                MI_VENC_Wrapper_SetFrameConfig
                0x00000000000f93de                MI_VENC_Wrapper_SetUserData
                0x00000000000f93e6                MI_VENC_Wrapper_SetBindNextInst
                0x00000000000f94ac                MI_VENC_Wrapper_SetProfile
                0x00000000000f9518                MI_VENC_Wrapper_SetDevClk
                0x00000000000f959c                MI_VENC_Wrapper_CreateDevice
                0x00000000000f9650                MI_VENC_Wrapper_DestroyDevice
                0x00000000000f96d8                MI_VENC_Wrapper_Suspend
                0x00000000000f9708                MI_VENC_Wrapper_Resume
                0x00000000000f973c                MI_VENC_Wrapper_SetDevMmaCb
                0x00000000000f9798                MI_VENC_Wrapper_SetVui
                0x00000000000f98bc                MI_VENC_Wrapper_SetParamDefloat
                0x00000000000f9938                MI_VENC_Wrapper_SetParamDeflicker
                0x00000000000f9990                MI_VENC_Wrapper_SetDevIsrCb
                0x00000000000f999a                MI_VENC_Wrapper_SetDevMaxRes
                0x00000000000f9a34                MI_VENC_Wrapper_DevPreReset
                0x00000000000f9a88                MI_VENC_Wrapper_DevReset
                0x00000000000f9c9c                MI_VENC_Wrapper_GetDevCmdqBufLen
                0x00000000000f9cd0                MI_VENC_Wrapper_CreateInstance
                0x00000000000f9e88                MI_VENC_Wrapper_DestoryInstance
                0x00000000000f9f10                MI_VENC_Wrapper_SetIntraRefresh
                0x00000000000f9f46                MI_VENC_Wrapper_SetDblk
                0x00000000000f9f84                MI_VENC_Wrapper_SetSplitCtl
                0x00000000000f9fb8                MI_VENC_Wrapper_SetTrans
                0x00000000000f9ff0                MI_VENC_Wrapper_SetRealTimeFps
                0x00000000000fa000                MI_VENC_Wrapper_SetInputMode
                0x00000000000fa026                MI_VENC_Wrapper_SetInputCompressMode
                0x00000000000fa090                MI_VENC_Wrapper_GetResolution
                0x00000000000fa0a0                MI_VENC_Wrapper_SetHskMode
                0x00000000000fa0b2                MI_VENC_Wrapper_GetNextFrameAttr
                0x00000000000fa0d4                MI_VENC_Wrapper_EncodeOneFrame
                0x00000000000fa328                MI_VENC_Wrapper_GetHalDefaultParam
                0x00000000000fa33c                MI_VENC_Wrapper_EncodeFrameDone
                0x00000000000fa9ae                MI_VENC_Wrapper_EncodeAddOutBuff
                0x00000000000faa38                MI_VENC_Wrapper_CheckInstanceStatus
                0x00000000000faae0                MI_VENC_Wrapper_SetParamDumpBuffer
                0x00000000000fab16                MI_VENC_WrapperSetParamPenalty
                0x00000000000fab6e                MI_VENC_Wrapper_SetParamScalinglist
                0x00000000000fac44                MI_VENC_Wrapper_DebugSetProcRcParams
                0x00000000000fae80                DrvVenc50MmaGetST_VencMiuProtectAttr
                0x00000000000fae88                DrvVenc50MmaAttrParametersInit
                0x00000000000faea8                DrvVenc50MmaAttrParametersDeinit
                0x00000000000faec8                DrvVenc50MmaMiuProtectEnable
                0x00000000000faff0                DrvVenc50MmaMiuProtectDisable
                0x00000000000fb120                DrvVenc50AllocateBuf
                0x00000000000fb228                DrvVenc50FreeBuf
                0x00000000000fb5cc                DrvVencRamlogRegist
                0x00000000000fb624                DrvVencRamlogUnRegist
                0x00000000000fb660                DrvVencRamlogInit
                0x00000000000fb678                DrvVencStarRamlogthread
                0x00000000000fb748                DrvVencRamlogDeInit
                0x00000000000fb7a8                _DrvVencDevCheckRegSize
                0x00000000000fb7e4                DrvVenc50AllocDev
                0x00000000000fb870                DrvVenc50GetDev
                0x00000000000fb8a0                DrvVenc50ReleaseDev
                0x00000000000fb91c                DrvVencDevHandle2DevId
                0x00000000000fb94c                _DrvVencDevGetDefaultRegValue
                0x00000000000fb95e                _DrvVencDevSetRiskInfo
                0x00000000000fb9a0                _DrvVencDevBankInit
                0x00000000000fb9f8                _DrvVencDevEncGpCtrlInit
                0x00000000000fba06                _DrvVencDevEncGpCtrlDeInit
                0x00000000000fba14                _DrvVencDevFirmWareInit
                0x00000000000fbb5c                _DrvVencDevCdfTableInit
                0x00000000000fbb60                _DrvVencDevFirmWareRelease
                0x00000000000fbb68                DrvVencDevFire
                0x00000000000fbbbc                DrvVencDevDone
                0x00000000000fbbdc                DrvVencDevStreamOff
                0x00000000000fbc1c                DrvVencDev50Init
                0x00000000000fbc34                DrvVencDev50Release
                0x00000000000fbd30                DrvVencDevInit
                0x00000000000fbf70                DrvVencDevSuspend
                0x00000000000fbf88                DrvVencDevResume
                0x00000000000fbfee                DrvVencAddOutBuffer
                0x00000000000fbff6                DrvVencPreReset
                0x00000000000fc012                DrvVencAbortFrame
                0x00000000000fc01a                DrvVencEnableHskMode
                0x00000000000fc044                DrvVencDebugWriteDumpDbg
                0x00000000000fc04c                DrvVencDebugWriteDumpRiscReg
                0x00000000000fc054                DrvVencDebugWriteDumpDebugReg
                0x00000000000fc05c                DrvVencSetTraceEventDump
                0x00000000000fc0cc                DrvVencDumpTraceToFile
                0x00000000000fd3ec                DrvVencCtxSetSplitPenalty
                0x00000000000fd434                _DrvVencCtxSetDefaultSeqParam
                0x00000000000fd56c                DrvVencDumpBuffer
                0x00000000000fdb84                DrvVencCtxTransSadScaleRatio
                0x00000000000fdbea                DrvVencCtxSetHwAdvanceConfig
                0x00000000000fdd18                DrvVencCtxInitRegMapBufAddr
                0x00000000000fdd48                DrvVencCtxEncRiscCfg
                0x00000000000fdd98                DrvVencCtxEncDone
                0x00000000000fdf18                DrvVencCtxCheckStatus
                0x00000000000fdf3c                DrvVencCtxRelease
                0x00000000000fe004                DrvVencCtxStreamOn
                0x00000000000fe188                DrvVencCtxStreamOff
                0x00000000000fe1d0                DrvVencCtxAcquire
                0x00000000000fe33c                DrvVencCtxForceIFrame
                0x00000000000fe370                DrvVencCtxIntraRefresh
                0x00000000000fe39e                DrvVencCtxEncFire
                0x00000000000fe468                DrvVencCtxShowRcParaInfo
                0x00000000000fe478                _DrvVencProcShowDevInfo
                0x00000000000fe934                _DrvVencProcShowCtxInfo
                0x00000000000ff5d8                MI_VENC_Wrapper_Venc50ProcShowExlog
                0x00000000000ff60c                MI_VENC_Wrapper_Venc50ProcWriteRamlog
                0x00000000000ff626                MI_VENC_Wrapper_Venc50ProcWriteRclog
                0x00000000000ff63c                MI_VENC_Wrapper_Venc50ProcShowLogCtl
                0x00000000000ff650                MI_VENC_Wrapper_Venc50ProcWriteLogCtl
                0x00000000000ff7fc                MI_VENC_Wrapper_Venc50ProcShowVcoreClk
                0x00000000000ff800                MI_VENC_Wrapper_Venc50ProcWriteVcoreClk
                0x00000000000ff822                MI_VENC_Wrapper_Venc50ProcShowRiscvClk
                0x00000000000ff826                MI_VENC_Wrapper_Venc50ProcWriteRiscvClk
                0x00000000000ff82c                _DrvVencClkRate
                0x00000000000ff880                DrvVencDevResourceClkSpecialDisable
                0x00000000000ff898                DrvVencDevResourceClkVenPll
                0x00000000000ff8c0                DrvVencDevResourceClkOn
                0x00000000000ff8e0                DrvVencDevResourceClkSet
                0x00000000000ff920                DrvVencDevResourceInit
                0x00000000000ffa98                DrvVencDevResourceDeInit
                0x00000000000ffaa2                DrvVencDevResourceRequestIrq
                0x00000000000ffaa6                DrvVencDevResourceFreeIrq
                0x00000000000ffbb4                _DrvVencClkOn
                0x00000000000ffbde                _DrvVencClkSet
                0x00000000000ffc58                _DrvVencResourceInit
                0x00000000000ffdd0                _DrvVencResourceDeInit
                0x00000000000ffe10                _DrvVencRequestIrq
                0x00000000000ffe40                _DrvVencFreeIrq
                0x00000000001006b4                HalMheOpsEncBuf
                0x0000000000100760                HalMheOpsEncCfg
                0x00000000001007f0                HalMheOpsEncDone
                0x0000000000100a80                HalMheOpsStreamOn
                0x0000000000100ab0                HalMheOpsRelease
                0x0000000000100ae0                HalMheOpsAcquire
                0x00000000001019aa                HalMheSyntaxInit
                0x00000000001019e4                HalMheSyntaxSeqCfg
                0x0000000000101b68                HalMheSyntaxEncSliceHeader
                0x000000000010233e                HalMfeOpsEncBuf
                0x000000000010244c                HalMfeOpsEncCfg
                0x00000000001024dc                HalMfeOpsEncDone
                0x0000000000102720                HalMfeOpsStreamOn
                0x0000000000102750                HalMfeOpsRelease
                0x0000000000102780                HalMfeOpsAcquire
                0x0000000000103274                HalMfeSyntaxInit
                0x00000000001032a2                HalMfeSyntaxSeqCfg
                0x0000000000103414                HalMfeSyntaxEncSliceHeader
                0x00000000001034fc                HalMfeSyntaxEncodeReorderRef
                0x00000000001035ac                HalMfeSyntaxIsStRefLt
                0x00000000001035dc                HalMfeSyntaxEncodeMmco
                0x0000000000104178                HalVencDpbManaOneFrame
                0x00000000001045f8                HalVencDpbUpdateFrame
                0x00000000001046da                HalVencDpbDoneFrame
                0x00000000001047d8                HalVencDpbInit
                0x00000000001047fa                HalVencDpbDeinit
                0x0000000000104acc                HalVencIosEncGpCtrlInit
                0x0000000000104b68                HalVencIosEncGpCtrlDeInit
                0x0000000000104b74                HalVencIosGetDefaultRegValue
                0x0000000000104c80                HalVencIosFirmWareInit
                0x0000000000104ef0                HalVencIosFirmWareDeInit
                0x0000000000104f60                HalVencIosFire
                0x0000000000105020                HalVencIosRelease
                0x0000000000105050                HalVencIosStreamOff
                0x0000000000105078                HalVencIosAcquire
                0x00000000001050cc                HalVencIsrHandlerPartB
                0x00000000001050ea                HalVencIosAddOutBuffer
                0x0000000000105112                HalVencPreReset
                0x0000000000105142                HalVencIosAbortFrame
                0x0000000000105298                HalVencIosEnableHskMode
                0x00000000001052b0                HalVencIosDebugDumpDbgWriteFile
                0x0000000000105398                HalVencIosDebugDumpRiscReg
                0x0000000000105584                HalVencIosDebugDumpDebugReg
                0x0000000000105810                HalVencIsrHandlerPartA
                0x00000000001059c0                HalVencIosSetTraceDumpParams
                0x0000000000105adc                HalVencIosDumpBufToFile
                0x0000000000105b6c                HalVencIosGetTraceDumpReg
                0x0000000000107d9c                HalVenOpsCaculateTmvpScale
                0x0000000000107e50                HalVencOpsVenCfg
                0x0000000000107e98                HalVencOpsRiscvFrameCfg
                0x0000000000107f84                HalVencOpsEncDone
                0x00000000001081cc                HalVencOpsCheckStatus
                0x00000000001085aa                HalVencRcDone
                0x00000000001086f8                HalVencRcRegUnsignedToSigend
                0x0000000000108718                HalVencRcFire
                0x0000000000108e54                HalVencRcSeqInit
                0x0000000000108ef8                HalVencRcInit
                0x0000000000108f78                HalVencRcDeflickerInit
                0x0000000000108fd8                HalVencRcSetSadDefaultParameter
                0x0000000000108fec                HalVencRcSetHalAlgDefaultParameter
                0x0000000000109058                HalVencRcGetHalDefaultParam
                0x000000000010906a                HalVencRcShowParaInfo
                0x0000000000109074                ss_et_calc_avg_cost
                0x00000000001090a2                ss_bw_calc_frame_lvl_dsr
                0x000000000010b3e4                ss_rc_cvbr_longterm_init
                0x000000000010c074                ss_rc_init
                0x000000000010c0f0                get_and_update_bits_bumpy_model_status
                0x000000000010c130                update_bits_bumpy_model
                0x000000000010c1f8                ss_rc_seq_init
                0x000000000010c258                ss_rc_seq_change
                0x000000000010c2e8                ss_rc_pic_init
                0x000000000010d638                update_lambda_factor
                0x000000000010d8f4                ss_rc_pic_end
                0x000000000010db80                ss_rc_calc_fixPt_lambda_from_qp
                0x000000000010dc64                ss_rc_get_hevc_lambda_setting
                0x000000000010e008                ss_rc_get_avc_lambda_setting
                0x000000000010e240                ss_rc_get_av1_lambda_setting
                0x000000000010e458                ss_rc_get_bpp_lut
                0x000000000010e598                ss_rc_get_lambda_lut
                0x000000000010e764                ss_rc_get_pic_bits_from_qp
                0x000000000010e790                ss_config_show_ven_para_info
                0x000000000010e8aa                fw_util_queue_init
                0x000000000010e8b8                fw_util_queue_put
                0x000000000010e8c8                fw_util_queue_get
                0x000000000010e8e0                fw_util_queue_read
                0x000000000010e8f8                fw_util_queue_last_idx
                0x000000000010e920                fw_util_queue_empty
                0x000000000010e938                fw_util_queue_full
                0x000000000010e950                fw_util_queue_valid
                0x000000000010e95e                fw_util_abs
                0x000000000010e966                fw_util_min
                0x000000000010e96e                fw_util_umin
                0x000000000010e976                fw_util_max
                0x000000000010e97e                fw_util_min_max
                0x000000000010e9c8                fw_util_min_64b
                0x000000000010e9e0                fw_util_max_64b
                0x000000000010e9f8                fw_util_min_max_64b
                0x000000000010ea24                fw_util_round_divide
                0x000000000010ea30                fw_util_min_max_ui
                0x000000000010ea3e                fw_util_divide_ceil
                0x000000000010ea4a                fw_util_sqrt
                0x000000000010ea6e                fw_util_msb
                0x000000000010ea86                fw_util_msb_u64
                0x000000000010eabc                fw_util_ceil_log2
                0x000000000010eaca                fw_util_align_floor
                0x000000000010ead6                fw_util_align_ceil
                0x000000000010eade                fw_util_square
                0x000000000010eae2                FINIT_U64
                0x000000000010eb20                FCONVERTtoI
                0x000000000010eb4c                FCONVERTtoS
                0x000000000010ebec                FABS
                0x000000000010ec12                FEQ
                0x000000000010ec36                FSIG
                0x000000000010ec3e                SWFINIT
                0x000000000010ec44                SWFINT
                0x000000000010ec76                SWFADD
                0x000000000010ecba                SWFSUB
                0x000000000010ecfe                FMIN
                0x000000000010ed2c                FMAX
                0x000000000010ed5c                FMINMAX
                0x000000000010ed78                FGE
                0x000000000010ed8e                FGT
                0x000000000010eda8                SWFMUL
                0x000000000010edbe                SWFDIV
                0x000000000010edea                SWFSQRT
                0x000000000010eec0                SWFLOG2_wPrecision
                0x000000000010ef28                SWFPOW2_wPrecision
                0x000000000010f018                rc_reset_rdq_model
                0x000000000010f0fc                rc_init_rdq_model
                0x000000000010f21c                rc_change_rdq_model_status
                0x000000000010f23a                rc_update_rdq_model
                0x000000000010f478                rc_calc_lambda_from_rdq_model
                0x000000000010f500                ss_set_defloat_param
                0x000000000010f528                ss_set_rc_defloat_sensitivity
                0x000000000010f558                ss_deflicker_calc_hevc_sao_offset_max
                0x000000000010f58c                ss_get_deflicker_param
                0x000000000010f5c8                ss_get_deflicker_rc_param
                0x000000000010f5e4                ss_deflicker_motion_sad_calcFactor
                0x000000000010f638                ss_deflicker_motion_sad_calcSADFactor
                0x00000000001104dc                GradIQP_update_cond
                0x00000000001106a0                rc_calc_bpp_from_qp
                0x00000000001106e0                calc_pic_qp
                0x000000000011095c                rc_get_lambda
                0x0000000000110986                use_lambda_from_model
                0x00000000001109b2                init_qp_filter
                0x00000000001109ee                update_qp_filter
                0x0000000000110a8c                reset_r_model_bpp_dqp
                0x0000000000110cd8                init_rc_models
                0x0000000000110cf6                reset_r_model_seq_param
                0x0000000000110d0c                update_rc_models
                0x0000000000110e94                alloc_gop_bit
                0x0000000000111948                MI_JPE_Wrapper_SetModParam
                0x000000000011197c                DrvJpeGetDeviceHandle
                0x000000000011199c                MI_JPE_Wrapper_SetDevClk
                0x00000000001119cc                MI_JPE_Wrapper_CreateDevice
                0x0000000000111a70                MI_JPE_Wrapper_DestroyDevice
                0x0000000000111acc                MI_JPE_Wrapper_Suspend
                0x0000000000111b0c                MI_JPE_Wrapper_Resume
                0x0000000000111b1c                MI_JPE_Wrapper_ForcePower
                0x0000000000111b62                MI_JPE_WRAPPER_DriverRemove
                0x0000000000111b9c                MI_JPE_WRAPPER_DriverProbe
                0x0000000000111cc4                MI_JPE_Wrapper_SetDevMmaCb
                0x0000000000111d24                MI_JPE_Wrapper_SetDevIsrCb
                0x0000000000111d2c                MI_JPE_Wrapper_DevReset
                0x0000000000111d3c                MI_JPE_Wrapper_GetDevCmdqBufLen
                0x0000000000111d46                MI_JPE_Wrapper_CreateInstance
                0x0000000000111d9c                MI_JPE_Wrapper_DestroyInstance
                0x0000000000111dbc                MI_JPE_Wrapper_SetUserData
                0x0000000000111dc2                MI_JPE_Wrapper_SetRestartInterval
                0x0000000000111df6                MI_JPE_Wrapper_SetParamRc
                0x0000000000111e36                MI_JPE_Wrapper_SetResolution
                0x0000000000111edc                MI_JPE_Wrapper_SetCrop
                0x0000000000111f26                MI_JPE_Wrapper_SetInputCompressMode
                0x0000000000111f2a                MI_JPE_Wrapper_StreamOn
                0x0000000000111fc0                MI_JPE_Wrapper_StreamOff
                0x0000000000111fdc                MI_JPE_Wrapper_SetFrameConfig
                0x0000000000112008                MI_JPE_Wrapper_ReleaseFrame
                0x000000000011202c                MI_JPE_Wrapper_GetResolution
                0x0000000000112054                MI_JPE_Wrapper_EncodeOneFrame
                0x00000000001121cc                MI_JPE_Wrapper_BarrierOneFrame
                0x0000000000112308                MI_JPE_Wrapper_EncodeFrameDone
                0x00000000001123a0                MI_JPE_Wrapper_EncodeAddOutBuff
                0x00000000001123e8                MI_JPE_Wrapper_EncodeCancel
                0x00000000001123f8                MI_JPE_Wrapper_QueryBufSize
                0x000000000011240c                MI_JPE_Wrapper_CheckInstanceStatus
                0x0000000000112a58                _DrvJpeCtxGetAlignSize
                0x0000000000112bbc                DrvJpeCtxUpdateBspRingReadPtr
                0x0000000000112cf0                DrvJpeCtxGetCurrEncTask
                0x0000000000112d3e                DrvJpeCtxStreamOn
                0x0000000000112e24                DrvJpeCtxAcquire
                0x0000000000112ef0                DrvJpeCtxRelease
                0x0000000000112f80                DrvJpeCtxQueryInternalBufferSize
                0x0000000000112fc2                DrvJpeCtxReset
                0x0000000000113060                DrvJpeCtxEncodeFrame
                0x00000000001131ec                DrvJpeCtxEncodeDone
                0x0000000000113364                DrvJpeCtxEncodeCancel
                0x00000000001133d0                DrvJpeCtxCheckInstanceStatus
                0x00000000001134f0                DrvJpeDevRegister
                0x0000000000113520                DrvJpeDevUnregister
                0x0000000000113558                DrvJpeDevCreate
                0x0000000000113640                DrvJpeDevDestroy
                0x0000000000113698                DrvJpeDevReset
                0x000000000011371c                DrvJpeDevCheckTaskUsed
                0x000000000011374e                DrvJpeDevPowerOn
                0x000000000011379e                DrvJpeDevEncDone
                0x0000000000113804                DrvJpeDevIsr
                0x0000000000113878                DrvJpeDevAddOutBuff
                0x0000000000113930                DrvJpeDevEncCancel
                0x00000000001139b4                DrvJpeDevEncFire
                0x0000000000113a12                DrvJpeDevSetBank
                0x0000000000113a2e                DrvJpeDevDebugDump
                0x0000000000113de6                DrvJpeMarkerInit
                0x0000000000113e50                DrvJpeMarkerRelease
                0x0000000000113e8c                DrvJpeMarkerEncHeader
                0x0000000000114322                DrvJpeRcInit
                0x000000000011435c                DrvJpeRcSeqInit
                0x000000000011454c                DrvJpeRcPicInit
                0x0000000000114680                _DrvJpeRcStatic
                0x000000000011469a                DrvJpeRcPicEnd
                0x000000000011475c                DrvJpeRcUtilFinit
                0x0000000000114762                DrvJpeRcUtilFloatAdd
                0x00000000001147a6                DrvJpeRcUtilFloatSub
                0x00000000001147ea                DrvJpeRcUtilFloatMul
                0x0000000000114800                DrvJpeRcUtilFloatDiv
                0x000000000011482c                DrvJpeRcUtilFloatLog2
                0x0000000000114882                DrvJpeRcUtilFloatPower2
                0x0000000000114960                DrvJpeRcUtilFloatInt
                0x0000000000114992                DrvJpeRcUtilFloatMin
                0x00000000001149c0                DrvJpeRcUtilFloatMax
                0x00000000001149f0                DrvJpeRcUtilFloatMinMax
                0x00000000001150e4                _DrvJpeProcShowDevInfo
                0x0000000000115124                _DrvJpeProcShowCtxInfo
                0x0000000000115218                DrvJpeGetBestClkRate
                0x000000000011523a                DrvJpeClkSetCycle
                0x0000000000115288                DrvJpeSetDefaultClkAttribute
                0x00000000001152c4                DrvJpeClkGetResourceMem
                0x00000000001152c8                DrvJpeClkGetResourceIrq
                0x00000000001152f4                DrvJpeClkEnableClock
                0x0000000000115328                DrvJpeClkDeinit
                0x0000000000115362                DrvJpeSetSStarClkRate
                0x000000000011538a                DrvJpeClkInit
                0x00000000001153e8                MI_VENC_Wrapper_ShowJpeClock
                0x00000000001154e0                MI_VENC_Wrapper_SetJpeClock
                0x0000000000115534                HalJpeOpsParseToRegTable
                0x000000000011596c                _HalJpeOpsDumpReg
                0x000000000011596e                HalJpeOpsGetDumpRegValue
                0x0000000000115ab6                HalJpeIosRelease
                0x0000000000115adc                HalJpeIosAcquire
                0x0000000000115b18                _HalJpeIosClearIrq
                0x0000000000115b36                HalJpeIosEncFire
                0x0000000000116474                HalJpeIosAddOutBuf
                0x00000000001164d8                HalJpeIosAddBufTriggerHw
                0x00000000001164f6                HalJpeIosDebugReadReg
                0x00000000001164fc                HalJpeIosDebugDump
                0x00000000001165ec                HalJpeIosIsr
                0x0000000000116764                HalJpeIosResetHw
                0x0000000000116772                HalJpeIosMaskIrq
                0x0000000000116796                HalJpeIosResetFrameIdx
                0x00000000001167b4                HalJpeIosForceCmdqIrq
 .text          0x00000000001167c8       0xb0 /home/lixx/ZGCX/S1_Project/SSC308QE_SDK/Iford_IMD00V005.0.1_fastboot/SourceCode/SSC308QE_SDK_TEXT/SSC308QE_CODEBASE/sdk/linux/init/venc/venc_init.o
                0x00000000001167c8                DrvVencOfFindCompatibleNode
                0x00000000001167cc                DrvVencOfDeviceIsAvailable
                0x00000000001167d4                DrvVencOfFindProperty
                0x00000000001167d8                DrvVencMsysOfPropertyReadU32Index
                0x00000000001167dc                DrvVencCallUserModeHelper
                0x00000000001167e2                DrvVencCamClkGetHw
                0x00000000001167e6                DrvVencCamClkGetParentByIndex
                0x00000000001167f2                DrvVencCamOfIrqToResource
                0x00000000001167f6                DrvVencCamOfAddressToResource
                0x0000000000116854                DrvVencCamIrqOfParseAndMap
                0x0000000000116858                venc_mod_init
                0x0000000000116868                venc_mod_exit
 .text          0x0000000000116878    0x12a10 /home/lixx/ZGCX/S1_Project/SSC308QE_SDK/Iford_IMD00V005.0.1_fastboot/SourceCode/SSC308QE_SDK_TEXT/SSC308QE_CODEBASE/sdk/linux/init/scl/../../obj/uclibc/9.1.0/scl.o
                0x0000000000116878                MI_SCL_IOCTL_CreateDevice
                0x00000000001168e8                MI_SCL_IOCTL_DestoryDevice
                0x0000000000116960                MI_SCL_IOCTL_CreateChannel
                0x00000000001169dc                MI_SCL_IOCTL_DestroyChannel
                0x0000000000116a60                MI_SCL_IOCTL_SetChnParam
                0x0000000000116a88                MI_SCL_IOCTL_GetChnParam
                0x0000000000116ab0                MI_SCL_IOCTL_SetInputPortCrop
                0x0000000000116ad8                MI_SCL_IOCTL_GetInputPortCrop
                0x0000000000116b00                MI_SCL_IOCTL_StartChannel
                0x0000000000116b24                MI_SCL_IOCTL_StopChannel
                0x0000000000116b48                MI_SCL_IOCTL_SetOutputPortParam
                0x0000000000116b74                MI_SCL_IOCTL_GetOutputPortParam
                0x0000000000116ba0                MI_SCL_IOCTL_EnableOutputPort
                0x0000000000116bc8                MI_SCL_IOCTL_DisableOutputPort
                0x0000000000116bf0                MI_SCL_IOCTL_StretchBuf
                0x0000000000116c1c                MI_SCL_IOCTL_StretchBufOsd
                0x0000000000116d78                MI_DEVICE_WrapperFunction_scl
                0x0000000000116d94                IS_PRINT_MATCH_scl
                0x0000000000116dfc                MI_DEVICE_Instance_scl
                0x0000000000116e04                MI_DEVICE_GetSelfDir_scl
                0x0000000000116e12                scl__module_init
                0x0000000000116edc                scl__module_exit
                0x00000000001172c4                MI_SCL_DRVCFG_ReadFence
                0x00000000001172fc                MI_SCL_DRVCFG_GetClkDescript
                0x000000000011731c                MI_SCL_CHECK_DevChnCreate
                0x00000000001173b0                MI_SCL_PASS_OnPmResumeNotify
                0x0000000000117880                MI_SCL_PASS_OnPmSuspendNotify
                0x0000000000117a58                MI_SCL_DRVCFG_TsemDown
                0x0000000000117a64                MI_SCL_DRVCFG_TsemUp
                0x000000000011815c                MI_SCL_DRVCFG_PatgenConfig
                0x00000000001181a0                MI_SCL_IMPL_RegisterDbgCb
                0x000000000011822c                MI_SCL_IMPL_UnRegisterDbgCb
                0x0000000000118298                MI_SCL_DRVCFG_SetClkCfg
                0x0000000000118924                MI_SCL_IMPL_LockChn
                0x0000000000118944                MI_SCL_IMPL_UnLockChn
                0x0000000000118e54                MI_SCL_PASS_GetDebugProcfsOps
                0x0000000000118f28                MI_SCL_PASS_SetEnqueueMsg
                0x0000000000118f5c                MI_SCL_IMPL_StartChannel
                0x0000000000119024                MI_SCL_IMPL_StopChannel
                0x0000000000119128                MI_SCL_PASS_GetDropFifoEmptyNode
                0x0000000000119148                MI_SCL_PASS_PushDropFifo
                0x0000000000119156                MI_SCL_PASS_PopDropFifo
                0x0000000000119234                MI_SCL_PASS_Lock
                0x00000000001192b8                MI_SCL_PASS_UnLock
                0x000000000011933c                MI_SCL_PASS_DequeueInputTask
                0x0000000000119478                MI_SCL_DRVGETCFG_DdaCfg
                0x00000000001195f4                MI_SCL_DRVGETCFG_HvspCfg
                0x00000000001197b0                MI_SCL_DRVGETCFG_BufCfg
                0x0000000000119a20                MI_SCL_DRVCFG_TsemInit
                0x0000000000119a40                MI_SCL_DRVCFG_TsemDeInit
                0x0000000000119a5c                MI_SCL_DRVCFG_GetRingLineCnt
                0x0000000000119b54                MI_SCL_DRVCFG_BufBlitPa
                0x0000000000119d8c                MI_SCL_DRVCFG_RequestEnableIrq
                0x0000000000119fb8                MI_SCL_DRVCFG_DisableFreeIrq
                0x000000000011a02c                MI_SCL_DRVCFG_ChnDetachScl
                0x000000000011a0e4                MI_SCL_DRVCFG_InputBufferConfig
                0x000000000011a27c                MI_SCL_DRVCFG_OsdClearWmFbInfo
                0x000000000011a344                MI_SCL_DRVCFG_OutputBufferConfig
                0x000000000011a5c4                MI_SCL_DRVCFG_SetDevSquenceNumber
                0x000000000011a5c8                MI_SCL_DRVCFG_SendMsg
                0x000000000011a5cc                MI_SCL_DRVCFG_WaitDone
                0x000000000011a618                MI_SCL_DRVCFG_GetActiveBuff
                0x000000000011a6c0                MI_SCL_DRVCFG_GetQpHistogram
                0x000000000011a7a0                MI_SCL_PASS_DequeueOutputTask
                0x000000000011a970                MI_SCL_DRVCFG_CheckIrq
                0x000000000011adb4                MI_SCL_DRVCFG_MapConfig
                0x000000000011adb8                MI_SCL_DRVCFG_GetCMDQ
                0x000000000011adc2                MI_SCL_DRVCFG_ReleaseCMDQ
                0x000000000011adc6                MI_SCL_DRVCFG_UpdateAndKickOffPriCmdq
                0x000000000011adca                MI_SCL_DRVCFG_ChnInit
                0x000000000011ae2c                MI_SCL_DRVCFG_ChnDeInit
                0x000000000011ae44                MI_SCL_DRVCFG_ClkSetEnable
                0x000000000011ae98                MI_SCL_DRVCFG_Suspend
                0x000000000011af00                MI_SCL_DRVCFG_DeInit
                0x000000000011af44                MI_SCL_DRVCFG_PlatformInit
                0x000000000011af70                MI_SCL_DRVCFG_PlatformDeInit
                0x000000000011afa4                MI_SCL_DRVCFG_SetHwAutoSyncLdcCfg
                0x000000000011afc2                MI_SCL_PASS_OnBindInputPort
                0x000000000011b338                MI_SCL_PASS_OnUnBindInputPort
                0x000000000011b454                MI_SCL_DRVCFG_GetDvFifoFence
                0x000000000011b4bc                MI_SCL_PASS_DvFifoInjecDropFifo
                0x000000000011b560                MI_SCL_CHECK_IsOutputRealTimeJpeg
                0x000000000011b57a                MI_SCL_CHECK_IsOutputHWRingH26x
                0x000000000011b58a                MI_SCL_CHECK_IsYUV422SampeRate
                0x000000000011b5a6                MI_SCL_CHECK_IsExternChn
                0x000000000011b5cc                MI_SCL_CHECK_DoOsdStridePatch
                0x000000000011b620                MI_SCL_CHECK_InputAddrValid
                0x000000000011b6bc                MI_SCL_CHECK_OutputAddrValid
                0x000000000011b770                MI_SCL_CHECK_DevChnCreateOutPortSupport
                0x000000000011b854                MI_SCL_IMPL_GetOutputPortParam
                0x000000000011b8a8                MI_SCL_IMPL_EnableOutputPort
                0x000000000011b9e0                MI_SCL_CHECK_InputPhylayoutTypeVaild
                0x000000000011ba88                MI_SCL_CHECK_CropValid
                0x000000000011be64                MI_SCL_CHECK_OutputPixelValid
                0x000000000011bf18                MI_SCL_CHECK_InputPixelValid
                0x000000000011bffc                MI_SCL_CHECK_MirrorFlipVaild
                0x000000000011c10c                MI_SCL_CHECK_InputSizeValid
                0x000000000011c1dc                MI_SCL_CHECK_OutputSizeValid
                0x000000000011c29c                MI_SCL_CHECK_DevAttr
                0x000000000011c300                MI_SCL_CHECK_DestroyDev
                0x000000000011c3a4                MI_SCL_CHECK_ChnAttr
                0x000000000011c46c                MI_SCL_CHECK_ChnParam
                0x000000000011c510                MI_SCL_CHECK_OutputCEValid
                0x000000000011c5a8                MI_SCL_CHECK_OutputParam
                0x000000000011c684                MI_SCL_CHECK_StretchParam
                0x000000000011c938                _MI_SCL_CHECK_MultiRingOutPutParam
                0x000000000011c9ec                MI_SCL_CHECK_OutputTaskAllRewind
                0x000000000011ca28                MI_SCL_CHECK_OutputSizeAlign
                0x000000000011cc4c                MI_SCL_CHECK_InputModeValid
                0x000000000011cc56                MI_SCL_CHECK_LockJpeRealTimePixel
                0x000000000011ccbc                MI_SCL_PASS_OnBindOutputPort
                0x000000000011cec8                MI_SCL_IMPL_SetOutputPortParam
                0x000000000011cfe4                MI_SCL_CHECK_UnLockJpeRealTimePixel
                0x000000000011d000                MI_SCL_CHECK_InputOuputPixelCorresponding
                0x000000000011d02a                MI_SCL_TRANS_GetSclRamSize
                0x000000000011d148                MI_SCL_PASS_FindSclJpegRamMaxSize
                0x000000000011d220                MI_SCL_PASS_UpdataSclJpegRamMaxSize
                0x000000000011d35e                MI_SCL_PASS_OnUnBindOutputPort
                0x000000000011d538                MI_SCL_TRANS_SysOutputTaskToCommonBufferInfo
                0x000000000011d9c0                MI_SCL_IMPL_DisableOutputPort
                0x000000000011dad0                MI_SCL_TRANS_PixelStorage
                0x000000000011db04                MI_SCL_TRANS_ByteWritePixelOffsetByte
                0x000000000011dcd8                MI_SCL_TRANS_GetBuffStartAddr
                0x000000000011dd50                MI_SCL_TRANS_PixelToBit
                0x000000000011df0c                MI_SCL_TRANS_MIPixelToMHal
                0x000000000011df80                MI_SCL_TRANS_StrideToWidth
                0x000000000011dff8                MI_SCL_TRANS_MISclIdToMhalDmaPort
                0x000000000011e090                MI_SCL_DRVCFG_ClearDvFifo
                0x000000000011e130                MI_SCL_DRVCFG_Reset
                0x000000000011e14a                MI_SCL_DRVCFG_ResetDev
                0x000000000011e1c4                MI_SCL_PASS_ResetDevPass
                0x000000000011e210                MI_SCL_DRVCFG_Resume
                0x000000000011e298                MI_SCL_DRVCFG_Init
                0x000000000011e2e2                MI_SCL_TRANS_MhalDmaPortToRgnSclId
                0x000000000011e328                MI_SCL_TRANS_SclSrcSelectToRgnSrcType
                0x000000000011e36c                MI_SCL_DRVCFG_RgnProcess
                0x000000000011e590                MI_SCL_DRVCFG_RgnBarrier
                0x000000000011e6d0                MI_SCL_PASS_BarrierInputTask
                0x000000000011e7dc                MI_SCL_DRVCFG_RgnNotifyDone
                0x000000000011e958                MI_SCL_PASS_CheckInputTaskStatus
                0x000000000011ea24                MI_SCL_PASS_CheckOutputTaskStatus
                0x000000000011eb48                MI_SCL_DRVCFG_RgnSuspend
                0x000000000011eca4                MI_SCL_PASS_OnSuspend
                0x000000000011edc4                MI_SCL_DRVCFG_RgnResume
                0x000000000011ef24                MI_SCL_PASS_OnResume
                0x000000000011f040                MI_SCL_DRVCFG_RgnPassDeinit
                0x000000000011f150                MI_SCL_TRANS_SysPixelToRgnPixel
                0x000000000011f1cc                MI_SCL_DRVCFG_OsdUpdateWmFbInfo
                0x000000000011f354                MI_SCL_TRANS_LayOutToBindMode
                0x000000000011f3b4                MI_SCL_CHECK_OutputBufferInfo
                0x000000000011f5b0                MI_SCL_TRANS_BindModeToDmaType
                0x000000000011f6bc                MI_SCL_TRANS_BindModuleDevidToMhalDevId
                0x000000000011f724                MI_SCL_DRVCFG_InputConfig
                0x000000000011f7f4                MI_SCL_DRVCFG_PreOutputDmaConfig
                0x000000000011f916                MI_SCL_PASS_OnPrepareOutputTaskMetaInfo
                0x000000000011fb00                MI_SCL_DRVCFG_OutputAttrConfig
                0x000000000011fde8                MI_SCL_TRANS_GetInputBufferValidStride
                0x000000000011fe04                MI_SCL_CHECK_InputBufferInfo
                0x000000000012017c                MI_SCL_TRANS_SysInputTaskToCommonBufferInfo
                0x0000000000120498                MI_SCL_PASS_OnPreProcessInputTask
                0x00000000001207e0                MI_SCL_TRANS_MIFiltertypeToMhal
                0x0000000000120844                MI_SCL_TRANS_GetPlaneNum
                0x0000000000120886                MI_SCL_DRVCFG_Process
                0x0000000000120aa0                MI_SCL_PASS_EnqueueInputTask
                0x0000000000120dbc                MI_SCL_DRVCFG_ChnAttachScl
                0x0000000000120ef4                MI_SCL_DRVCFG_ChangeMultiChnSrc
                0x0000000000121178                MI_SCL_MODPARAM_ModuleDbgParamPrint
                0x0000000000121780                MI_SCL_MODPARAM_HWSclDbgParamInit
                0x00000000001219c8                MI_SCL_MODPARAM_DevDbgParamInit
                0x0000000000121d70                MI_SCL_MODPARAM_ModuleDbgParamInit
                0x0000000000121de0                MI_SCL_MODPARAM_UpdateModuleDbg
                0x0000000000121e40                MI_SCL_MODPARAM_AllocModuleDbg
                0x0000000000122028                MI_SCL_MODPARAM_ReleaseModuleDbg
                0x00000000001220f0                MI_SCL_IMPL_Insmod
                0x0000000000122114                MI_SCL_IMPL_Rmmod
                0x0000000000122132                MI_SCL_IMPL_Init
                0x00000000001221b8                MI_SCL_IMPL_CreateDevice
                0x00000000001224fc                MI_SCL_IMPL_CreateChannel
                0x00000000001226f4                MI_SCL_IMPL_DestroyChannel
                0x0000000000122968                MI_SCL_IMPL_DestroyDevice
                0x0000000000122ad4                MI_SCL_IMPL_DeInit
                0x0000000000122c60                MI_SCL_IMPL_SetChnParam
                0x0000000000122d54                MI_SCL_IMPL_GetChnParam
                0x0000000000122d98                MI_SCL_IMPL_SetInputPortCrop
                0x00000000001230a4                MI_SCL_IMPL_GetInputPortCrop
                0x00000000001230f8                MI_SCL_IMPL_StretchBufByVdec
                0x00000000001234d8                MI_SCL_IMPL_StretchBuf
                0x0000000000123540                MI_SCL_IMPL_StretchBufOsd
                0x00000000001236c0                HAL_SCL_PLATFORM_SupportRdmaCrop
                0x00000000001236e2                HAL_SCL_PLATFORM_SupportOutputCrop
                0x00000000001236ea                HAL_SCL_PLATFORM_DevSupportRot
                0x00000000001236f0                HAL_SCL_PLATFORM_DevSupportInputCE
                0x0000000000123758                HAL_SCL_PLATFORM_SupportInputCE
                0x00000000001237c0                HAL_SCL_PLATFORM_SupportOutputCE
                0x0000000000123800                HAL_SCL_PLATFORM_SupportInputBufferConfig
                0x000000000012381c                HAL_SCL_PLATFORM_SupportInputImiEmiMode
                0x0000000000123838                HAL_SCL_PLATFORM_SupportInputIspRealTime
                0x0000000000123844                HAL_SCL_PLATFORM_SupportInputHvpRealTime
                0x0000000000123848                HAL_SCL_PLATFORM_SupportInputYuvRealTime
                0x000000000012385a                HAL_SCL_PLATFORM_SupportInputRingMode
                0x0000000000123862                HAL_SCL_PLATFORM_SupportInputLowlatency
                0x0000000000123872                HAL_SCL_PLATFORM_SupportOutputTileMode
                0x00000000001238ac                HAL_SCL_PLATFORM_GetOsdHwLimitStride
                0x00000000001238b6                HAL_SCL_PLATFORM_SupportMirrorPixel
                0x0000000000123900                HAL_SCL_PLATFORM_GetOutputByteWriteAlign
                0x0000000000123948                HAL_SCL_PLATFORM_SupportOutputRing
                0x0000000000123964                HAL_SCL_PLATFORM_SupportJpeRealTimePixel
                0x00000000001239b4                HAL_SCL_PLATFORM_GetFrameIndex
                0x00000000001239ee                HAL_SCL_PLATFORM_GetInputWHAlign
                0x0000000000123bf4                HAL_SCL_PLATFORM_GetBufferWinAlign
                0x0000000000123d8c                HAL_SCL_PLATFORM_GetDevSrcSelectMask
                0x0000000000123de4                HAL_SCL_PLATFORM_CalcSubDevSclHw
                0x0000000000123e2c                HAL_SCL_PLATFORM_MultiDevIdSupport
                0x0000000000123e36                HAL_SCL_PLATFORM_GetInputMaxWidth
                0x0000000000123e98                HAL_SCL_PLATFORM_GetOutputMaxWidth
                0x0000000000123ef0                HAL_SCL_PLATFORM_GetSourcePatternDev
                0x0000000000123f58                HAL_SCL_PLATFORM_GetOutPutRealTimeRamType
                0x0000000000123f60                HAL_SCL_PLATFORM_SupportDDALineBufMd
                0x0000000000123f64                HAL_SCL_PLATFORM_SupportMultiRing
                0x0000000000123f68                HAL_SCL_PLATFORM_SupportDfsClk
                0x0000000000123f6c                HAL_SCL_PLATFORM_SupportMultiRingMirror
                0x0000000000123f74                HAL_SCL_PLATFORM_SupportMultiRingFlip
                0x0000000000123f78                HAL_SCL_PLATFORM_SupportMultiRingPixel
                0x0000000000123f82                HAL_SCL_PLATFORM_GetHvspInWidthPixelAlign
                0x0000000000127c42                HAL_SCL_CHIP_MirFlip
                0x0000000000127c5c                HAL_SCL_CHIP_Dma
                0x0000000000127d3e                HAL_SCL_CHIP_Size
                0x0000000000127d76                HAL_SCL_CHIP_Process
                0x0000000000127db0                HAL_SCL_CHIP_CreateChannel
                0x0000000000127e70                HAL_SCL_CHIP_WaitCmdqIdle
                0x0000000000127ed0                HAL_SCL_CHIP_HwClose
                0x000000000012802c                HAL_SCL_CHIP_SwReset
                0x0000000000128090                HAL_SCL_CHIP_WaitDone
                0x00000000001280d4                HAL_SCL_CHIP_GetQpHistogram
                0x00000000001280f0                HAL_SCL_CHIP_SetFclkGate
                0x0000000000128114                HAL_SCL_CHIP_McgEnCltr
                0x00000000001281e4                HAL_SCL_CHIP_ModuResParamCfg
                0x000000000012824c                HAL_SCL_CHIP_HwInit
                0x0000000000128490                HAL_SCL_CHIP_HwDeinit
                0x00000000001284e0                HAL_SCL_CHIP_SetPatGen
                0x0000000000128778                HAL_SCL_CHIP_GetProcessCnt
                0x00000000001287a4                HAL_SCL_CHIP_ClearScl2JpeLineCnt
                0x0000000000128848                HAL_SCL_CHIP_GetMultiRingHwInfo
                0x0000000000128874                HAL_SCL_CHIP_DvFifoClear
                0x0000000000128890                HAL_SCL_CHIP_DvFifoEmpty
                0x00000000001288a4                HAL_SCL_CHIP_DvFifoPop
                0x00000000001288c4                HAL_SCL_CHIP_DvFifoRead
                0x00000000001288d4                HAL_SCL_CHIP_DvFifoWrite
                0x0000000000128988                HAL_SCL_IRQ_SetIrqMask
                0x0000000000128a14                HAL_SCL_IRQ_GetIrqBit
                0x0000000000128ad4                HAL_SCL_IRQ_SetIrqClear
                0x0000000000128b28                HAL_SCL_IRQ_ForceCmdqIrqEn
                0x0000000000128bbc                HAL_SCL_IRQ_CmdqIntMskEn
                0x0000000000128c38                HAL_SCL_IRQ_GetFlag
                0x0000000000128c7c                HAL_SCL_IRQ_Init
                0x0000000000128cbe                HAL_SCL_IRQ_Deinit
                0x0000000000128cc2                HAL_SCL_IRQ_GetFenceId
                0x0000000000128f9c                HAL_SCL_UTILITY_W2BMsk
                0x0000000000129064                HAL_SCL_UTILITY_RegFire
                0x00000000001290f0                HAL_SCL_UTILITY_PollWait
                0x0000000000129164                HAL_SCL_UTILITY_GetTimeStamp
                0x00000000001291b4                HAL_SCL_UTILITY_Init
                0x0000000000129254                HAL_SCL_UTILITY_Deinit
 .text          0x0000000000129288        0x0 /home/lixx/ZGCX/S1_Project/SSC308QE_SDK/Iford_IMD00V005.0.1_fastboot/SourceCode/SSC308QE_SDK_TEXT/SSC308QE_CODEBASE/sdk/linux/init/scl/scl_export.o
 .text          0x0000000000129288       0x74 /home/lixx/ZGCX/S1_Project/SSC308QE_SDK/Iford_IMD00V005.0.1_fastboot/SourceCode/SSC308QE_SDK_TEXT/SSC308QE_CODEBASE/sdk/linux/init/scl/scl_init.o
                0x0000000000129288                HAL_SCL_MODULE_GetDevNodeHandle
                0x0000000000129298                HAL_SCL_MODULE_MatchIrqID
                0x00000000001292dc                scl_mod_init
                0x00000000001292ec                scl_mod_exit
 *(.gnu.warning)

.init.text      0x0000000000000000       0x42
 .init.text     0x0000000000000000       0x42 /home/lixx/ZGCX/S1_Project/SSC308QE_SDK/Iford_IMD00V005.0.1_fastboot/SourceCode/SSC308QE_SDK_TEXT/SSC308QE_CODEBASE/sdk/linux/init/module.o
                0x0000000000000000                init_module

.exit.text      0x0000000000000000       0x42
 .exit.text     0x0000000000000000       0x42 /home/lixx/ZGCX/S1_Project/SSC308QE_SDK/Iford_IMD00V005.0.1_fastboot/SourceCode/SSC308QE_SDK_TEXT/SSC308QE_CODEBASE/sdk/linux/init/module.o
                0x0000000000000000                cleanup_module

.text.unlikely  0x0000000000000000       0x58
 .text.unlikely
                0x0000000000000000       0x10 /home/lixx/ZGCX/S1_Project/SSC308QE_SDK/Iford_IMD00V005.0.1_fastboot/SourceCode/SSC308QE_SDK_TEXT/SSC308QE_CODEBASE/sdk/linux/init/sensor/csi_init.o
 .text.unlikely
                0x0000000000000010       0x48 /home/lixx/ZGCX/S1_Project/SSC308QE_SDK/Iford_IMD00V005.0.1_fastboot/SourceCode/SSC308QE_SDK_TEXT/SSC308QE_CODEBASE/sdk/linux/init/sys/sys_init.o
                0x0000000000000010                MI_SYS_ShowAllTask

.fini
 *(SORT_NONE(.fini))

.rodata         0x0000000000000000    0x1059a
 *(.rodata)
 .rodata        0x0000000000000000      0x541 /home/lixx/ZGCX/S1_Project/SSC308QE_SDK/Iford_IMD00V005.0.1_fastboot/SourceCode/SSC308QE_SDK_TEXT/SSC308QE_CODEBASE/sdk/linux/init/sensor/../../obj/uclibc/9.1.0/sensor.o
 .rodata        0x0000000000000541       0x11 /home/lixx/ZGCX/S1_Project/SSC308QE_SDK/Iford_IMD00V005.0.1_fastboot/SourceCode/SSC308QE_SDK_TEXT/SSC308QE_CODEBASE/sdk/linux/init/sensor/csi_init.o
 *fill*         0x0000000000000552        0x2 
 .rodata        0x0000000000000554      0x1d8 /home/lixx/ZGCX/S1_Project/SSC308QE_SDK/Iford_IMD00V005.0.1_fastboot/SourceCode/SSC308QE_SDK_TEXT/SSC308QE_CODEBASE/sdk/linux/init/sensor/sensor_init.o
 .rodata        0x000000000000072c      0xb38 /home/lixx/ZGCX/S1_Project/SSC308QE_SDK/Iford_IMD00V005.0.1_fastboot/SourceCode/SSC308QE_SDK_TEXT/SSC308QE_CODEBASE/sdk/linux/init/aio/../../obj/uclibc/9.1.0/aio.o
                0x0000000000001166                g_aHpfCutOffFreq
                0x00000000000011e6                g_aMicInCombineGainTable
 .rodata        0x0000000000001264       0x54 /home/lixx/ZGCX/S1_Project/SSC308QE_SDK/Iford_IMD00V005.0.1_fastboot/SourceCode/SSC308QE_SDK_TEXT/SSC308QE_CODEBASE/sdk/linux/init/aio/aio_init.o
 .rodata        0x00000000000012b8      0x334 /home/lixx/ZGCX/S1_Project/SSC308QE_SDK/Iford_IMD00V005.0.1_fastboot/SourceCode/SSC308QE_SDK_TEXT/SSC308QE_CODEBASE/sdk/linux/init/rgn/../../obj/uclibc/9.1.0/rgn.o
 .rodata        0x00000000000015ec      0x666 /home/lixx/ZGCX/S1_Project/SSC308QE_SDK/Iford_IMD00V005.0.1_fastboot/SourceCode/SSC308QE_SDK_TEXT/SSC308QE_CODEBASE/sdk/linux/init/ive/../../obj/uclibc/9.1.0/ive.o
 .rodata        0x0000000000001c52       0x1d /home/lixx/ZGCX/S1_Project/SSC308QE_SDK/Iford_IMD00V005.0.1_fastboot/SourceCode/SSC308QE_SDK_TEXT/SSC308QE_CODEBASE/sdk/linux/init/ive/ive_init.o
 *fill*         0x0000000000001c6f        0x1 
 .rodata        0x0000000000001c70       0xea /home/lixx/ZGCX/S1_Project/SSC308QE_SDK/Iford_IMD00V005.0.1_fastboot/SourceCode/SSC308QE_SDK_TEXT/SSC308QE_CODEBASE/sdk/linux/init/ao/../../obj/uclibc/9.1.0/ao.o
 *fill*         0x0000000000001d5a        0x2 
 .rodata        0x0000000000001d5c       0x2a /home/lixx/ZGCX/S1_Project/SSC308QE_SDK/Iford_IMD00V005.0.1_fastboot/SourceCode/SSC308QE_SDK_TEXT/SSC308QE_CODEBASE/sdk/linux/init/shadow/../../obj/uclibc/9.1.0/shadow.o
 *fill*         0x0000000000001d86        0x2 
 .rodata        0x0000000000001d88     0x444a /home/lixx/ZGCX/S1_Project/SSC308QE_SDK/Iford_IMD00V005.0.1_fastboot/SourceCode/SSC308QE_SDK_TEXT/SSC308QE_CODEBASE/sdk/linux/init/isp/../../obj/uclibc/9.1.0/isp.o
                0x0000000000002db8                QuantOffset
                0x0000000000002dfc                QuantDivisor
 .rodata        0x00000000000061d2       0x1d /home/lixx/ZGCX/S1_Project/SSC308QE_SDK/Iford_IMD00V005.0.1_fastboot/SourceCode/SSC308QE_SDK_TEXT/SSC308QE_CODEBASE/sdk/linux/init/isp/isp_init.o
 .rodata        0x00000000000061ef       0x5d /home/lixx/ZGCX/S1_Project/SSC308QE_SDK/Iford_IMD00V005.0.1_fastboot/SourceCode/SSC308QE_SDK_TEXT/SSC308QE_CODEBASE/sdk/linux/init/isp/ispmid_init.o
 .rodata        0x000000000000624c       0x14 /home/lixx/ZGCX/S1_Project/SSC308QE_SDK/Iford_IMD00V005.0.1_fastboot/SourceCode/SSC308QE_SDK_TEXT/SSC308QE_CODEBASE/sdk/linux/init/ipu/../../obj/uclibc/9.1.0/ipu.o
 .rodata        0x0000000000006260       0x27 /home/lixx/ZGCX/S1_Project/SSC308QE_SDK/Iford_IMD00V005.0.1_fastboot/SourceCode/SSC308QE_SDK_TEXT/SSC308QE_CODEBASE/sdk/linux/init/ipu/ipu_init.o
 *fill*         0x0000000000006287        0x1 
 .rodata        0x0000000000006288      0xf44 /home/lixx/ZGCX/S1_Project/SSC308QE_SDK/Iford_IMD00V005.0.1_fastboot/SourceCode/SSC308QE_SDK_TEXT/SSC308QE_CODEBASE/sdk/linux/init/sys/../../obj/uclibc/9.1.0/sys.o
                0x0000000000007081                g_stCmdMappingTrigEvt
 .rodata        0x00000000000071cc        0xe /home/lixx/ZGCX/S1_Project/SSC308QE_SDK/Iford_IMD00V005.0.1_fastboot/SourceCode/SSC308QE_SDK_TEXT/SSC308QE_CODEBASE/sdk/linux/init/sys/cmdq_init.o
 .rodata        0x00000000000071da       0xa6 /home/lixx/ZGCX/S1_Project/SSC308QE_SDK/Iford_IMD00V005.0.1_fastboot/SourceCode/SSC308QE_SDK_TEXT/SSC308QE_CODEBASE/sdk/linux/init/sys/sys_init.o
 .rodata        0x0000000000007280     0x19d7 /home/lixx/ZGCX/S1_Project/SSC308QE_SDK/Iford_IMD00V005.0.1_fastboot/SourceCode/SSC308QE_SDK_TEXT/SSC308QE_CODEBASE/sdk/linux/init/disp/../../obj/uclibc/9.1.0/disp.o
 .rodata        0x0000000000008c57       0x62 /home/lixx/ZGCX/S1_Project/SSC308QE_SDK/Iford_IMD00V005.0.1_fastboot/SourceCode/SSC308QE_SDK_TEXT/SSC308QE_CODEBASE/sdk/linux/init/disp/disp_init.o
 *fill*         0x0000000000008cb9        0x3 
 .rodata        0x0000000000008cbc      0x888 /home/lixx/ZGCX/S1_Project/SSC308QE_SDK/Iford_IMD00V005.0.1_fastboot/SourceCode/SSC308QE_SDK_TEXT/SSC308QE_CODEBASE/sdk/linux/init/vif/../../obj/uclibc/9.1.0/vif.o
                0x00000000000094ee                _PixFmt
 .rodata        0x0000000000009544       0x65 /home/lixx/ZGCX/S1_Project/SSC308QE_SDK/Iford_IMD00V005.0.1_fastboot/SourceCode/SSC308QE_SDK_TEXT/SSC308QE_CODEBASE/sdk/linux/init/vif/vif_init.o
 .rodata        0x00000000000095a9       0x63 /home/lixx/ZGCX/S1_Project/SSC308QE_SDK/Iford_IMD00V005.0.1_fastboot/SourceCode/SSC308QE_SDK_TEXT/SSC308QE_CODEBASE/sdk/linux/init/common/../../obj/uclibc/9.1.0/common.o
 .rodata        0x000000000000960c       0x64 /home/lixx/ZGCX/S1_Project/SSC308QE_SDK/Iford_IMD00V005.0.1_fastboot/SourceCode/SSC308QE_SDK_TEXT/SSC308QE_CODEBASE/sdk/linux/init/common/common_init.o
 .rodata        0x0000000000009670       0x7c /home/lixx/ZGCX/S1_Project/SSC308QE_SDK/Iford_IMD00V005.0.1_fastboot/SourceCode/SSC308QE_SDK_TEXT/SSC308QE_CODEBASE/sdk/linux/init/ai/../../obj/uclibc/9.1.0/ai.o
 *fill*         0x00000000000096ec        0x4 
 .rodata        0x00000000000096f0     0x6a7c /home/lixx/ZGCX/S1_Project/SSC308QE_SDK/Iford_IMD00V005.0.1_fastboot/SourceCode/SSC308QE_SDK_TEXT/SSC308QE_CODEBASE/sdk/linux/init/venc/../../obj/uclibc/9.1.0/venc.o
                0x000000000000f548                level_bw_table
 .rodata        0x000000000001016c       0x1e /home/lixx/ZGCX/S1_Project/SSC308QE_SDK/Iford_IMD00V005.0.1_fastboot/SourceCode/SSC308QE_SDK_TEXT/SSC308QE_CODEBASE/sdk/linux/init/venc/venc_init.o
 *fill*         0x000000000001018a        0x2 
 .rodata        0x000000000001018c      0x3f4 /home/lixx/ZGCX/S1_Project/SSC308QE_SDK/Iford_IMD00V005.0.1_fastboot/SourceCode/SSC308QE_SDK_TEXT/SSC308QE_CODEBASE/sdk/linux/init/scl/../../obj/uclibc/9.1.0/scl.o
 .rodata        0x0000000000010580       0x1a /home/lixx/ZGCX/S1_Project/SSC308QE_SDK/Iford_IMD00V005.0.1_fastboot/SourceCode/SSC308QE_SDK_TEXT/SSC308QE_CODEBASE/sdk/linux/init/scl/scl_init.o

.ARM.extab.init.text
                0x0000000000000000        0xc
 .ARM.extab.init.text
                0x0000000000000000        0xc /home/lixx/ZGCX/S1_Project/SSC308QE_SDK/Iford_IMD00V005.0.1_fastboot/SourceCode/SSC308QE_SDK_TEXT/SSC308QE_CODEBASE/sdk/linux/init/module.o

.ARM.exidx.init.text
                0x0000000000000000        0x8
 .ARM.exidx.init.text
                0x0000000000000000        0x8 /home/lixx/ZGCX/S1_Project/SSC308QE_SDK/Iford_IMD00V005.0.1_fastboot/SourceCode/SSC308QE_SDK_TEXT/SSC308QE_CODEBASE/sdk/linux/init/module.o

.ARM.extab.exit.text
                0x0000000000000000        0xc
 .ARM.extab.exit.text
                0x0000000000000000        0xc /home/lixx/ZGCX/S1_Project/SSC308QE_SDK/Iford_IMD00V005.0.1_fastboot/SourceCode/SSC308QE_SDK_TEXT/SSC308QE_CODEBASE/sdk/linux/init/module.o

.ARM.exidx.exit.text
                0x0000000000000000        0x8
 .ARM.exidx.exit.text
                0x0000000000000000        0x8 /home/lixx/ZGCX/S1_Project/SSC308QE_SDK/Iford_IMD00V005.0.1_fastboot/SourceCode/SSC308QE_SDK_TEXT/SSC308QE_CODEBASE/sdk/linux/init/module.o

.modinfo        0x0000000000000000      0xe3f
 .modinfo       0x0000000000000000       0x34 /home/lixx/ZGCX/S1_Project/SSC308QE_SDK/Iford_IMD00V005.0.1_fastboot/SourceCode/SSC308QE_SDK_TEXT/SSC308QE_CODEBASE/sdk/linux/init/module.o
 .modinfo       0x0000000000000034       0xc7 /home/lixx/ZGCX/S1_Project/SSC308QE_SDK/Iford_IMD00V005.0.1_fastboot/SourceCode/SSC308QE_SDK_TEXT/SSC308QE_CODEBASE/sdk/linux/init/sensor/sensor_init.o
 .modinfo       0x00000000000000fb       0xd5 /home/lixx/ZGCX/S1_Project/SSC308QE_SDK/Iford_IMD00V005.0.1_fastboot/SourceCode/SSC308QE_SDK_TEXT/SSC308QE_CODEBASE/sdk/linux/init/aio/aio_init.o
 .modinfo       0x00000000000001d0       0xe8 /home/lixx/ZGCX/S1_Project/SSC308QE_SDK/Iford_IMD00V005.0.1_fastboot/SourceCode/SSC308QE_SDK_TEXT/SSC308QE_CODEBASE/sdk/linux/init/rgn/rgn_init.o
 .modinfo       0x00000000000002b8       0xd5 /home/lixx/ZGCX/S1_Project/SSC308QE_SDK/Iford_IMD00V005.0.1_fastboot/SourceCode/SSC308QE_SDK_TEXT/SSC308QE_CODEBASE/sdk/linux/init/ive/ive_init.o
 .modinfo       0x000000000000038d       0xd0 /home/lixx/ZGCX/S1_Project/SSC308QE_SDK/Iford_IMD00V005.0.1_fastboot/SourceCode/SSC308QE_SDK_TEXT/SSC308QE_CODEBASE/sdk/linux/init/ao/ao_init.o
 .modinfo       0x000000000000045d       0xe4 /home/lixx/ZGCX/S1_Project/SSC308QE_SDK/Iford_IMD00V005.0.1_fastboot/SourceCode/SSC308QE_SDK_TEXT/SSC308QE_CODEBASE/sdk/linux/init/shadow/shadow_init.o
 .modinfo       0x0000000000000541       0xd5 /home/lixx/ZGCX/S1_Project/SSC308QE_SDK/Iford_IMD00V005.0.1_fastboot/SourceCode/SSC308QE_SDK_TEXT/SSC308QE_CODEBASE/sdk/linux/init/isp/isp_init.o
 .modinfo       0x0000000000000616      0x116 /home/lixx/ZGCX/S1_Project/SSC308QE_SDK/Iford_IMD00V005.0.1_fastboot/SourceCode/SSC308QE_SDK_TEXT/SSC308QE_CODEBASE/sdk/linux/init/ipu/ipu_init.o
 .modinfo       0x000000000000072c       0xf0 /home/lixx/ZGCX/S1_Project/SSC308QE_SDK/Iford_IMD00V005.0.1_fastboot/SourceCode/SSC308QE_SDK_TEXT/SSC308QE_CODEBASE/sdk/linux/init/sys/sys_init.o
 .modinfo       0x000000000000081c      0x128 /home/lixx/ZGCX/S1_Project/SSC308QE_SDK/Iford_IMD00V005.0.1_fastboot/SourceCode/SSC308QE_SDK_TEXT/SSC308QE_CODEBASE/sdk/linux/init/disp/disp_init.o
 .modinfo       0x0000000000000944      0x108 /home/lixx/ZGCX/S1_Project/SSC308QE_SDK/Iford_IMD00V005.0.1_fastboot/SourceCode/SSC308QE_SDK_TEXT/SSC308QE_CODEBASE/sdk/linux/init/vif/vif_init.o
 .modinfo       0x0000000000000a4c      0x146 /home/lixx/ZGCX/S1_Project/SSC308QE_SDK/Iford_IMD00V005.0.1_fastboot/SourceCode/SSC308QE_SDK_TEXT/SSC308QE_CODEBASE/sdk/linux/init/common/common_init.o
 .modinfo       0x0000000000000b92       0xfe /home/lixx/ZGCX/S1_Project/SSC308QE_SDK/Iford_IMD00V005.0.1_fastboot/SourceCode/SSC308QE_SDK_TEXT/SSC308QE_CODEBASE/sdk/linux/init/ai/ai_init.o
 .modinfo       0x0000000000000c90       0xda /home/lixx/ZGCX/S1_Project/SSC308QE_SDK/Iford_IMD00V005.0.1_fastboot/SourceCode/SSC308QE_SDK_TEXT/SSC308QE_CODEBASE/sdk/linux/init/venc/venc_init.o
 .modinfo       0x0000000000000d6a       0xd5 /home/lixx/ZGCX/S1_Project/SSC308QE_SDK/Iford_IMD00V005.0.1_fastboot/SourceCode/SSC308QE_SDK_TEXT/SSC308QE_CODEBASE/sdk/linux/init/scl/scl_init.o

.rodata.str1.1  0x0000000000000000    0x32292
 .rodata.str1.1
                0x0000000000000000     0x127f /home/lixx/ZGCX/S1_Project/SSC308QE_SDK/Iford_IMD00V005.0.1_fastboot/SourceCode/SSC308QE_SDK_TEXT/SSC308QE_CODEBASE/sdk/linux/init/sensor/../../obj/uclibc/9.1.0/sensor.o
 .rodata.str1.1
                0x000000000000127f      0x156 /home/lixx/ZGCX/S1_Project/SSC308QE_SDK/Iford_IMD00V005.0.1_fastboot/SourceCode/SSC308QE_SDK_TEXT/SSC308QE_CODEBASE/sdk/linux/init/sensor/csi_init.o
 .rodata.str1.1
                0x00000000000013d5      0x124 /home/lixx/ZGCX/S1_Project/SSC308QE_SDK/Iford_IMD00V005.0.1_fastboot/SourceCode/SSC308QE_SDK_TEXT/SSC308QE_CODEBASE/sdk/linux/init/sensor/sensor_init.o
 .rodata.str1.1
                0x00000000000014f9     0x139a /home/lixx/ZGCX/S1_Project/SSC308QE_SDK/Iford_IMD00V005.0.1_fastboot/SourceCode/SSC308QE_SDK_TEXT/SSC308QE_CODEBASE/sdk/linux/init/aio/../../obj/uclibc/9.1.0/aio.o
 *fill*         0x0000000000002893        0x1 
 .rodata.str1.1
                0x0000000000002894      0x318 /home/lixx/ZGCX/S1_Project/SSC308QE_SDK/Iford_IMD00V005.0.1_fastboot/SourceCode/SSC308QE_SDK_TEXT/SSC308QE_CODEBASE/sdk/linux/init/aio/aio_init.o
 .rodata.str1.1
                0x0000000000002bac     0x1208 /home/lixx/ZGCX/S1_Project/SSC308QE_SDK/Iford_IMD00V005.0.1_fastboot/SourceCode/SSC308QE_SDK_TEXT/SSC308QE_CODEBASE/sdk/linux/init/rgn/../../obj/uclibc/9.1.0/rgn.o
 .rodata.str1.1
                0x0000000000003db4       0x51 /home/lixx/ZGCX/S1_Project/SSC308QE_SDK/Iford_IMD00V005.0.1_fastboot/SourceCode/SSC308QE_SDK_TEXT/SSC308QE_CODEBASE/sdk/linux/init/rgn/rgn_init.o
 .rodata.str1.1
                0x0000000000003e05      0xbf3 /home/lixx/ZGCX/S1_Project/SSC308QE_SDK/Iford_IMD00V005.0.1_fastboot/SourceCode/SSC308QE_SDK_TEXT/SSC308QE_CODEBASE/sdk/linux/init/ive/../../obj/uclibc/9.1.0/ive.o
 .rodata.str1.1
                0x00000000000049f8       0x19 /home/lixx/ZGCX/S1_Project/SSC308QE_SDK/Iford_IMD00V005.0.1_fastboot/SourceCode/SSC308QE_SDK_TEXT/SSC308QE_CODEBASE/sdk/linux/init/ive/ive_init.o
 .rodata.str1.1
                0x0000000000004a11     0x1a6a /home/lixx/ZGCX/S1_Project/SSC308QE_SDK/Iford_IMD00V005.0.1_fastboot/SourceCode/SSC308QE_SDK_TEXT/SSC308QE_CODEBASE/sdk/linux/init/ao/../../obj/uclibc/9.1.0/ao.o
 .rodata.str1.1
                0x000000000000647b      0x48d /home/lixx/ZGCX/S1_Project/SSC308QE_SDK/Iford_IMD00V005.0.1_fastboot/SourceCode/SSC308QE_SDK_TEXT/SSC308QE_CODEBASE/sdk/linux/init/shadow/../../obj/uclibc/9.1.0/shadow.o
 .rodata.str1.1
                0x0000000000006908     0x91a1 /home/lixx/ZGCX/S1_Project/SSC308QE_SDK/Iford_IMD00V005.0.1_fastboot/SourceCode/SSC308QE_SDK_TEXT/SSC308QE_CODEBASE/sdk/linux/init/isp/../../obj/uclibc/9.1.0/isp.o
 *fill*         0x000000000000faa9        0x1 
 .rodata.str1.1
                0x000000000000faaa       0xd9 /home/lixx/ZGCX/S1_Project/SSC308QE_SDK/Iford_IMD00V005.0.1_fastboot/SourceCode/SSC308QE_SDK_TEXT/SSC308QE_CODEBASE/sdk/linux/init/isp/isp_init.o
 .rodata.str1.1
                0x000000000000fb83       0x9c /home/lixx/ZGCX/S1_Project/SSC308QE_SDK/Iford_IMD00V005.0.1_fastboot/SourceCode/SSC308QE_SDK_TEXT/SSC308QE_CODEBASE/sdk/linux/init/isp/ispmid_init.o
 .rodata.str1.1
                0x000000000000fc1f     0x1680 /home/lixx/ZGCX/S1_Project/SSC308QE_SDK/Iford_IMD00V005.0.1_fastboot/SourceCode/SSC308QE_SDK_TEXT/SSC308QE_CODEBASE/sdk/linux/init/ipu/../../obj/uclibc/9.1.0/ipu.o
 .rodata.str1.1
                0x000000000001129f       0x4b /home/lixx/ZGCX/S1_Project/SSC308QE_SDK/Iford_IMD00V005.0.1_fastboot/SourceCode/SSC308QE_SDK_TEXT/SSC308QE_CODEBASE/sdk/linux/init/ipu/ipu_init.o
 .rodata.str1.1
                0x00000000000112ea     0x5eca /home/lixx/ZGCX/S1_Project/SSC308QE_SDK/Iford_IMD00V005.0.1_fastboot/SourceCode/SSC308QE_SDK_TEXT/SSC308QE_CODEBASE/sdk/linux/init/sys/../../obj/uclibc/9.1.0/sys.o
 .rodata.str1.1
                0x00000000000171b4       0x58 /home/lixx/ZGCX/S1_Project/SSC308QE_SDK/Iford_IMD00V005.0.1_fastboot/SourceCode/SSC308QE_SDK_TEXT/SSC308QE_CODEBASE/sdk/linux/init/sys/cmdq_init.o
 .rodata.str1.1
                0x000000000001720c      0x4a1 /home/lixx/ZGCX/S1_Project/SSC308QE_SDK/Iford_IMD00V005.0.1_fastboot/SourceCode/SSC308QE_SDK_TEXT/SSC308QE_CODEBASE/sdk/linux/init/sys/sys_init.o
 .rodata.str1.1
                0x00000000000176ad     0x4d98 /home/lixx/ZGCX/S1_Project/SSC308QE_SDK/Iford_IMD00V005.0.1_fastboot/SourceCode/SSC308QE_SDK_TEXT/SSC308QE_CODEBASE/sdk/linux/init/disp/../../obj/uclibc/9.1.0/disp.o
 .rodata.str1.1
                0x000000000001c445      0x11c /home/lixx/ZGCX/S1_Project/SSC308QE_SDK/Iford_IMD00V005.0.1_fastboot/SourceCode/SSC308QE_SDK_TEXT/SSC308QE_CODEBASE/sdk/linux/init/disp/disp_init.o
 .rodata.str1.1
                0x000000000001c561     0x3a12 /home/lixx/ZGCX/S1_Project/SSC308QE_SDK/Iford_IMD00V005.0.1_fastboot/SourceCode/SSC308QE_SDK_TEXT/SSC308QE_CODEBASE/sdk/linux/init/vif/../../obj/uclibc/9.1.0/vif.o
 .rodata.str1.1
                0x000000000001ff73       0xf9 /home/lixx/ZGCX/S1_Project/SSC308QE_SDK/Iford_IMD00V005.0.1_fastboot/SourceCode/SSC308QE_SDK_TEXT/SSC308QE_CODEBASE/sdk/linux/init/vif/vif_init.o
 .rodata.str1.1
                0x000000000002006c      0xaa7 /home/lixx/ZGCX/S1_Project/SSC308QE_SDK/Iford_IMD00V005.0.1_fastboot/SourceCode/SSC308QE_SDK_TEXT/SSC308QE_CODEBASE/sdk/linux/init/common/../../obj/uclibc/9.1.0/common.o
 .rodata.str1.1
                0x0000000000020b13     0x1685 /home/lixx/ZGCX/S1_Project/SSC308QE_SDK/Iford_IMD00V005.0.1_fastboot/SourceCode/SSC308QE_SDK_TEXT/SSC308QE_CODEBASE/sdk/linux/init/ai/../../obj/uclibc/9.1.0/ai.o
 .rodata.str1.1
                0x0000000000022198     0xce02 /home/lixx/ZGCX/S1_Project/SSC308QE_SDK/Iford_IMD00V005.0.1_fastboot/SourceCode/SSC308QE_SDK_TEXT/SSC308QE_CODEBASE/sdk/linux/init/venc/../../obj/uclibc/9.1.0/venc.o
 .rodata.str1.1
                0x000000000002ef9a       0x19 /home/lixx/ZGCX/S1_Project/SSC308QE_SDK/Iford_IMD00V005.0.1_fastboot/SourceCode/SSC308QE_SDK_TEXT/SSC308QE_CODEBASE/sdk/linux/init/venc/venc_init.o
 .rodata.str1.1
                0x000000000002efb3     0x32ac /home/lixx/ZGCX/S1_Project/SSC308QE_SDK/Iford_IMD00V005.0.1_fastboot/SourceCode/SSC308QE_SDK_TEXT/SSC308QE_CODEBASE/sdk/linux/init/scl/../../obj/uclibc/9.1.0/scl.o
 *fill*         0x000000000003225f        0x1 
 .rodata.str1.1
                0x0000000000032260       0x32 /home/lixx/ZGCX/S1_Project/SSC308QE_SDK/Iford_IMD00V005.0.1_fastboot/SourceCode/SSC308QE_SDK_TEXT/SSC308QE_CODEBASE/sdk/linux/init/scl/scl_init.o

.rodata.cst4    0x0000000000000000     0x1634
 .rodata.cst4   0x0000000000000000       0xf8 /home/lixx/ZGCX/S1_Project/SSC308QE_SDK/Iford_IMD00V005.0.1_fastboot/SourceCode/SSC308QE_SDK_TEXT/SSC308QE_CODEBASE/sdk/linux/init/sensor/../../obj/uclibc/9.1.0/sensor.o
 .rodata.cst4   0x00000000000000f8        0x4 /home/lixx/ZGCX/S1_Project/SSC308QE_SDK/Iford_IMD00V005.0.1_fastboot/SourceCode/SSC308QE_SDK_TEXT/SSC308QE_CODEBASE/sdk/linux/init/sensor/csi_init.o
 .rodata.cst4   0x00000000000000fc        0x4 /home/lixx/ZGCX/S1_Project/SSC308QE_SDK/Iford_IMD00V005.0.1_fastboot/SourceCode/SSC308QE_SDK_TEXT/SSC308QE_CODEBASE/sdk/linux/init/sensor/sensor_init.o
 .rodata.cst4   0x0000000000000100       0x94 /home/lixx/ZGCX/S1_Project/SSC308QE_SDK/Iford_IMD00V005.0.1_fastboot/SourceCode/SSC308QE_SDK_TEXT/SSC308QE_CODEBASE/sdk/linux/init/aio/../../obj/uclibc/9.1.0/aio.o
 .rodata.cst4   0x0000000000000194        0x4 /home/lixx/ZGCX/S1_Project/SSC308QE_SDK/Iford_IMD00V005.0.1_fastboot/SourceCode/SSC308QE_SDK_TEXT/SSC308QE_CODEBASE/sdk/linux/init/aio/aio_init.o
 .rodata.cst4   0x0000000000000198      0x1a4 /home/lixx/ZGCX/S1_Project/SSC308QE_SDK/Iford_IMD00V005.0.1_fastboot/SourceCode/SSC308QE_SDK_TEXT/SSC308QE_CODEBASE/sdk/linux/init/rgn/../../obj/uclibc/9.1.0/rgn.o
 .rodata.cst4   0x000000000000033c       0x30 /home/lixx/ZGCX/S1_Project/SSC308QE_SDK/Iford_IMD00V005.0.1_fastboot/SourceCode/SSC308QE_SDK_TEXT/SSC308QE_CODEBASE/sdk/linux/init/ive/../../obj/uclibc/9.1.0/ive.o
 .rodata.cst4   0x000000000000036c        0x4 /home/lixx/ZGCX/S1_Project/SSC308QE_SDK/Iford_IMD00V005.0.1_fastboot/SourceCode/SSC308QE_SDK_TEXT/SSC308QE_CODEBASE/sdk/linux/init/ive/ive_init.o
 .rodata.cst4   0x0000000000000370       0x84 /home/lixx/ZGCX/S1_Project/SSC308QE_SDK/Iford_IMD00V005.0.1_fastboot/SourceCode/SSC308QE_SDK_TEXT/SSC308QE_CODEBASE/sdk/linux/init/ao/../../obj/uclibc/9.1.0/ao.o
 .rodata.cst4   0x00000000000003f4       0x18 /home/lixx/ZGCX/S1_Project/SSC308QE_SDK/Iford_IMD00V005.0.1_fastboot/SourceCode/SSC308QE_SDK_TEXT/SSC308QE_CODEBASE/sdk/linux/init/shadow/../../obj/uclibc/9.1.0/shadow.o
 .rodata.cst4   0x000000000000040c      0x4c0 /home/lixx/ZGCX/S1_Project/SSC308QE_SDK/Iford_IMD00V005.0.1_fastboot/SourceCode/SSC308QE_SDK_TEXT/SSC308QE_CODEBASE/sdk/linux/init/isp/../../obj/uclibc/9.1.0/isp.o
 .rodata.cst4   0x00000000000008cc        0x4 /home/lixx/ZGCX/S1_Project/SSC308QE_SDK/Iford_IMD00V005.0.1_fastboot/SourceCode/SSC308QE_SDK_TEXT/SSC308QE_CODEBASE/sdk/linux/init/isp/isp_init.o
 .rodata.cst4   0x00000000000008d0        0x4 /home/lixx/ZGCX/S1_Project/SSC308QE_SDK/Iford_IMD00V005.0.1_fastboot/SourceCode/SSC308QE_SDK_TEXT/SSC308QE_CODEBASE/sdk/linux/init/isp/ispmid_init.o
 .rodata.cst4   0x00000000000008d4       0x84 /home/lixx/ZGCX/S1_Project/SSC308QE_SDK/Iford_IMD00V005.0.1_fastboot/SourceCode/SSC308QE_SDK_TEXT/SSC308QE_CODEBASE/sdk/linux/init/ipu/../../obj/uclibc/9.1.0/ipu.o
 .rodata.cst4   0x0000000000000958      0x264 /home/lixx/ZGCX/S1_Project/SSC308QE_SDK/Iford_IMD00V005.0.1_fastboot/SourceCode/SSC308QE_SDK_TEXT/SSC308QE_CODEBASE/sdk/linux/init/sys/../../obj/uclibc/9.1.0/sys.o
 .rodata.cst4   0x0000000000000bbc        0x8 /home/lixx/ZGCX/S1_Project/SSC308QE_SDK/Iford_IMD00V005.0.1_fastboot/SourceCode/SSC308QE_SDK_TEXT/SSC308QE_CODEBASE/sdk/linux/init/sys/cmdq_init.o
 .rodata.cst4   0x0000000000000bc4        0x8 /home/lixx/ZGCX/S1_Project/SSC308QE_SDK/Iford_IMD00V005.0.1_fastboot/SourceCode/SSC308QE_SDK_TEXT/SSC308QE_CODEBASE/sdk/linux/init/sys/sys_init.o
 .rodata.cst4   0x0000000000000bcc      0x3d8 /home/lixx/ZGCX/S1_Project/SSC308QE_SDK/Iford_IMD00V005.0.1_fastboot/SourceCode/SSC308QE_SDK_TEXT/SSC308QE_CODEBASE/sdk/linux/init/disp/../../obj/uclibc/9.1.0/disp.o
 .rodata.cst4   0x0000000000000fa4      0x1ac /home/lixx/ZGCX/S1_Project/SSC308QE_SDK/Iford_IMD00V005.0.1_fastboot/SourceCode/SSC308QE_SDK_TEXT/SSC308QE_CODEBASE/sdk/linux/init/vif/../../obj/uclibc/9.1.0/vif.o
 .rodata.cst4   0x0000000000001150        0x4 /home/lixx/ZGCX/S1_Project/SSC308QE_SDK/Iford_IMD00V005.0.1_fastboot/SourceCode/SSC308QE_SDK_TEXT/SSC308QE_CODEBASE/sdk/linux/init/vif/vif_init.o
 .rodata.cst4   0x0000000000001154       0x3c /home/lixx/ZGCX/S1_Project/SSC308QE_SDK/Iford_IMD00V005.0.1_fastboot/SourceCode/SSC308QE_SDK_TEXT/SSC308QE_CODEBASE/sdk/linux/init/common/../../obj/uclibc/9.1.0/common.o
 .rodata.cst4   0x0000000000001190       0x90 /home/lixx/ZGCX/S1_Project/SSC308QE_SDK/Iford_IMD00V005.0.1_fastboot/SourceCode/SSC308QE_SDK_TEXT/SSC308QE_CODEBASE/sdk/linux/init/ai/../../obj/uclibc/9.1.0/ai.o
 .rodata.cst4   0x0000000000001220      0x2a0 /home/lixx/ZGCX/S1_Project/SSC308QE_SDK/Iford_IMD00V005.0.1_fastboot/SourceCode/SSC308QE_SDK_TEXT/SSC308QE_CODEBASE/sdk/linux/init/venc/../../obj/uclibc/9.1.0/venc.o
 .rodata.cst4   0x00000000000014c0        0x4 /home/lixx/ZGCX/S1_Project/SSC308QE_SDK/Iford_IMD00V005.0.1_fastboot/SourceCode/SSC308QE_SDK_TEXT/SSC308QE_CODEBASE/sdk/linux/init/venc/venc_init.o
 .rodata.cst4   0x00000000000014c4      0x170 /home/lixx/ZGCX/S1_Project/SSC308QE_SDK/Iford_IMD00V005.0.1_fastboot/SourceCode/SSC308QE_SDK_TEXT/SSC308QE_CODEBASE/sdk/linux/init/scl/../../obj/uclibc/9.1.0/scl.o

.ARM.extab.text.unlikely
                0x0000000000000000        0xc
 .ARM.extab.text.unlikely
                0x0000000000000000        0xc /home/lixx/ZGCX/S1_Project/SSC308QE_SDK/Iford_IMD00V005.0.1_fastboot/SourceCode/SSC308QE_SDK_TEXT/SSC308QE_CODEBASE/sdk/linux/init/sensor/csi_init.o
 .ARM.extab.text.unlikely
                0x000000000000000c        0x0 /home/lixx/ZGCX/S1_Project/SSC308QE_SDK/Iford_IMD00V005.0.1_fastboot/SourceCode/SSC308QE_SDK_TEXT/SSC308QE_CODEBASE/sdk/linux/init/sys/sys_init.o

.ARM.exidx.text.unlikely
                0x0000000000000000       0x10
 .ARM.exidx.text.unlikely
                0x0000000000000000        0x8 /home/lixx/ZGCX/S1_Project/SSC308QE_SDK/Iford_IMD00V005.0.1_fastboot/SourceCode/SSC308QE_SDK_TEXT/SSC308QE_CODEBASE/sdk/linux/init/sensor/csi_init.o
 .ARM.exidx.text.unlikely
                0x0000000000000008        0x8 /home/lixx/ZGCX/S1_Project/SSC308QE_SDK/Iford_IMD00V005.0.1_fastboot/SourceCode/SSC308QE_SDK_TEXT/SSC308QE_CODEBASE/sdk/linux/init/sys/sys_init.o

__ksymtab_strings
                0x0000000000000000      0x3b2
 __ksymtab_strings
                0x0000000000000000      0x1c6 /home/lixx/ZGCX/S1_Project/SSC308QE_SDK/Iford_IMD00V005.0.1_fastboot/SourceCode/SSC308QE_SDK_TEXT/SSC308QE_CODEBASE/sdk/linux/init/sensor/sensor_export.o
 __ksymtab_strings
                0x00000000000001c6       0x17 /home/lixx/ZGCX/S1_Project/SSC308QE_SDK/Iford_IMD00V005.0.1_fastboot/SourceCode/SSC308QE_SDK_TEXT/SSC308QE_CODEBASE/sdk/linux/init/isp/isp_init.o
 __ksymtab_strings
                0x00000000000001dd       0x2d /home/lixx/ZGCX/S1_Project/SSC308QE_SDK/Iford_IMD00V005.0.1_fastboot/SourceCode/SSC308QE_SDK_TEXT/SSC308QE_CODEBASE/sdk/linux/init/ipu/ipu_init.o
 __ksymtab_strings
                0x000000000000020a       0x1a /home/lixx/ZGCX/S1_Project/SSC308QE_SDK/Iford_IMD00V005.0.1_fastboot/SourceCode/SSC308QE_SDK_TEXT/SSC308QE_CODEBASE/sdk/linux/init/sys/cmdq_export.o
 __ksymtab_strings
                0x0000000000000224       0x68 /home/lixx/ZGCX/S1_Project/SSC308QE_SDK/Iford_IMD00V005.0.1_fastboot/SourceCode/SSC308QE_SDK_TEXT/SSC308QE_CODEBASE/sdk/linux/init/sys/sys_init.o
 __ksymtab_strings
                0x000000000000028c       0x1c /home/lixx/ZGCX/S1_Project/SSC308QE_SDK/Iford_IMD00V005.0.1_fastboot/SourceCode/SSC308QE_SDK_TEXT/SSC308QE_CODEBASE/sdk/linux/init/disp/disp_init.o
 __ksymtab_strings
                0x00000000000002a8       0x18 /home/lixx/ZGCX/S1_Project/SSC308QE_SDK/Iford_IMD00V005.0.1_fastboot/SourceCode/SSC308QE_SDK_TEXT/SSC308QE_CODEBASE/sdk/linux/init/vif/vif_export.o
 __ksymtab_strings
                0x00000000000002c0       0xe2 /home/lixx/ZGCX/S1_Project/SSC308QE_SDK/Iford_IMD00V005.0.1_fastboot/SourceCode/SSC308QE_SDK_TEXT/SSC308QE_CODEBASE/sdk/linux/init/common/common_init.o
 __ksymtab_strings
                0x00000000000003a2       0x10 /home/lixx/ZGCX/S1_Project/SSC308QE_SDK/Iford_IMD00V005.0.1_fastboot/SourceCode/SSC308QE_SDK_TEXT/SSC308QE_CODEBASE/sdk/linux/init/venc/venc_init.o

___ksymtab+DRV_SENSOR_IF_RegisterPlaneDriver
                0x0000000000000000        0xc
 ___ksymtab+DRV_SENSOR_IF_RegisterPlaneDriver
                0x0000000000000000        0xc /home/lixx/ZGCX/S1_Project/SSC308QE_SDK/Iford_IMD00V005.0.1_fastboot/SourceCode/SSC308QE_SDK_TEXT/SSC308QE_CODEBASE/sdk/linux/init/sensor/sensor_export.o

___ksymtab+DRV_SENSOR_IF_RegisterPlaneDriverEx
                0x0000000000000000        0xc
 ___ksymtab+DRV_SENSOR_IF_RegisterPlaneDriverEx
                0x0000000000000000        0xc /home/lixx/ZGCX/S1_Project/SSC308QE_SDK/Iford_IMD00V005.0.1_fastboot/SourceCode/SSC308QE_SDK_TEXT/SSC308QE_CODEBASE/sdk/linux/init/sensor/sensor_export.o

___ksymtab+DRV_SENSOR_IF_RegisterPlaneI2CSlaveID
                0x0000000000000000        0xc
 ___ksymtab+DRV_SENSOR_IF_RegisterPlaneI2CSlaveID
                0x0000000000000000        0xc /home/lixx/ZGCX/S1_Project/SSC308QE_SDK/Iford_IMD00V005.0.1_fastboot/SourceCode/SSC308QE_SDK_TEXT/SSC308QE_CODEBASE/sdk/linux/init/sensor/sensor_export.o

___ksymtab+DRV_SENSOR_IF_RegisterSensorDriver
                0x0000000000000000        0xc
 ___ksymtab+DRV_SENSOR_IF_RegisterSensorDriver
                0x0000000000000000        0xc /home/lixx/ZGCX/S1_Project/SSC308QE_SDK/Iford_IMD00V005.0.1_fastboot/SourceCode/SSC308QE_SDK_TEXT/SSC308QE_CODEBASE/sdk/linux/init/sensor/sensor_export.o

___ksymtab+DRV_SENSOR_IF_RegisterSensorDriverEx
                0x0000000000000000        0xc
 ___ksymtab+DRV_SENSOR_IF_RegisterSensorDriverEx
                0x0000000000000000        0xc /home/lixx/ZGCX/S1_Project/SSC308QE_SDK/Iford_IMD00V005.0.1_fastboot/SourceCode/SSC308QE_SDK_TEXT/SSC308QE_CODEBASE/sdk/linux/init/sensor/sensor_export.o

___ksymtab+DRV_SENSOR_IF_RegisterSensorI2CSlaveID
                0x0000000000000000        0xc
 ___ksymtab+DRV_SENSOR_IF_RegisterSensorI2CSlaveID
                0x0000000000000000        0xc /home/lixx/ZGCX/S1_Project/SSC308QE_SDK/Iford_IMD00V005.0.1_fastboot/SourceCode/SSC308QE_SDK_TEXT/SSC308QE_CODEBASE/sdk/linux/init/sensor/sensor_export.o

___ksymtab+DRV_SENSOR_IF_RegisterVcmDriver
                0x0000000000000000        0xc
 ___ksymtab+DRV_SENSOR_IF_RegisterVcmDriver
                0x0000000000000000        0xc /home/lixx/ZGCX/S1_Project/SSC308QE_SDK/Iford_IMD00V005.0.1_fastboot/SourceCode/SSC308QE_SDK_TEXT/SSC308QE_CODEBASE/sdk/linux/init/sensor/sensor_export.o

___ksymtab+DRV_SENSOR_IF_Release
                0x0000000000000000        0xc
 ___ksymtab+DRV_SENSOR_IF_Release
                0x0000000000000000        0xc /home/lixx/ZGCX/S1_Project/SSC308QE_SDK/Iford_IMD00V005.0.1_fastboot/SourceCode/SSC308QE_SDK_TEXT/SSC308QE_CODEBASE/sdk/linux/init/sensor/sensor_export.o

___ksymtab+DRV_SENSOR_IF_ReleaseVcmDriver
                0x0000000000000000        0xc
 ___ksymtab+DRV_SENSOR_IF_ReleaseVcmDriver
                0x0000000000000000        0xc /home/lixx/ZGCX/S1_Project/SSC308QE_SDK/Iford_IMD00V005.0.1_fastboot/SourceCode/SSC308QE_SDK_TEXT/SSC308QE_CODEBASE/sdk/linux/init/sensor/sensor_export.o

___ksymtab+DRV_SENSOR_IF_SensorHandleVer
                0x0000000000000000        0xc
 ___ksymtab+DRV_SENSOR_IF_SensorHandleVer
                0x0000000000000000        0xc /home/lixx/ZGCX/S1_Project/SSC308QE_SDK/Iford_IMD00V005.0.1_fastboot/SourceCode/SSC308QE_SDK_TEXT/SSC308QE_CODEBASE/sdk/linux/init/sensor/sensor_export.o

___ksymtab+DRV_SENSOR_IF_SensorI2CVer
                0x0000000000000000        0xc
 ___ksymtab+DRV_SENSOR_IF_SensorI2CVer
                0x0000000000000000        0xc /home/lixx/ZGCX/S1_Project/SSC308QE_SDK/Iford_IMD00V005.0.1_fastboot/SourceCode/SSC308QE_SDK_TEXT/SSC308QE_CODEBASE/sdk/linux/init/sensor/sensor_export.o

___ksymtab+DRV_SENSOR_IF_SensorIFVer
                0x0000000000000000        0xc
 ___ksymtab+DRV_SENSOR_IF_SensorIFVer
                0x0000000000000000        0xc /home/lixx/ZGCX/S1_Project/SSC308QE_SDK/Iford_IMD00V005.0.1_fastboot/SourceCode/SSC308QE_SDK_TEXT/SSC308QE_CODEBASE/sdk/linux/init/sensor/sensor_export.o

___ksymtab+EXT_log_2
                0x0000000000000000        0xc
 ___ksymtab+EXT_log_2
                0x0000000000000000        0xc /home/lixx/ZGCX/S1_Project/SSC308QE_SDK/Iford_IMD00V005.0.1_fastboot/SourceCode/SSC308QE_SDK_TEXT/SSC308QE_CODEBASE/sdk/linux/init/sensor/sensor_export.o

___ksymtab+base2_exp_float_pow
                0x0000000000000000        0xc
 ___ksymtab+base2_exp_float_pow
                0x0000000000000000        0xc /home/lixx/ZGCX/S1_Project/SSC308QE_SDK/Iford_IMD00V005.0.1_fastboot/SourceCode/SSC308QE_SDK_TEXT/SSC308QE_CODEBASE/sdk/linux/init/sensor/sensor_export.o

___ksymtab+intlog10
                0x0000000000000000        0xc
 ___ksymtab+intlog10
                0x0000000000000000        0xc /home/lixx/ZGCX/S1_Project/SSC308QE_SDK/Iford_IMD00V005.0.1_fastboot/SourceCode/SSC308QE_SDK_TEXT/SSC308QE_CODEBASE/sdk/linux/init/sensor/sensor_export.o

___ksymtab+round_float
                0x0000000000000000        0xc
 ___ksymtab+round_float
                0x0000000000000000        0xc /home/lixx/ZGCX/S1_Project/SSC308QE_SDK/Iford_IMD00V005.0.1_fastboot/SourceCode/SSC308QE_SDK_TEXT/SSC308QE_CODEBASE/sdk/linux/init/sensor/sensor_export.o

___ksymtab+g_mi_isp_internal_api
                0x0000000000000000        0xc
 ___ksymtab+g_mi_isp_internal_api
                0x0000000000000000        0xc /home/lixx/ZGCX/S1_Project/SSC308QE_SDK/Iford_IMD00V005.0.1_fastboot/SourceCode/SSC308QE_SDK_TEXT/SSC308QE_CODEBASE/sdk/linux/init/isp/isp_init.o

___ksymtab+MI_IPU_Invoke_ByKernel
                0x0000000000000000        0xc
 ___ksymtab+MI_IPU_Invoke_ByKernel
                0x0000000000000000        0xc /home/lixx/ZGCX/S1_Project/SSC308QE_SDK/Iford_IMD00V005.0.1_fastboot/SourceCode/SSC308QE_SDK_TEXT/SSC308QE_CODEBASE/sdk/linux/init/ipu/ipu_init.o

___ksymtab+MI_IPU_Scaling_Freq
                0x0000000000000000        0xc
 ___ksymtab+MI_IPU_Scaling_Freq
                0x0000000000000000        0xc /home/lixx/ZGCX/S1_Project/SSC308QE_SDK/Iford_IMD00V005.0.1_fastboot/SourceCode/SSC308QE_SDK_TEXT/SSC308QE_CODEBASE/sdk/linux/init/ipu/ipu_init.o

__param         0x0000000000000000       0x64
 __param        0x0000000000000000       0x28 /home/lixx/ZGCX/S1_Project/SSC308QE_SDK/Iford_IMD00V005.0.1_fastboot/SourceCode/SSC308QE_SDK_TEXT/SSC308QE_CODEBASE/sdk/linux/init/ipu/ipu_init.o
 __param        0x0000000000000028       0x3c /home/lixx/ZGCX/S1_Project/SSC308QE_SDK/Iford_IMD00V005.0.1_fastboot/SourceCode/SSC308QE_SDK_TEXT/SSC308QE_CODEBASE/sdk/linux/init/common/common_init.o

___ksymtab+HAL_CMDQ_GetInternalApis
                0x0000000000000000        0xc
 ___ksymtab+HAL_CMDQ_GetInternalApis
                0x0000000000000000        0xc /home/lixx/ZGCX/S1_Project/SSC308QE_SDK/Iford_IMD00V005.0.1_fastboot/SourceCode/SSC308QE_SDK_TEXT/SSC308QE_CODEBASE/sdk/linux/init/sys/cmdq_export.o

.pv_table       0x0000000000000000        0x4
 .pv_table      0x0000000000000000        0x4 /home/lixx/ZGCX/S1_Project/SSC308QE_SDK/Iford_IMD00V005.0.1_fastboot/SourceCode/SSC308QE_SDK_TEXT/SSC308QE_CODEBASE/sdk/linux/init/sys/sys_init.o

___ksymtab+MI_SYS_Proc_BugOn
                0x0000000000000000        0xc
 ___ksymtab+MI_SYS_Proc_BugOn
                0x0000000000000000        0xc /home/lixx/ZGCX/S1_Project/SSC308QE_SDK/Iford_IMD00V005.0.1_fastboot/SourceCode/SSC308QE_SDK_TEXT/SSC308QE_CODEBASE/sdk/linux/init/sys/sys_init.o

___ksymtab+MI_SYS_Proc_FuncName
                0x0000000000000000        0xc
 ___ksymtab+MI_SYS_Proc_FuncName
                0x0000000000000000        0xc /home/lixx/ZGCX/S1_Project/SSC308QE_SDK/Iford_IMD00V005.0.1_fastboot/SourceCode/SSC308QE_SDK_TEXT/SSC308QE_CODEBASE/sdk/linux/init/sys/sys_init.o

___ksymtab+MI_SYS_Proc_Print
                0x0000000000000000        0xc
 ___ksymtab+MI_SYS_Proc_Print
                0x0000000000000000        0xc /home/lixx/ZGCX/S1_Project/SSC308QE_SDK/Iford_IMD00V005.0.1_fastboot/SourceCode/SSC308QE_SDK_TEXT/SSC308QE_CODEBASE/sdk/linux/init/sys/sys_init.o

___ksymtab+MI_SYS_ShowAllTask
                0x0000000000000000        0xc
 ___ksymtab+MI_SYS_ShowAllTask
                0x0000000000000000        0xc /home/lixx/ZGCX/S1_Project/SSC308QE_SDK/Iford_IMD00V005.0.1_fastboot/SourceCode/SSC308QE_SDK_TEXT/SSC308QE_CODEBASE/sdk/linux/init/sys/sys_init.o

___ksymtab+g_mi_sys_internal_apis
                0x0000000000000000        0xc
 ___ksymtab+g_mi_sys_internal_apis
                0x0000000000000000        0xc /home/lixx/ZGCX/S1_Project/SSC308QE_SDK/Iford_IMD00V005.0.1_fastboot/SourceCode/SSC308QE_SDK_TEXT/SSC308QE_CODEBASE/sdk/linux/init/sys/sys_init.o

___ksymtab+DRV_DISP_GetDeviceInstance
                0x0000000000000000        0xc
 ___ksymtab+DRV_DISP_GetDeviceInstance
                0x0000000000000000        0xc /home/lixx/ZGCX/S1_Project/SSC308QE_SDK/Iford_IMD00V005.0.1_fastboot/SourceCode/SSC308QE_SDK_TEXT/SSC308QE_CODEBASE/sdk/linux/init/disp/disp_init.o

___ksymtab+g_mi_vif_internal_apis
                0x0000000000000000        0xc
 ___ksymtab+g_mi_vif_internal_apis
                0x0000000000000000        0xc /home/lixx/ZGCX/S1_Project/SSC308QE_SDK/Iford_IMD00V005.0.1_fastboot/SourceCode/SSC308QE_SDK_TEXT/SSC308QE_CODEBASE/sdk/linux/init/vif/vif_export.o

___ksymtab+MI_COMMON_ModuleIdToPrefixName
                0x0000000000000000        0xc
 ___ksymtab+MI_COMMON_ModuleIdToPrefixName
                0x0000000000000000        0xc /home/lixx/ZGCX/S1_Project/SSC308QE_SDK/Iford_IMD00V005.0.1_fastboot/SourceCode/SSC308QE_SDK_TEXT/SSC308QE_CODEBASE/sdk/linux/init/common/common_init.o

___ksymtab+MI_DEVICE_GetProcHalDir_Tag
                0x0000000000000000        0xc
 ___ksymtab+MI_DEVICE_GetProcHalDir_Tag
                0x0000000000000000        0xc /home/lixx/ZGCX/S1_Project/SSC308QE_SDK/Iford_IMD00V005.0.1_fastboot/SourceCode/SSC308QE_SDK_TEXT/SSC308QE_CODEBASE/sdk/linux/init/common/common_init.o

___ksymtab+MI_DEVICE_GetProcModuleDir
                0x0000000000000000        0xc
 ___ksymtab+MI_DEVICE_GetProcModuleDir
                0x0000000000000000        0xc /home/lixx/ZGCX/S1_Project/SSC308QE_SDK/Iford_IMD00V005.0.1_fastboot/SourceCode/SSC308QE_SDK_TEXT/SSC308QE_CODEBASE/sdk/linux/init/common/common_init.o

___ksymtab+MI_DEVICE_Register
                0x0000000000000000        0xc
 ___ksymtab+MI_DEVICE_Register
                0x0000000000000000        0xc /home/lixx/ZGCX/S1_Project/SSC308QE_SDK/Iford_IMD00V005.0.1_fastboot/SourceCode/SSC308QE_SDK_TEXT/SSC308QE_CODEBASE/sdk/linux/init/common/common_init.o

___ksymtab+MI_DEVICE_SetProcHalDir_Tag
                0x0000000000000000        0xc
 ___ksymtab+MI_DEVICE_SetProcHalDir_Tag
                0x0000000000000000        0xc /home/lixx/ZGCX/S1_Project/SSC308QE_SDK/Iford_IMD00V005.0.1_fastboot/SourceCode/SSC308QE_SDK_TEXT/SSC308QE_CODEBASE/sdk/linux/init/common/common_init.o

___ksymtab+MI_DEVICE_Unregister
                0x0000000000000000        0xc
 ___ksymtab+MI_DEVICE_Unregister
                0x0000000000000000        0xc /home/lixx/ZGCX/S1_Project/SSC308QE_SDK/Iford_IMD00V005.0.1_fastboot/SourceCode/SSC308QE_SDK_TEXT/SSC308QE_CODEBASE/sdk/linux/init/common/common_init.o

___ksymtab+debug_show
                0x0000000000000000        0xc
 ___ksymtab+debug_show
                0x0000000000000000        0xc /home/lixx/ZGCX/S1_Project/SSC308QE_SDK/Iford_IMD00V005.0.1_fastboot/SourceCode/SSC308QE_SDK_TEXT/SSC308QE_CODEBASE/sdk/linux/init/common/common_init.o

___ksymtab+debug_write
                0x0000000000000000        0xc
 ___ksymtab+debug_write
                0x0000000000000000        0xc /home/lixx/ZGCX/S1_Project/SSC308QE_SDK/Iford_IMD00V005.0.1_fastboot/SourceCode/SSC308QE_SDK_TEXT/SSC308QE_CODEBASE/sdk/linux/init/common/common_init.o

___ksymtab+number_show
                0x0000000000000000        0xc
 ___ksymtab+number_show
                0x0000000000000000        0xc /home/lixx/ZGCX/S1_Project/SSC308QE_SDK/Iford_IMD00V005.0.1_fastboot/SourceCode/SSC308QE_SDK_TEXT/SSC308QE_CODEBASE/sdk/linux/init/common/common_init.o

___ksymtab+number_write
                0x0000000000000000        0xc
 ___ksymtab+number_write
                0x0000000000000000        0xc /home/lixx/ZGCX/S1_Project/SSC308QE_SDK/Iford_IMD00V005.0.1_fastboot/SourceCode/SSC308QE_SDK_TEXT/SSC308QE_CODEBASE/sdk/linux/init/common/common_init.o

___ksymtab+version_show
                0x0000000000000000        0xc
 ___ksymtab+version_show
                0x0000000000000000        0xc /home/lixx/ZGCX/S1_Project/SSC308QE_SDK/Iford_IMD00V005.0.1_fastboot/SourceCode/SSC308QE_SDK_TEXT/SSC308QE_CODEBASE/sdk/linux/init/common/common_init.o

___ksymtab+g_stVencUserCb
                0x0000000000000000        0xc
 ___ksymtab+g_stVencUserCb
                0x0000000000000000        0xc /home/lixx/ZGCX/S1_Project/SSC308QE_SDK/Iford_IMD00V005.0.1_fastboot/SourceCode/SSC308QE_SDK_TEXT/SSC308QE_CODEBASE/sdk/linux/init/venc/venc_init.o

.rodata1
 *(.rodata1)

.ARM.extab      0x0000000000000000     0x1fe0
 *(.ARM.extab)
 .ARM.extab     0x0000000000000000      0x264 /home/lixx/ZGCX/S1_Project/SSC308QE_SDK/Iford_IMD00V005.0.1_fastboot/SourceCode/SSC308QE_SDK_TEXT/SSC308QE_CODEBASE/sdk/linux/init/sensor/../../obj/uclibc/9.1.0/sensor.o
 .ARM.extab     0x0000000000000264       0x24 /home/lixx/ZGCX/S1_Project/SSC308QE_SDK/Iford_IMD00V005.0.1_fastboot/SourceCode/SSC308QE_SDK_TEXT/SSC308QE_CODEBASE/sdk/linux/init/sensor/csi_init.o
 .ARM.extab     0x0000000000000288        0xc /home/lixx/ZGCX/S1_Project/SSC308QE_SDK/Iford_IMD00V005.0.1_fastboot/SourceCode/SSC308QE_SDK_TEXT/SSC308QE_CODEBASE/sdk/linux/init/sensor/sensor_init.o
 .ARM.extab     0x0000000000000294      0x27c /home/lixx/ZGCX/S1_Project/SSC308QE_SDK/Iford_IMD00V005.0.1_fastboot/SourceCode/SSC308QE_SDK_TEXT/SSC308QE_CODEBASE/sdk/linux/init/aio/../../obj/uclibc/9.1.0/aio.o
 .ARM.extab     0x0000000000000510       0x18 /home/lixx/ZGCX/S1_Project/SSC308QE_SDK/Iford_IMD00V005.0.1_fastboot/SourceCode/SSC308QE_SDK_TEXT/SSC308QE_CODEBASE/sdk/linux/init/aio/aio_init.o
 .ARM.extab     0x0000000000000528      0x1d4 /home/lixx/ZGCX/S1_Project/SSC308QE_SDK/Iford_IMD00V005.0.1_fastboot/SourceCode/SSC308QE_SDK_TEXT/SSC308QE_CODEBASE/sdk/linux/init/rgn/../../obj/uclibc/9.1.0/rgn.o
 .ARM.extab     0x00000000000006fc        0x0 /home/lixx/ZGCX/S1_Project/SSC308QE_SDK/Iford_IMD00V005.0.1_fastboot/SourceCode/SSC308QE_SDK_TEXT/SSC308QE_CODEBASE/sdk/linux/init/rgn/rgn_init.o
 .ARM.extab     0x00000000000006fc       0x84 /home/lixx/ZGCX/S1_Project/SSC308QE_SDK/Iford_IMD00V005.0.1_fastboot/SourceCode/SSC308QE_SDK_TEXT/SSC308QE_CODEBASE/sdk/linux/init/ive/../../obj/uclibc/9.1.0/ive.o
 .ARM.extab     0x0000000000000780        0x0 /home/lixx/ZGCX/S1_Project/SSC308QE_SDK/Iford_IMD00V005.0.1_fastboot/SourceCode/SSC308QE_SDK_TEXT/SSC308QE_CODEBASE/sdk/linux/init/ive/ive_init.o
 .ARM.extab     0x0000000000000780       0x18 /home/lixx/ZGCX/S1_Project/SSC308QE_SDK/Iford_IMD00V005.0.1_fastboot/SourceCode/SSC308QE_SDK_TEXT/SSC308QE_CODEBASE/sdk/linux/init/ao/../../obj/uclibc/9.1.0/ao.o
 .ARM.extab     0x0000000000000798        0x0 /home/lixx/ZGCX/S1_Project/SSC308QE_SDK/Iford_IMD00V005.0.1_fastboot/SourceCode/SSC308QE_SDK_TEXT/SSC308QE_CODEBASE/sdk/linux/init/ao/ao_init.o
 .ARM.extab     0x0000000000000798       0x18 /home/lixx/ZGCX/S1_Project/SSC308QE_SDK/Iford_IMD00V005.0.1_fastboot/SourceCode/SSC308QE_SDK_TEXT/SSC308QE_CODEBASE/sdk/linux/init/shadow/../../obj/uclibc/9.1.0/shadow.o
 .ARM.extab     0x00000000000007b0        0x0 /home/lixx/ZGCX/S1_Project/SSC308QE_SDK/Iford_IMD00V005.0.1_fastboot/SourceCode/SSC308QE_SDK_TEXT/SSC308QE_CODEBASE/sdk/linux/init/shadow/shadow_init.o
 .ARM.extab     0x00000000000007b0      0x954 /home/lixx/ZGCX/S1_Project/SSC308QE_SDK/Iford_IMD00V005.0.1_fastboot/SourceCode/SSC308QE_SDK_TEXT/SSC308QE_CODEBASE/sdk/linux/init/isp/../../obj/uclibc/9.1.0/isp.o
 .ARM.extab     0x0000000000001104       0x18 /home/lixx/ZGCX/S1_Project/SSC308QE_SDK/Iford_IMD00V005.0.1_fastboot/SourceCode/SSC308QE_SDK_TEXT/SSC308QE_CODEBASE/sdk/linux/init/isp/isp_init.o
 .ARM.extab     0x000000000000111c        0xc /home/lixx/ZGCX/S1_Project/SSC308QE_SDK/Iford_IMD00V005.0.1_fastboot/SourceCode/SSC308QE_SDK_TEXT/SSC308QE_CODEBASE/sdk/linux/init/isp/ispmid_init.o
 .ARM.extab     0x0000000000001128        0x0 /home/lixx/ZGCX/S1_Project/SSC308QE_SDK/Iford_IMD00V005.0.1_fastboot/SourceCode/SSC308QE_SDK_TEXT/SSC308QE_CODEBASE/sdk/linux/init/isp/mload_init.o
 .ARM.extab     0x0000000000001128       0xc0 /home/lixx/ZGCX/S1_Project/SSC308QE_SDK/Iford_IMD00V005.0.1_fastboot/SourceCode/SSC308QE_SDK_TEXT/SSC308QE_CODEBASE/sdk/linux/init/ipu/../../obj/uclibc/9.1.0/ipu.o
 .ARM.extab     0x00000000000011e8        0x0 /home/lixx/ZGCX/S1_Project/SSC308QE_SDK/Iford_IMD00V005.0.1_fastboot/SourceCode/SSC308QE_SDK_TEXT/SSC308QE_CODEBASE/sdk/linux/init/ipu/ipu_init.o
 .ARM.extab     0x00000000000011e8      0x2dc /home/lixx/ZGCX/S1_Project/SSC308QE_SDK/Iford_IMD00V005.0.1_fastboot/SourceCode/SSC308QE_SDK_TEXT/SSC308QE_CODEBASE/sdk/linux/init/sys/../../obj/uclibc/9.1.0/sys.o
 .ARM.extab     0x00000000000014c4        0x0 /home/lixx/ZGCX/S1_Project/SSC308QE_SDK/Iford_IMD00V005.0.1_fastboot/SourceCode/SSC308QE_SDK_TEXT/SSC308QE_CODEBASE/sdk/linux/init/sys/cmdq_init.o
 .ARM.extab     0x00000000000014c4       0x18 /home/lixx/ZGCX/S1_Project/SSC308QE_SDK/Iford_IMD00V005.0.1_fastboot/SourceCode/SSC308QE_SDK_TEXT/SSC308QE_CODEBASE/sdk/linux/init/sys/sys_init.o
 .ARM.extab     0x00000000000014dc      0x150 /home/lixx/ZGCX/S1_Project/SSC308QE_SDK/Iford_IMD00V005.0.1_fastboot/SourceCode/SSC308QE_SDK_TEXT/SSC308QE_CODEBASE/sdk/linux/init/disp/../../obj/uclibc/9.1.0/disp.o
 .ARM.extab     0x000000000000162c        0xc /home/lixx/ZGCX/S1_Project/SSC308QE_SDK/Iford_IMD00V005.0.1_fastboot/SourceCode/SSC308QE_SDK_TEXT/SSC308QE_CODEBASE/sdk/linux/init/disp/disp_init.o
 .ARM.extab     0x0000000000001638      0x51c /home/lixx/ZGCX/S1_Project/SSC308QE_SDK/Iford_IMD00V005.0.1_fastboot/SourceCode/SSC308QE_SDK_TEXT/SSC308QE_CODEBASE/sdk/linux/init/vif/../../obj/uclibc/9.1.0/vif.o
 .ARM.extab     0x0000000000001b54       0x3c /home/lixx/ZGCX/S1_Project/SSC308QE_SDK/Iford_IMD00V005.0.1_fastboot/SourceCode/SSC308QE_SDK_TEXT/SSC308QE_CODEBASE/sdk/linux/init/vif/vif_init.o
 .ARM.extab     0x0000000000001b90       0x84 /home/lixx/ZGCX/S1_Project/SSC308QE_SDK/Iford_IMD00V005.0.1_fastboot/SourceCode/SSC308QE_SDK_TEXT/SSC308QE_CODEBASE/sdk/linux/init/common/../../obj/uclibc/9.1.0/common.o
 .ARM.extab     0x0000000000001c14        0x0 /home/lixx/ZGCX/S1_Project/SSC308QE_SDK/Iford_IMD00V005.0.1_fastboot/SourceCode/SSC308QE_SDK_TEXT/SSC308QE_CODEBASE/sdk/linux/init/common/common_init.o
 .ARM.extab     0x0000000000001c14       0x18 /home/lixx/ZGCX/S1_Project/SSC308QE_SDK/Iford_IMD00V005.0.1_fastboot/SourceCode/SSC308QE_SDK_TEXT/SSC308QE_CODEBASE/sdk/linux/init/ai/../../obj/uclibc/9.1.0/ai.o
 .ARM.extab     0x0000000000001c2c        0x0 /home/lixx/ZGCX/S1_Project/SSC308QE_SDK/Iford_IMD00V005.0.1_fastboot/SourceCode/SSC308QE_SDK_TEXT/SSC308QE_CODEBASE/sdk/linux/init/ai/ai_init.o
 .ARM.extab     0x0000000000001c2c      0x324 /home/lixx/ZGCX/S1_Project/SSC308QE_SDK/Iford_IMD00V005.0.1_fastboot/SourceCode/SSC308QE_SDK_TEXT/SSC308QE_CODEBASE/sdk/linux/init/venc/../../obj/uclibc/9.1.0/venc.o
 .ARM.extab     0x0000000000001f50       0x18 /home/lixx/ZGCX/S1_Project/SSC308QE_SDK/Iford_IMD00V005.0.1_fastboot/SourceCode/SSC308QE_SDK_TEXT/SSC308QE_CODEBASE/sdk/linux/init/venc/venc_init.o
 .ARM.extab     0x0000000000001f68       0x78 /home/lixx/ZGCX/S1_Project/SSC308QE_SDK/Iford_IMD00V005.0.1_fastboot/SourceCode/SSC308QE_SDK_TEXT/SSC308QE_CODEBASE/sdk/linux/init/scl/../../obj/uclibc/9.1.0/scl.o
 .ARM.extab     0x0000000000001fe0        0x0 /home/lixx/ZGCX/S1_Project/SSC308QE_SDK/Iford_IMD00V005.0.1_fastboot/SourceCode/SSC308QE_SDK_TEXT/SSC308QE_CODEBASE/sdk/linux/init/scl/scl_init.o

.ARM.exidx      0x0000000000000000    0x10948
 *(.ARM.exidx)
 .ARM.exidx     0x0000000000000000      0xbd8 /home/lixx/ZGCX/S1_Project/SSC308QE_SDK/Iford_IMD00V005.0.1_fastboot/SourceCode/SSC308QE_SDK_TEXT/SSC308QE_CODEBASE/sdk/linux/init/sensor/../../obj/uclibc/9.1.0/sensor.o
 .ARM.exidx     0x0000000000000bd8       0x68 /home/lixx/ZGCX/S1_Project/SSC308QE_SDK/Iford_IMD00V005.0.1_fastboot/SourceCode/SSC308QE_SDK_TEXT/SSC308QE_CODEBASE/sdk/linux/init/sensor/csi_init.o
 .ARM.exidx     0x0000000000000c40       0x88 /home/lixx/ZGCX/S1_Project/SSC308QE_SDK/Iford_IMD00V005.0.1_fastboot/SourceCode/SSC308QE_SDK_TEXT/SSC308QE_CODEBASE/sdk/linux/init/sensor/sensor_init.o
 .ARM.exidx     0x0000000000000cc8      0xa98 /home/lixx/ZGCX/S1_Project/SSC308QE_SDK/Iford_IMD00V005.0.1_fastboot/SourceCode/SSC308QE_SDK_TEXT/SSC308QE_CODEBASE/sdk/linux/init/aio/../../obj/uclibc/9.1.0/aio.o
 .ARM.exidx     0x0000000000001760       0x38 /home/lixx/ZGCX/S1_Project/SSC308QE_SDK/Iford_IMD00V005.0.1_fastboot/SourceCode/SSC308QE_SDK_TEXT/SSC308QE_CODEBASE/sdk/linux/init/aio/aio_init.o
 .ARM.exidx     0x0000000000001798     0x1158 /home/lixx/ZGCX/S1_Project/SSC308QE_SDK/Iford_IMD00V005.0.1_fastboot/SourceCode/SSC308QE_SDK_TEXT/SSC308QE_CODEBASE/sdk/linux/init/rgn/../../obj/uclibc/9.1.0/rgn.o
 .ARM.exidx     0x00000000000028f0       0x20 /home/lixx/ZGCX/S1_Project/SSC308QE_SDK/Iford_IMD00V005.0.1_fastboot/SourceCode/SSC308QE_SDK_TEXT/SSC308QE_CODEBASE/sdk/linux/init/rgn/rgn_init.o
 .ARM.exidx     0x0000000000002910      0x6a8 /home/lixx/ZGCX/S1_Project/SSC308QE_SDK/Iford_IMD00V005.0.1_fastboot/SourceCode/SSC308QE_SDK_TEXT/SSC308QE_CODEBASE/sdk/linux/init/ive/../../obj/uclibc/9.1.0/ive.o
 .ARM.exidx     0x0000000000002fb8       0x28 /home/lixx/ZGCX/S1_Project/SSC308QE_SDK/Iford_IMD00V005.0.1_fastboot/SourceCode/SSC308QE_SDK_TEXT/SSC308QE_CODEBASE/sdk/linux/init/ive/ive_init.o
 .ARM.exidx     0x0000000000002fe0      0x470 /home/lixx/ZGCX/S1_Project/SSC308QE_SDK/Iford_IMD00V005.0.1_fastboot/SourceCode/SSC308QE_SDK_TEXT/SSC308QE_CODEBASE/sdk/linux/init/ao/../../obj/uclibc/9.1.0/ao.o
 .ARM.exidx     0x0000000000003450       0x10 /home/lixx/ZGCX/S1_Project/SSC308QE_SDK/Iford_IMD00V005.0.1_fastboot/SourceCode/SSC308QE_SDK_TEXT/SSC308QE_CODEBASE/sdk/linux/init/ao/ao_init.o
 .ARM.exidx     0x0000000000003460      0x230 /home/lixx/ZGCX/S1_Project/SSC308QE_SDK/Iford_IMD00V005.0.1_fastboot/SourceCode/SSC308QE_SDK_TEXT/SSC308QE_CODEBASE/sdk/linux/init/shadow/../../obj/uclibc/9.1.0/shadow.o
 .ARM.exidx     0x0000000000003690       0x10 /home/lixx/ZGCX/S1_Project/SSC308QE_SDK/Iford_IMD00V005.0.1_fastboot/SourceCode/SSC308QE_SDK_TEXT/SSC308QE_CODEBASE/sdk/linux/init/shadow/shadow_init.o
 .ARM.exidx     0x00000000000036a0     0x45e8 /home/lixx/ZGCX/S1_Project/SSC308QE_SDK/Iford_IMD00V005.0.1_fastboot/SourceCode/SSC308QE_SDK_TEXT/SSC308QE_CODEBASE/sdk/linux/init/isp/../../obj/uclibc/9.1.0/isp.o
 .ARM.exidx     0x0000000000007c88       0x78 /home/lixx/ZGCX/S1_Project/SSC308QE_SDK/Iford_IMD00V005.0.1_fastboot/SourceCode/SSC308QE_SDK_TEXT/SSC308QE_CODEBASE/sdk/linux/init/isp/isp_init.o
 .ARM.exidx     0x0000000000007d00       0x98 /home/lixx/ZGCX/S1_Project/SSC308QE_SDK/Iford_IMD00V005.0.1_fastboot/SourceCode/SSC308QE_SDK_TEXT/SSC308QE_CODEBASE/sdk/linux/init/isp/ispmid_init.o
 .ARM.exidx     0x0000000000007d98       0x10 /home/lixx/ZGCX/S1_Project/SSC308QE_SDK/Iford_IMD00V005.0.1_fastboot/SourceCode/SSC308QE_SDK_TEXT/SSC308QE_CODEBASE/sdk/linux/init/isp/mload_init.o
 .ARM.exidx     0x0000000000007da8      0x8d0 /home/lixx/ZGCX/S1_Project/SSC308QE_SDK/Iford_IMD00V005.0.1_fastboot/SourceCode/SSC308QE_SDK_TEXT/SSC308QE_CODEBASE/sdk/linux/init/ipu/../../obj/uclibc/9.1.0/ipu.o
 .ARM.exidx     0x0000000000008678       0x38 /home/lixx/ZGCX/S1_Project/SSC308QE_SDK/Iford_IMD00V005.0.1_fastboot/SourceCode/SSC308QE_SDK_TEXT/SSC308QE_CODEBASE/sdk/linux/init/ipu/ipu_init.o
 .ARM.exidx     0x00000000000086b0     0x1e20 /home/lixx/ZGCX/S1_Project/SSC308QE_SDK/Iford_IMD00V005.0.1_fastboot/SourceCode/SSC308QE_SDK_TEXT/SSC308QE_CODEBASE/sdk/linux/init/sys/../../obj/uclibc/9.1.0/sys.o
 .ARM.exidx     0x000000000000a4d0       0x10 /home/lixx/ZGCX/S1_Project/SSC308QE_SDK/Iford_IMD00V005.0.1_fastboot/SourceCode/SSC308QE_SDK_TEXT/SSC308QE_CODEBASE/sdk/linux/init/sys/cmdq_init.o
 .ARM.exidx     0x000000000000a4e0       0xc0 /home/lixx/ZGCX/S1_Project/SSC308QE_SDK/Iford_IMD00V005.0.1_fastboot/SourceCode/SSC308QE_SDK_TEXT/SSC308QE_CODEBASE/sdk/linux/init/sys/sys_init.o
 .ARM.exidx     0x000000000000a5a0     0x1678 /home/lixx/ZGCX/S1_Project/SSC308QE_SDK/Iford_IMD00V005.0.1_fastboot/SourceCode/SSC308QE_SDK_TEXT/SSC308QE_CODEBASE/sdk/linux/init/disp/../../obj/uclibc/9.1.0/disp.o
 .ARM.exidx     0x000000000000bc18       0x40 /home/lixx/ZGCX/S1_Project/SSC308QE_SDK/Iford_IMD00V005.0.1_fastboot/SourceCode/SSC308QE_SDK_TEXT/SSC308QE_CODEBASE/sdk/linux/init/disp/disp_init.o
 .ARM.exidx     0x000000000000bc58     0x13c0 /home/lixx/ZGCX/S1_Project/SSC308QE_SDK/Iford_IMD00V005.0.1_fastboot/SourceCode/SSC308QE_SDK_TEXT/SSC308QE_CODEBASE/sdk/linux/init/vif/../../obj/uclibc/9.1.0/vif.o
 .ARM.exidx     0x000000000000d018       0x98 /home/lixx/ZGCX/S1_Project/SSC308QE_SDK/Iford_IMD00V005.0.1_fastboot/SourceCode/SSC308QE_SDK_TEXT/SSC308QE_CODEBASE/sdk/linux/init/vif/vif_init.o
 .ARM.exidx     0x000000000000d0b0      0x4f8 /home/lixx/ZGCX/S1_Project/SSC308QE_SDK/Iford_IMD00V005.0.1_fastboot/SourceCode/SSC308QE_SDK_TEXT/SSC308QE_CODEBASE/sdk/linux/init/common/../../obj/uclibc/9.1.0/common.o
 .ARM.exidx     0x000000000000d5a8       0x30 /home/lixx/ZGCX/S1_Project/SSC308QE_SDK/Iford_IMD00V005.0.1_fastboot/SourceCode/SSC308QE_SDK_TEXT/SSC308QE_CODEBASE/sdk/linux/init/common/common_init.o
 .ARM.exidx     0x000000000000d5d8      0x448 /home/lixx/ZGCX/S1_Project/SSC308QE_SDK/Iford_IMD00V005.0.1_fastboot/SourceCode/SSC308QE_SDK_TEXT/SSC308QE_CODEBASE/sdk/linux/init/ai/../../obj/uclibc/9.1.0/ai.o
 .ARM.exidx     0x000000000000da20       0x10 /home/lixx/ZGCX/S1_Project/SSC308QE_SDK/Iford_IMD00V005.0.1_fastboot/SourceCode/SSC308QE_SDK_TEXT/SSC308QE_CODEBASE/sdk/linux/init/ai/ai_init.o
 .ARM.exidx     0x000000000000da30     0x2108 /home/lixx/ZGCX/S1_Project/SSC308QE_SDK/Iford_IMD00V005.0.1_fastboot/SourceCode/SSC308QE_SDK_TEXT/SSC308QE_CODEBASE/sdk/linux/init/venc/../../obj/uclibc/9.1.0/venc.o
 .ARM.exidx     0x000000000000fb38       0x60 /home/lixx/ZGCX/S1_Project/SSC308QE_SDK/Iford_IMD00V005.0.1_fastboot/SourceCode/SSC308QE_SDK_TEXT/SSC308QE_CODEBASE/sdk/linux/init/venc/venc_init.o
 .ARM.exidx     0x000000000000fb98      0xd90 /home/lixx/ZGCX/S1_Project/SSC308QE_SDK/Iford_IMD00V005.0.1_fastboot/SourceCode/SSC308QE_SDK_TEXT/SSC308QE_CODEBASE/sdk/linux/init/scl/../../obj/uclibc/9.1.0/scl.o
 .ARM.exidx     0x0000000000010928       0x20 /home/lixx/ZGCX/S1_Project/SSC308QE_SDK/Iford_IMD00V005.0.1_fastboot/SourceCode/SSC308QE_SDK_TEXT/SSC308QE_CODEBASE/sdk/linux/init/scl/scl_init.o

.eh_frame_hdr
 *(.eh_frame_hdr)

.eh_frame
 *(.eh_frame)

.gcc_except_table
 *(.gcc_except_table)

.gnu_extab
 *(.gnu_extab*)

.exception_ranges
 *(.exception_ranges)

.eh_frame
 *(.eh_frame)

.gnu_extab
 *(.gnu_extab)

.gcc_except_table
 *(.gcc_except_table)

.exception_ranges
 *(.exception_ranges)

.tdata
 *(.tdata)

.tbss
 *(.tbss)

.jcr
 *(.jcr)

.dynamic
 *(.dynamic)

.got
 *(.got)

.data           0x0000000000000000    0x16a98
 *(.data)
 .data          0x0000000000000000        0x0 /home/lixx/ZGCX/S1_Project/SSC308QE_SDK/Iford_IMD00V005.0.1_fastboot/SourceCode/SSC308QE_SDK_TEXT/SSC308QE_CODEBASE/sdk/linux/init/module.o
 .data          0x0000000000000000      0x570 /home/lixx/ZGCX/S1_Project/SSC308QE_SDK/Iford_IMD00V005.0.1_fastboot/SourceCode/SSC308QE_SDK_TEXT/SSC308QE_CODEBASE/sdk/linux/init/sensor/../../obj/uclibc/9.1.0/sensor.o
                0x00000000000000d0                sensor_debug_level
                0x00000000000000d4                g_mi_sensor_internal_apis
                0x0000000000000198                g_u32CsiIntEn
                0x000000000000019c                g_u32CsiInfoEn
                0x00000000000001e0                g_snrPadmuxModeStr
                0x0000000000000228                g_snrGpioModeStr
                0x0000000000000234                SnrPadModeAttr
                0x0000000000000390                g_au32DaulSnrBindSelect
                0x0000000000000398                g_asDualSnrPWMConfig
                0x00000000000003fc                SensorI2cMaster
                0x0000000000000444                SensorI2cPadMux
                0x0000000000000448                g_u8VcmI2cMaster
                0x0000000000000458                SnrRstGpio
                0x0000000000000464                SnrPdnGpio
                0x0000000000000470                g_au32CsiAnaLaneSelect
                0x00000000000004dc                g_au32CsiAnaLanePnSwap
                0x0000000000000548                g_uSnrPad2BankID
                0x0000000000000554                g_au32CsiAtopBanks
                0x0000000000000558                g_au32CsiBanks
 .data          0x0000000000000570      0x270 /home/lixx/ZGCX/S1_Project/SSC308QE_SDK/Iford_IMD00V005.0.1_fastboot/SourceCode/SSC308QE_SDK_TEXT/SSC308QE_CODEBASE/sdk/linux/init/sensor/csi_init.o
                0x0000000000000570                g_stCsiFOps
 .data          0x00000000000007e0        0x0 /home/lixx/ZGCX/S1_Project/SSC308QE_SDK/Iford_IMD00V005.0.1_fastboot/SourceCode/SSC308QE_SDK_TEXT/SSC308QE_CODEBASE/sdk/linux/init/sensor/sensor_export.o
 .data          0x00000000000007e0       0xe8 /home/lixx/ZGCX/S1_Project/SSC308QE_SDK/Iford_IMD00V005.0.1_fastboot/SourceCode/SSC308QE_SDK_TEXT/SSC308QE_CODEBASE/sdk/linux/init/sensor/sensor_init.o
                0x00000000000007e0                g_stSensorIfFOps
 .data          0x00000000000008c8       0xf4 /home/lixx/ZGCX/S1_Project/SSC308QE_SDK/Iford_IMD00V005.0.1_fastboot/SourceCode/SSC308QE_SDK_TEXT/SSC308QE_CODEBASE/sdk/linux/init/aio/../../obj/uclibc/9.1.0/aio.o
                0x00000000000008c8                g_stMhalAudioInternalApi
 .data          0x00000000000009bc        0x0 /home/lixx/ZGCX/S1_Project/SSC308QE_SDK/Iford_IMD00V005.0.1_fastboot/SourceCode/SSC308QE_SDK_TEXT/SSC308QE_CODEBASE/sdk/linux/init/aio/aio_init.o
 .data          0x00000000000009bc      0x2d0 /home/lixx/ZGCX/S1_Project/SSC308QE_SDK/Iford_IMD00V005.0.1_fastboot/SourceCode/SSC308QE_SDK_TEXT/SSC308QE_CODEBASE/sdk/linux/init/rgn/../../obj/uclibc/9.1.0/rgn.o
                0x0000000000000a8c                rgn_debug_level
                0x0000000000000b50                g_miRgnInternalApis
                0x0000000000000b84                g_u32ColorKeyMask
                0x0000000000000b98                g_stMhalRgnInternalApis
 *fill*         0x0000000000000c8c        0x4 
 .data          0x0000000000000c90      0x200 /home/lixx/ZGCX/S1_Project/SSC308QE_SDK/Iford_IMD00V005.0.1_fastboot/SourceCode/SSC308QE_SDK_TEXT/SSC308QE_CODEBASE/sdk/linux/init/rgn/rgn_init.o
 .data          0x0000000000000e90      0x17c /home/lixx/ZGCX/S1_Project/SSC308QE_SDK/Iford_IMD00V005.0.1_fastboot/SourceCode/SSC308QE_SDK_TEXT/SSC308QE_CODEBASE/sdk/linux/init/ive/../../obj/uclibc/9.1.0/ive.o
                0x0000000000001008                ive_debug_level
 .data          0x000000000000100c        0x0 /home/lixx/ZGCX/S1_Project/SSC308QE_SDK/Iford_IMD00V005.0.1_fastboot/SourceCode/SSC308QE_SDK_TEXT/SSC308QE_CODEBASE/sdk/linux/init/ive/ive_init.o
 .data          0x000000000000100c      0x1a8 /home/lixx/ZGCX/S1_Project/SSC308QE_SDK/Iford_IMD00V005.0.1_fastboot/SourceCode/SSC308QE_SDK_TEXT/SSC308QE_CODEBASE/sdk/linux/init/ao/../../obj/uclibc/9.1.0/ao.o
                0x000000000000100c                ao_debug_level
 .data          0x00000000000011b4        0x0 /home/lixx/ZGCX/S1_Project/SSC308QE_SDK/Iford_IMD00V005.0.1_fastboot/SourceCode/SSC308QE_SDK_TEXT/SSC308QE_CODEBASE/sdk/linux/init/ao/ao_init.o
 .data          0x00000000000011b4       0x9c /home/lixx/ZGCX/S1_Project/SSC308QE_SDK/Iford_IMD00V005.0.1_fastboot/SourceCode/SSC308QE_SDK_TEXT/SSC308QE_CODEBASE/sdk/linux/init/shadow/../../obj/uclibc/9.1.0/shadow.o
                0x000000000000124c                shadow_debug_level
 .data          0x0000000000001250        0x0 /home/lixx/ZGCX/S1_Project/SSC308QE_SDK/Iford_IMD00V005.0.1_fastboot/SourceCode/SSC308QE_SDK_TEXT/SSC308QE_CODEBASE/sdk/linux/init/shadow/shadow_init.o
 .data          0x0000000000001250    0x1333c /home/lixx/ZGCX/S1_Project/SSC308QE_SDK/Iford_IMD00V005.0.1_fastboot/SourceCode/SSC308QE_SDK_TEXT/SSC308QE_CODEBASE/sdk/linux/init/isp/../../obj/uclibc/9.1.0/isp.o
                0x0000000000001250                isp_debug_level
                0x00000000000015f8                g_mi_isp_internal_api
                0x0000000000001600                g_u8WdrEnable
                0x0000000000001608                qlevel_luma_8bpc
                0x0000000000001648                qlevel_luma_10bpc
                0x0000000000001698                qlevel_luma_12bpc
                0x00000000000016f8                qlevel_luma_14bpc
                0x0000000000001768                qlevel_luma_16bpc
                0x00000000000017e8                qlevel_chroma_8bpc
                0x0000000000001828                qlevel_chroma_10bpc
                0x0000000000001878                qlevel_chroma_12bpc
                0x00000000000018d8                qlevel_chroma_14bpc
                0x0000000000001948                qlevel_chroma_16bpc
                0x0000000000001ac0                g_u32IspHalTnrDscRingLines
                0x0000000000001ac4                g_u32IspRstDelay
                0x0000000000002c6c                g_u32IspCmdqLoaclAvailableID
                0x0000000000002c78                g_tShadIdToSramIdTable
                0x0000000000002cc0                iq_bin
                0x000000000000e222                Dbg_Items
                0x00000000000117e4                strHDRWdrCurve
                0x0000000000011998                strLDRWdrCurve
                0x0000000000011a8c                Regmap
 .data          0x000000000001458c      0x1f4 /home/lixx/ZGCX/S1_Project/SSC308QE_SDK/Iford_IMD00V005.0.1_fastboot/SourceCode/SSC308QE_SDK_TEXT/SSC308QE_CODEBASE/sdk/linux/init/isp/isp_init.o
                0x00000000000145f4                g_s32PreSetClkIdx
 .data          0x0000000000014780      0x110 /home/lixx/ZGCX/S1_Project/SSC308QE_SDK/Iford_IMD00V005.0.1_fastboot/SourceCode/SSC308QE_SDK_TEXT/SSC308QE_CODEBASE/sdk/linux/init/isp/ispmid_init.o
                0x0000000000014790                g_stIspFeFops
                0x0000000000014810                g_stIspFeFops1
 .data          0x0000000000014890        0x0 /home/lixx/ZGCX/S1_Project/SSC308QE_SDK/Iford_IMD00V005.0.1_fastboot/SourceCode/SSC308QE_SDK_TEXT/SSC308QE_CODEBASE/sdk/linux/init/isp/mload_init.o
 .data          0x0000000000014890      0x100 /home/lixx/ZGCX/S1_Project/SSC308QE_SDK/Iford_IMD00V005.0.1_fastboot/SourceCode/SSC308QE_SDK_TEXT/SSC308QE_CODEBASE/sdk/linux/init/ipu/../../obj/uclibc/9.1.0/ipu.o
                0x0000000000014958                ipu_debug_level
                0x000000000001498c                _gpstDev
 .data          0x0000000000014990        0x0 /home/lixx/ZGCX/S1_Project/SSC308QE_SDK/Iford_IMD00V005.0.1_fastboot/SourceCode/SSC308QE_SDK_TEXT/SSC308QE_CODEBASE/sdk/linux/init/ipu/ipu_init.o
 .data          0x0000000000014990      0x77c /home/lixx/ZGCX/S1_Project/SSC308QE_SDK/Iford_IMD00V005.0.1_fastboot/SourceCode/SSC308QE_SDK_TEXT/SSC308QE_CODEBASE/sdk/linux/init/sys/../../obj/uclibc/9.1.0/sys.o
                0x0000000000014990                sys_debug_level
                0x0000000000014b54                g_mi_sys_internal_apis
                0x0000000000014ce4                g_mmaAllocationOps
                0x0000000000014d04                g_mmuCallbackRecord
                0x0000000000014d0c                g_mmaHeapList
                0x0000000000014d14                g_bHwSupportMmu
                0x0000000000014d18                g_mmaAllocatorOps
                0x0000000000014d2c                g_kprotectEnabled
                0x0000000000014d30                g_s32CmdqId
                0x0000000000014d38                g_stMiSysModRefDbgParam
                0x0000000000014e98                dbgStrAffix
                0x0000000000014ec8                gstMiSysModParam
                0x0000000000014fc4                g_noJumpTimeout
                0x0000000000014fd8                g_cmdq_internal_apis
                0x0000000000015058                g_halRegCmdCtlBase
                0x0000000000015078                g_PollFileList
                0x00000000000150a4                g_miCustAllocationOps
                0x00000000000150c4                g_miCustAllocatorOps
                0x00000000000150d8                meta_allocation_ops
                0x00000000000150f8                meta_allocator_ops
 .data          0x000000000001510c        0x0 /home/lixx/ZGCX/S1_Project/SSC308QE_SDK/Iford_IMD00V005.0.1_fastboot/SourceCode/SSC308QE_SDK_TEXT/SSC308QE_CODEBASE/sdk/linux/init/sys/cmdq_export.o
 .data          0x000000000001510c        0x0 /home/lixx/ZGCX/S1_Project/SSC308QE_SDK/Iford_IMD00V005.0.1_fastboot/SourceCode/SSC308QE_SDK_TEXT/SSC308QE_CODEBASE/sdk/linux/init/sys/cmdq_init.o
 .data          0x000000000001510c        0xc /home/lixx/ZGCX/S1_Project/SSC308QE_SDK/Iford_IMD00V005.0.1_fastboot/SourceCode/SSC308QE_SDK_TEXT/SSC308QE_CODEBASE/sdk/linux/init/sys/sys_init.o
 .data          0x0000000000015118      0x4ec /home/lixx/ZGCX/S1_Project/SSC308QE_SDK/Iford_IMD00V005.0.1_fastboot/SourceCode/SSC308QE_SDK_TEXT/SSC308QE_CODEBASE/sdk/linux/init/disp/../../obj/uclibc/9.1.0/disp.o
                0x0000000000015118                disp_debug_level
                0x0000000000015320                g_stDispProcfsApi
                0x0000000000015348                g_stPictureNonLinearSetting
                0x0000000000015398                g_lpllSettingTbl
                0x0000000000015520                g_eDispRegAccessMode
                0x0000000000015524                g_stPicturePqCfg
                0x000000000001554e                g_stSDTVYuv2rgb
                0x0000000000015560                g_stByPassYuv2rgb
                0x0000000000015572                g_stHDTVYuv2rgb
                0x0000000000015584                g_u32DispClkDispPllId
                0x0000000000015588                g_u32DispClkNum
                0x000000000001558c                g_u16LpllLoopGainDsi
                0x000000000001559a                g_u16LpllLoopGain
                0x00000000000155a8                g_u16LpllLoopDivDsi
                0x00000000000155b6                g_u16LpllLoopDiv
                0x00000000000155c4                g_stVideoColorCorrectionMatrix
 *fill*         0x0000000000015604        0x4 
 .data          0x0000000000015608      0x208 /home/lixx/ZGCX/S1_Project/SSC308QE_SDK/Iford_IMD00V005.0.1_fastboot/SourceCode/SSC308QE_SDK_TEXT/SSC308QE_CODEBASE/sdk/linux/init/disp/disp_init.o
 .data          0x0000000000015810      0x200 /home/lixx/ZGCX/S1_Project/SSC308QE_SDK/Iford_IMD00V005.0.1_fastboot/SourceCode/SSC308QE_SDK_TEXT/SSC308QE_CODEBASE/sdk/linux/init/vif/../../obj/uclibc/9.1.0/vif.o
                0x0000000000015810                vif_debug_level
                0x00000000000158e4                g_mi_vif_internal_apis
                0x0000000000015938                VifToSnrCb
                0x000000000001593c                g_dev2str
                0x0000000000015958                _StrVifSrc
                0x0000000000015978                _InputFmt
                0x0000000000015980                vif_sd_init
                0x0000000000015998                vif_sd_deinit
                0x00000000000159b0                vif_sd_reset
                0x00000000000159c8                vif_sd_enable
                0x00000000000159e0                vif_sd_disable
                0x00000000000159f8                vif_device_num
 .data          0x0000000000015a10        0x0 /home/lixx/ZGCX/S1_Project/SSC308QE_SDK/Iford_IMD00V005.0.1_fastboot/SourceCode/SSC308QE_SDK_TEXT/SSC308QE_CODEBASE/sdk/linux/init/vif/vif_export.o
 .data          0x0000000000015a10       0x80 /home/lixx/ZGCX/S1_Project/SSC308QE_SDK/Iford_IMD00V005.0.1_fastboot/SourceCode/SSC308QE_SDK_TEXT/SSC308QE_CODEBASE/sdk/linux/init/vif/vif_init.o
                0x0000000000015a10                vif_ops
 .data          0x0000000000015a90      0x158 /home/lixx/ZGCX/S1_Project/SSC308QE_SDK/Iford_IMD00V005.0.1_fastboot/SourceCode/SSC308QE_SDK_TEXT/SSC308QE_CODEBASE/sdk/linux/init/common/../../obj/uclibc/9.1.0/common.o
                0x0000000000015adc                gp_jsonPath
                0x0000000000015ae8                config_json_path
                0x0000000000015b68                g_ModParamPath
 .data          0x0000000000015be8        0x0 /home/lixx/ZGCX/S1_Project/SSC308QE_SDK/Iford_IMD00V005.0.1_fastboot/SourceCode/SSC308QE_SDK_TEXT/SSC308QE_CODEBASE/sdk/linux/init/common/common_init.o
 .data          0x0000000000015be8      0x278 /home/lixx/ZGCX/S1_Project/SSC308QE_SDK/Iford_IMD00V005.0.1_fastboot/SourceCode/SSC308QE_SDK_TEXT/SSC308QE_CODEBASE/sdk/linux/init/ai/../../obj/uclibc/9.1.0/ai.o
                0x0000000000015be8                ai_debug_level
                0x0000000000015d18                g_aMiIfMapToMhalIf
                0x0000000000015dbc                g_aIfMapToStr
 .data          0x0000000000015e60        0x0 /home/lixx/ZGCX/S1_Project/SSC308QE_SDK/Iford_IMD00V005.0.1_fastboot/SourceCode/SSC308QE_SDK_TEXT/SSC308QE_CODEBASE/sdk/linux/init/ai/ai_init.o
 .data          0x0000000000015e60      0xb6c /home/lixx/ZGCX/S1_Project/SSC308QE_SDK/Iford_IMD00V005.0.1_fastboot/SourceCode/SSC308QE_SDK_TEXT/SSC308QE_CODEBASE/sdk/linux/init/venc/../../obj/uclibc/9.1.0/venc.o
                0x0000000000015e60                venc_debug_level
                0x000000000001611c                g_stMiVencModParam
                0x000000000001655c                g_u32VenLogLevel
                0x0000000000016560                g_s32VencHandshakeEnable
                0x0000000000016564                g_u16BwLv
                0x0000000000016568                g_u32ScdnMode
                0x000000000001656c                g_u16MaxFrameSizeRatio
                0x000000000001656e                g_u16VenMiuPChn
                0x0000000000016808                g_s32TimeOutIrqEnable
                0x000000000001680c                g_u8QnsTable
 .data          0x00000000000169cc        0x0 /home/lixx/ZGCX/S1_Project/SSC308QE_SDK/Iford_IMD00V005.0.1_fastboot/SourceCode/SSC308QE_SDK_TEXT/SSC308QE_CODEBASE/sdk/linux/init/venc/venc_init.o
 .data          0x00000000000169cc       0xcc /home/lixx/ZGCX/S1_Project/SSC308QE_SDK/Iford_IMD00V005.0.1_fastboot/SourceCode/SSC308QE_SDK_TEXT/SSC308QE_CODEBASE/sdk/linux/init/scl/../../obj/uclibc/9.1.0/scl.o
                0x0000000000016a94                scl_debug_level
 .data          0x0000000000016a98        0x0 /home/lixx/ZGCX/S1_Project/SSC308QE_SDK/Iford_IMD00V005.0.1_fastboot/SourceCode/SSC308QE_SDK_TEXT/SSC308QE_CODEBASE/sdk/linux/init/scl/scl_export.o
 .data          0x0000000000016a98        0x0 /home/lixx/ZGCX/S1_Project/SSC308QE_SDK/Iford_IMD00V005.0.1_fastboot/SourceCode/SSC308QE_SDK_TEXT/SSC308QE_CODEBASE/sdk/linux/init/scl/scl_init.o

.data.once      0x0000000000000000        0x2
 .data.once     0x0000000000000000        0x1 /home/lixx/ZGCX/S1_Project/SSC308QE_SDK/Iford_IMD00V005.0.1_fastboot/SourceCode/SSC308QE_SDK_TEXT/SSC308QE_CODEBASE/sdk/linux/init/sensor/sensor_init.o
 .data.once     0x0000000000000001        0x1 /home/lixx/ZGCX/S1_Project/SSC308QE_SDK/Iford_IMD00V005.0.1_fastboot/SourceCode/SSC308QE_SDK_TEXT/SSC308QE_CODEBASE/sdk/linux/init/vif/vif_init.o

.data1
 *(.data1)

.bss            0x0000000000000000    0x23954
 *(.bss)
 .bss           0x0000000000000000        0x0 /home/lixx/ZGCX/S1_Project/SSC308QE_SDK/Iford_IMD00V005.0.1_fastboot/SourceCode/SSC308QE_SDK_TEXT/SSC308QE_CODEBASE/sdk/linux/init/module.o
 .bss           0x0000000000000000     0xa840 /home/lixx/ZGCX/S1_Project/SSC308QE_SDK/Iford_IMD00V005.0.1_fastboot/SourceCode/SSC308QE_SDK_TEXT/SSC308QE_CODEBASE/sdk/linux/init/sensor/../../obj/uclibc/9.1.0/sensor.o
                0x0000000000000004                sensor_debug_file
                0x0000000000000104                sensor_debug_func
                0x0000000000000208                g_atSnrBackupParam
                0x00000000000008e4                g_stModuleCtlAttr
                0x00000000000008f4                gp_stSensorModDbgParam
                0x0000000000000918                g_astDrvSensorCtx
                0x0000000000000a3c                g_astI2cHandle
                0x0000000000000d48                g_astSensorIfAPI
                0x000000000000157c                g_stSensorIfWorkPool
                0x0000000000001684                g_astVcmHandle
                0x0000000000001780                g_astVcmI2cHandle
                0x000000000000181c                g_astVcmIfApi
                0x0000000000001838                g_astSensorHandle
                0x000000000000a550                g_stSensorIfThreadWqPool
                0x000000000000a670                g_u32CsiPreClkRate
                0x000000000000a67c                g_u32CsiPreSet
                0x000000000000a680                gRecvSizeCheck
                0x000000000000a6b0                g_csiRptIntCount
                0x000000000000a704                g_csiErrIntCount
                0x000000000000a7b8                gCsiClkkHandler
                0x000000000000a7dc                SensorI2cSpeed
                0x000000000000a7ec                SnrRstPol
                0x000000000000a7f8                SnrPdnPol
                0x000000000000a804                SnrParallelMsbShift
                0x000000000000a810                SnrMclkSupport37125
                0x000000000000a81c                g_ptMipiAtop
                0x000000000000a820                g_ptAna
                0x000000000000a828                g_au8CsiLaneSupportNum
                0x000000000000a82c                g_ptMac
                0x000000000000a834                g_ptDig
                0x000000000000a83c                g_ptChipTop
 .bss           0x000000000000a840        0x4 /home/lixx/ZGCX/S1_Project/SSC308QE_SDK/Iford_IMD00V005.0.1_fastboot/SourceCode/SSC308QE_SDK_TEXT/SSC308QE_CODEBASE/sdk/linux/init/sensor/csi_init.o
 .bss           0x000000000000a844        0x0 /home/lixx/ZGCX/S1_Project/SSC308QE_SDK/Iford_IMD00V005.0.1_fastboot/SourceCode/SSC308QE_SDK_TEXT/SSC308QE_CODEBASE/sdk/linux/init/sensor/sensor_export.o
 .bss           0x000000000000a844        0x4 /home/lixx/ZGCX/S1_Project/SSC308QE_SDK/Iford_IMD00V005.0.1_fastboot/SourceCode/SSC308QE_SDK_TEXT/SSC308QE_CODEBASE/sdk/linux/init/sensor/sensor_init.o
 .bss           0x000000000000a848      0xd20 /home/lixx/ZGCX/S1_Project/SSC308QE_SDK/Iford_IMD00V005.0.1_fastboot/SourceCode/SSC308QE_SDK_TEXT/SSC308QE_CODEBASE/sdk/linux/init/aio/../../obj/uclibc/9.1.0/aio.o
                0x000000000000a848                g_aDmaParam
                0x000000000000aa78                g_aRuntimeData
                0x000000000000b070                g_AudDmaParam
 .bss           0x000000000000b568        0x0 /home/lixx/ZGCX/S1_Project/SSC308QE_SDK/Iford_IMD00V005.0.1_fastboot/SourceCode/SSC308QE_SDK_TEXT/SSC308QE_CODEBASE/sdk/linux/init/aio/aio_init.o
 .bss           0x000000000000b568      0xeb8 /home/lixx/ZGCX/S1_Project/SSC308QE_SDK/Iford_IMD00V005.0.1_fastboot/SourceCode/SSC308QE_SDK_TEXT/SSC308QE_CODEBASE/sdk/linux/init/rgn/../../obj/uclibc/9.1.0/rgn.o
                0x000000000000b56c                rgn_debug_file
                0x000000000000b66c                rgn_debug_func
                0x000000000000b7b4                g_atInitDrvRefCnt
                0x000000000000b804                g_bSupportOsdBlending
                0x000000000000b82c                g_stMhalChipCapOps
                0x000000000000b994                g_hSysDrvHandle
                0x000000000000bdac                g_astRgnGopPlaletteEntry
                0x000000000000c1ac                g_u32DebugLevel
 .bss           0x000000000000c420        0x4 /home/lixx/ZGCX/S1_Project/SSC308QE_SDK/Iford_IMD00V005.0.1_fastboot/SourceCode/SSC308QE_SDK_TEXT/SSC308QE_CODEBASE/sdk/linux/init/rgn/rgn_init.o
 .bss           0x000000000000c424      0x618 /home/lixx/ZGCX/S1_Project/SSC308QE_SDK/Iford_IMD00V005.0.1_fastboot/SourceCode/SSC308QE_SDK_TEXT/SSC308QE_CODEBASE/sdk/linux/init/ive/../../obj/uclibc/9.1.0/ive.o
                0x000000000000c428                ive_debug_file
                0x000000000000c528                ive_debug_func
                0x000000000000c628                dev_data
                0x000000000000c62c                g_pstFileData
                0x000000000000ca34                g_stMiIveModParam
                0x000000000000ca38                g_u32BurstOutstanding
 .bss           0x000000000000ca3c        0x0 /home/lixx/ZGCX/S1_Project/SSC308QE_SDK/Iford_IMD00V005.0.1_fastboot/SourceCode/SSC308QE_SDK_TEXT/SSC308QE_CODEBASE/sdk/linux/init/ive/ive_init.o
 .bss           0x000000000000ca3c      0x2d9 /home/lixx/ZGCX/S1_Project/SSC308QE_SDK/Iford_IMD00V005.0.1_fastboot/SourceCode/SSC308QE_SDK_TEXT/SSC308QE_CODEBASE/sdk/linux/init/ao/../../obj/uclibc/9.1.0/ao.o
                0x000000000000ca44                ao_debug_file
                0x000000000000cb44                ao_debug_func
                0x000000000000cc44                gp_pImplStatus
                0x000000000000cc48                g_aIfInfo
                0x000000000000ccc0                g_aI2sTxConfig
                0x000000000000cd08                gp_stMiAoModRefDbgOpsParam
                0x000000000000cd0c                g_au8I2sTxRefCnt
 .bss           0x000000000000cd15        0x0 /home/lixx/ZGCX/S1_Project/SSC308QE_SDK/Iford_IMD00V005.0.1_fastboot/SourceCode/SSC308QE_SDK_TEXT/SSC308QE_CODEBASE/sdk/linux/init/ao/ao_init.o
 *fill*         0x000000000000cd15        0x3 
 .bss           0x000000000000cd18      0x220 /home/lixx/ZGCX/S1_Project/SSC308QE_SDK/Iford_IMD00V005.0.1_fastboot/SourceCode/SSC308QE_SDK_TEXT/SSC308QE_CODEBASE/sdk/linux/init/shadow/../../obj/uclibc/9.1.0/shadow.o
                0x000000000000cd1c                shadow_debug_file
                0x000000000000ce1c                shadow_debug_func
                0x000000000000cf1c                g_stDevMgr
                0x000000000000cf34                gp_stMiShadowModRefDbgParam
 .bss           0x000000000000cf38        0x0 /home/lixx/ZGCX/S1_Project/SSC308QE_SDK/Iford_IMD00V005.0.1_fastboot/SourceCode/SSC308QE_SDK_TEXT/SSC308QE_CODEBASE/sdk/linux/init/shadow/shadow_init.o
 .bss           0x000000000000cf38     0x8cd4 /home/lixx/ZGCX/S1_Project/SSC308QE_SDK/Iford_IMD00V005.0.1_fastboot/SourceCode/SSC308QE_SDK_TEXT/SSC308QE_CODEBASE/sdk/linux/init/isp/../../obj/uclibc/9.1.0/isp.o
                0x000000000000cf3c                isp_debug_file
                0x000000000000d03c                isp_debug_func
                0x000000000000d140                g_stIspModRes
                0x000000000000d370                g_IspRoot
                0x000000000000d430                gp_stIspModDbgParams
                0x000000000000d438                g_stDrvIspHnd
                0x000000000000d4f8                g_u8GenIspClk
                0x000000000000d4fc                g_stIspClkCfg
                0x000000000000d50c                g_cbInfo
                0x000000000000faf0                g_u32IspHalLogFlag
                0x000000000000faf8                g_u32IspWdrBg1Xnum
                0x000000000000fafc                g_u32IspWdrBg1Ynum
                0x000000000000fb00                g_u32IspWdrBg2Ly2S
                0x000000000000fb04                g_u32IspWdrBg2Ly3S
                0x000000000000fb0c                g_tDscCmdArgs
                0x000000000000fc9c                g_tDscCodec
                0x000000000000fe44                g_u32IspHalRotHblk
                0x000000000000fe48                g_u64FrameClockTotalCosted
                0x000000000000fe50                g_tIspCmdqRegMultiWriteMaskBuffer
                0x0000000000010308                g_stIspIrqTS
                0x0000000000010a08                g_stIspFrameIntervalInfo
                0x0000000000010d88                g_u32IspIrqLineCnt
                0x0000000000010f48                g_stIspInts
                0x000000000001110c                g_u32IspFrameDoneIntCnt
                0x0000000000011124                g_u16IspFrameModeEn
                0x0000000000011126                g_u16IspChMap
                0x0000000000011128                g_uRdmaDoneStatus
                0x000000000001112c                g_u32IspFrameDonePeriod
                0x000000000001113c                g_u32IspIrqLineCntStats
                0x0000000000012d3c                g_pDrvIspHandle
                0x0000000000012d40                g_stChipInfo
                0x0000000000012d60                g_stIspAlgoInputHnd
                0x0000000000012ee0                g_Ispmid_globallock_Inited
                0x00000000000130f0                g_stCommonIspDev
                0x0000000000013258                g_nIspDbgSkipFuncFlag
                0x000000000001326c                g_u32Wdma2IspDevIdMap
                0x000000000001329c                g_stCommonIspSysInfo
                0x0000000000015270                g_s32IspIsrNum
                0x0000000000015578                ispinfo_output
                0x0000000000015a40                fw_ver
                0x0000000000015ac4                iq_ver
                0x0000000000015b48                als_value
                0x0000000000015b4c                ir_led
                0x0000000000015b50                ir_cut
                0x0000000000015b5c                hdr_dbg
                0x0000000000015b60                g_stIspmidFsLock
                0x0000000000015b80                gp_pIoBase
                0x0000000000015b84                g_tBakMloadHandle
 .bss           0x0000000000015c0c       0x10 /home/lixx/ZGCX/S1_Project/SSC308QE_SDK/Iford_IMD00V005.0.1_fastboot/SourceCode/SSC308QE_SDK_TEXT/SSC308QE_CODEBASE/sdk/linux/init/isp/isp_init.o
                0x0000000000015c18                g_u32PreSetClkRate
 *fill*         0x0000000000015c1c        0x4 
 .bss           0x0000000000015c20       0xb0 /home/lixx/ZGCX/S1_Project/SSC308QE_SDK/Iford_IMD00V005.0.1_fastboot/SourceCode/SSC308QE_SDK_TEXT/SSC308QE_CODEBASE/sdk/linux/init/isp/ispmid_init.o
                0x0000000000015c20                g_stCus3aChStatus
                0x0000000000015c80                g_stIspFeDev
 .bss           0x0000000000015cd0        0x0 /home/lixx/ZGCX/S1_Project/SSC308QE_SDK/Iford_IMD00V005.0.1_fastboot/SourceCode/SSC308QE_SDK_TEXT/SSC308QE_CODEBASE/sdk/linux/init/isp/mload_init.o
 .bss           0x0000000000015cd0     0x13c4 /home/lixx/ZGCX/S1_Project/SSC308QE_SDK/Iford_IMD00V005.0.1_fastboot/SourceCode/SSC308QE_SDK_TEXT/SSC308QE_CODEBASE/sdk/linux/init/ipu/../../obj/uclibc/9.1.0/ipu.o
                0x0000000000015cd0                ipu_debug_file
                0x0000000000015dd0                ipu_debug_func
                0x0000000000016428                freqExpe
                0x000000000001642c                perfMonitor
 .bss           0x0000000000017094        0x4 /home/lixx/ZGCX/S1_Project/SSC308QE_SDK/Iford_IMD00V005.0.1_fastboot/SourceCode/SSC308QE_SDK_TEXT/SSC308QE_CODEBASE/sdk/linux/init/ipu/ipu_init.o
 .bss           0x0000000000017098     0x8718 /home/lixx/ZGCX/S1_Project/SSC308QE_SDK/Iford_IMD00V005.0.1_fastboot/SourceCode/SSC308QE_SDK_TEXT/SSC308QE_CODEBASE/sdk/linux/init/sys/../../obj/uclibc/9.1.0/sys.o
                0x0000000000017098                mi_sysApiCallRwsem
                0x000000000001709c                sys_debug_file
                0x000000000001719c                sys_debug_func
                0x00000000000172a0                g_miSysInputtaskinfoCachep
                0x00000000000172a4                g_miSysModuleOutputPriMmaHeapDevListMute
                0x000000000001735c                g_miSysModuleOutputPriMmaHeapDevList
                0x00000000000174ec                g_miSysDevPassIdr
                0x00000000000174f0                g_miSysBufHandleIdrMutex
                0x00000000000174f4                g_miSysBufHandleIdr
                0x00000000000174f8                g_miSysUserGetbufInfoListMute
                0x00000000000174fc                g_miSysUserGetbufInfoList
                0x0000000000017504                g_miSysBufrefCachep
                0x0000000000017508                g_miSysBufAllocationCachep
                0x000000000001750c                g_miSysOutputtaskinfoCachep
                0x0000000000017524                g_sysInitCount
                0x0000000000017528                g_miSysModulePriMmaHeapDevListMute
                0x00000000000175e0                g_miSysDevPassIdrRWLock
                0x00000000000175e4                g_miSysModulePriMmaHeapDevList
                0x0000000000017754                g_u16PageMode
                0x000000000001775c                g_mmu_entry_real_num
                0x0000000000017760                gp_miSysPstChunkMgr
                0x0000000000017764                g_bEnableMmuCbBugOn
                0x0000000000017768                g_miSysMmaHeapPhyHashMutexlock
                0x000000000001776c                g_miSysMmaAllocationCachep
                0x0000000000017b70                g_mmuMmaEnable
                0x0000000000017b74                gp_kernelProtectClientId
                0x0000000000017b78                g_miSysChunkCachep
                0x0000000000017bb8                gp_miCmdqWorkQueue
                0x0000000000017bbc                g_miSysRingpoolRecordCachep
                0x0000000000017bcc                g_pCMPI_proc
                0x0000000000017bd4                g_pMma_proc
                0x0000000000017be0                g_pSigmastar_proc
                0x0000000000017be4                gp_hSysDrv
                0x0000000000017be8                g_pLog_proc
                0x0000000000017bec                g_miHwTimerSpinlock
                0x0000000000017bf4                g_miHwTimerTsem
                0x0000000000017bf8                g_miSysGlobalSramInfo
                0x0000000000017bfc                g_miSysUserMapHashSemphore
                0x0000000000018000                gp_miSysPstDirectBufAllocator
                0x0000000000018004                g_miSysDirectBufInfoListMute
                0x0000000000018008                g_miSysDirectBufInfoList
                0x0000000000018014                g_bStrSuspendPreparing
                0x0000000000018018                g_cmdqBufferInitDone
                0x00000000000180a0                g_tCmdqDyTrigEvtMutex
                0x00000000000186ec                g_initMemBufMutexDone
                0x00000000000186f0                g_initMemBufMutex
                0x0000000000018740                g_cmdqMemScriptPriv
                0x000000000001af40                g_cmdqMemScriptCtx
                0x000000000001e740                g_tCmdqDbgParam
                0x000000000001f688                g_stCmdqDynamicTrigEvt
                0x000000000001f788                g_miSysSuspendedList
                0x000000000001f794                g_miSysPmNotifyMutex
                0x000000000001f7a4                g_miSysCustAllocationCachep
                0x000000000001f7a8                g_miSysMetaAllocationCachep
 .bss           0x000000000001f7b0        0x0 /home/lixx/ZGCX/S1_Project/SSC308QE_SDK/Iford_IMD00V005.0.1_fastboot/SourceCode/SSC308QE_SDK_TEXT/SSC308QE_CODEBASE/sdk/linux/init/sys/cmdq_export.o
 .bss           0x000000000001f7b0        0x0 /home/lixx/ZGCX/S1_Project/SSC308QE_SDK/Iford_IMD00V005.0.1_fastboot/SourceCode/SSC308QE_SDK_TEXT/SSC308QE_CODEBASE/sdk/linux/init/sys/cmdq_init.o
 .bss           0x000000000001f7b0        0x4 /home/lixx/ZGCX/S1_Project/SSC308QE_SDK/Iford_IMD00V005.0.1_fastboot/SourceCode/SSC308QE_SDK_TEXT/SSC308QE_CODEBASE/sdk/linux/init/sys/sys_init.o
 *fill*         0x000000000001f7b4        0x4 
 .bss           0x000000000001f7b8     0x2241 /home/lixx/ZGCX/S1_Project/SSC308QE_SDK/Iford_IMD00V005.0.1_fastboot/SourceCode/SSC308QE_SDK_TEXT/SSC308QE_CODEBASE/sdk/linux/init/disp/../../obj/uclibc/9.1.0/disp.o
                0x000000000001f7bc                disp_debug_file
                0x000000000001f8bc                disp_debug_func
                0x000000000001f9c0                g_stDispModRes
                0x000000000001ff30                gp_pstDispModRefOpsParam
                0x000000000001ff38                g_stDispHalAlloc
                0x0000000000021350                g_stModuleParam
                0x0000000000021428                g_stDispDevTimingCfg
                0x0000000000021430                g_u32DispDbgLevel
                0x0000000000021434                g_stDispCtxContainTbl
                0x000000000002145c                g_bDispCtxInit
                0x0000000000021460                g_pastCurDispDevCtx
                0x0000000000021464                g_pastCurVidLayerCtx
                0x0000000000021468                g_pastCurInputPortCtx
                0x000000000002146c                g_pastCurDmaCtx
                0x0000000000021470                g_stDispIrqHist
                0x00000000000215e8                g_stDispIrqCfg
                0x00000000000215f4                g_u32DispUtilityCmdqInitFlag
                0x00000000000215f8                g_tColorCfg
                0x0000000000021674                g_stDispUtilityCmdqCtx
                0x0000000000021698                g_stDispClkGpCtrlCfg
                0x00000000000216a0                g_pDispCbTbl
                0x00000000000219dc                g_stInterCfg
                0x00000000000219f8                g_bDispHwIfInit
 *fill*         0x00000000000219f9        0x3 
 .bss           0x00000000000219fc        0x8 /home/lixx/ZGCX/S1_Project/SSC308QE_SDK/Iford_IMD00V005.0.1_fastboot/SourceCode/SSC308QE_SDK_TEXT/SSC308QE_CODEBASE/sdk/linux/init/disp/disp_init.o
 *fill*         0x0000000000021a04        0x4 
 .bss           0x0000000000021a08      0xad2 /home/lixx/ZGCX/S1_Project/SSC308QE_SDK/Iford_IMD00V005.0.1_fastboot/SourceCode/SSC308QE_SDK_TEXT/SSC308QE_CODEBASE/sdk/linux/init/vif/../../obj/uclibc/9.1.0/vif.o
                0x0000000000021a0c                vif_debug_file
                0x0000000000021b0c                vif_debug_func
                0x0000000000021c10                gp_stVifModRes
                0x0000000000021c14                gp_stVifModDbgParams
                0x0000000000021c18                g_pVifInternalMetaDataPtr
                0x0000000000021c28                g_pVifExternalConfig
                0x0000000000021ca8                g_stVifWorkPool
                0x0000000000021de0                g_stVifThreadWqPool
                0x0000000000021f18                g_stCallBackList
                0x0000000000022038                g_link_handle
                0x000000000002203c                mod
                0x0000000000022040                g_VifEventHandle
                0x0000000000022044                g_ispscl_cbs
                0x00000000000224a0                g_u32ClkPreRate
                0x00000000000224a4                g_VifHandle
                0x00000000000224a8                g_Au32VifReg
                0x00000000000224b0                g_riuRegBase
                0x00000000000224b4                g_VifWdmaHandle
                0x00000000000224d0                irq_name
 .bss           0x00000000000224da        0x0 /home/lixx/ZGCX/S1_Project/SSC308QE_SDK/Iford_IMD00V005.0.1_fastboot/SourceCode/SSC308QE_SDK_TEXT/SSC308QE_CODEBASE/sdk/linux/init/vif/vif_export.o
 *fill*         0x00000000000224da        0x2 
 .bss           0x00000000000224dc       0x30 /home/lixx/ZGCX/S1_Project/SSC308QE_SDK/Iford_IMD00V005.0.1_fastboot/SourceCode/SSC308QE_SDK_TEXT/SSC308QE_CODEBASE/sdk/linux/init/vif/vif_init.o
 .bss           0x000000000002250c      0x124 /home/lixx/ZGCX/S1_Project/SSC308QE_SDK/Iford_IMD00V005.0.1_fastboot/SourceCode/SSC308QE_SDK_TEXT/SSC308QE_CODEBASE/sdk/linux/init/common/../../obj/uclibc/9.1.0/common.o
                0x0000000000022510                g_miTaskInExitingEvent
                0x0000000000022514                g_bTaskInExiting
                0x000000000002262c                g_ModParam_cJSON
 .bss           0x0000000000022630        0x0 /home/lixx/ZGCX/S1_Project/SSC308QE_SDK/Iford_IMD00V005.0.1_fastboot/SourceCode/SSC308QE_SDK_TEXT/SSC308QE_CODEBASE/sdk/linux/init/common/common_init.o
 .bss           0x0000000000022630      0x5e5 /home/lixx/ZGCX/S1_Project/SSC308QE_SDK/Iford_IMD00V005.0.1_fastboot/SourceCode/SSC308QE_SDK_TEXT/SSC308QE_CODEBASE/sdk/linux/init/ai/../../obj/uclibc/9.1.0/ai.o
                0x0000000000022638                ai_debug_file
                0x0000000000022738                ai_debug_func
                0x0000000000022b78                gp_stMiAiModRefDbgOpsParam
 .bss           0x0000000000022c15        0x0 /home/lixx/ZGCX/S1_Project/SSC308QE_SDK/Iford_IMD00V005.0.1_fastboot/SourceCode/SSC308QE_SDK_TEXT/SSC308QE_CODEBASE/sdk/linux/init/ai/ai_init.o
 *fill*         0x0000000000022c15        0x3 
 .bss           0x0000000000022c18      0x380 /home/lixx/ZGCX/S1_Project/SSC308QE_SDK/Iford_IMD00V005.0.1_fastboot/SourceCode/SSC308QE_SDK_TEXT/SSC308QE_CODEBASE/sdk/linux/init/venc/../../obj/uclibc/9.1.0/venc.o
                0x0000000000022c1c                venc_debug_file
                0x0000000000022d1c                venc_debug_func
                0x0000000000022e28                g_stModRes
                0x0000000000022e70                g_stVencUserCb
                0x0000000000022e80                g_u64Remainder
                0x0000000000022e88                g_s32VenMemProbeAllcCnt
                0x0000000000022e8c                g_s32VenMemAllcReleaseCnt
                0x0000000000022e90                g_u32CustAvcSps
                0x0000000000022e94                g_u16FullRangRoiQpMap
                0x0000000000022eec                stDrvVencRamlog
                0x0000000000022f20                g_u32RcLogCtx
                0x0000000000022f24                g_u32RcLogLevel
                0x0000000000022f28                rc_log_ctrl
                0x0000000000022f70                g_s32HwFrameCycleEnable
 .bss           0x0000000000022f98        0x0 /home/lixx/ZGCX/S1_Project/SSC308QE_SDK/Iford_IMD00V005.0.1_fastboot/SourceCode/SSC308QE_SDK_TEXT/SSC308QE_CODEBASE/sdk/linux/init/venc/venc_init.o
 .bss           0x0000000000022f98      0x9bc /home/lixx/ZGCX/S1_Project/SSC308QE_SDK/Iford_IMD00V005.0.1_fastboot/SourceCode/SSC308QE_SDK_TEXT/SSC308QE_CODEBASE/sdk/linux/init/scl/../../obj/uclibc/9.1.0/scl.o
                0x0000000000022f98                mi_sclApiCallRwsem
                0x0000000000022f9c                scl_debug_file
                0x000000000002309c                scl_debug_func
                0x00000000000231a0                g_stSclModRes
                0x0000000000023950                gp_stSclModDbgParams
 .bss           0x0000000000023954        0x0 /home/lixx/ZGCX/S1_Project/SSC308QE_SDK/Iford_IMD00V005.0.1_fastboot/SourceCode/SSC308QE_SDK_TEXT/SSC308QE_CODEBASE/sdk/linux/init/scl/scl_export.o
 .bss           0x0000000000023954        0x0 /home/lixx/ZGCX/S1_Project/SSC308QE_SDK/Iford_IMD00V005.0.1_fastboot/SourceCode/SSC308QE_SDK_TEXT/SSC308QE_CODEBASE/sdk/linux/init/scl/scl_init.o

.stab
 *(.stab)

.stabstr
 *(.stabstr)

.stab.excl
 *(.stab.excl)

.stab.exclstr
 *(.stab.exclstr)

.stab.index
 *(.stab.index)

.stab.indexstr
 *(.stab.indexstr)

.comment        0x0000000000000000     0x2530
 *(.comment)
 .comment       0x0000000000000000       0x22 /home/lixx/ZGCX/S1_Project/SSC308QE_SDK/Iford_IMD00V005.0.1_fastboot/SourceCode/SSC308QE_SDK_TEXT/SSC308QE_CODEBASE/sdk/linux/init/module.o
 .comment       0x0000000000000022      0x352 /home/lixx/ZGCX/S1_Project/SSC308QE_SDK/Iford_IMD00V005.0.1_fastboot/SourceCode/SSC308QE_SDK_TEXT/SSC308QE_CODEBASE/sdk/linux/init/sensor/../../obj/uclibc/9.1.0/sensor.o
 .comment       0x0000000000000374       0x22 /home/lixx/ZGCX/S1_Project/SSC308QE_SDK/Iford_IMD00V005.0.1_fastboot/SourceCode/SSC308QE_SDK_TEXT/SSC308QE_CODEBASE/sdk/linux/init/sensor/csi_init.o
 .comment       0x0000000000000396       0x22 /home/lixx/ZGCX/S1_Project/SSC308QE_SDK/Iford_IMD00V005.0.1_fastboot/SourceCode/SSC308QE_SDK_TEXT/SSC308QE_CODEBASE/sdk/linux/init/sensor/sensor_export.o
 .comment       0x00000000000003b8       0x22 /home/lixx/ZGCX/S1_Project/SSC308QE_SDK/Iford_IMD00V005.0.1_fastboot/SourceCode/SSC308QE_SDK_TEXT/SSC308QE_CODEBASE/sdk/linux/init/sensor/sensor_init.o
 .comment       0x00000000000003da      0x132 /home/lixx/ZGCX/S1_Project/SSC308QE_SDK/Iford_IMD00V005.0.1_fastboot/SourceCode/SSC308QE_SDK_TEXT/SSC308QE_CODEBASE/sdk/linux/init/aio/../../obj/uclibc/9.1.0/aio.o
 .comment       0x000000000000050c       0x22 /home/lixx/ZGCX/S1_Project/SSC308QE_SDK/Iford_IMD00V005.0.1_fastboot/SourceCode/SSC308QE_SDK_TEXT/SSC308QE_CODEBASE/sdk/linux/init/aio/aio_init.o
 .comment       0x000000000000052e      0x264 /home/lixx/ZGCX/S1_Project/SSC308QE_SDK/Iford_IMD00V005.0.1_fastboot/SourceCode/SSC308QE_SDK_TEXT/SSC308QE_CODEBASE/sdk/linux/init/rgn/../../obj/uclibc/9.1.0/rgn.o
 .comment       0x0000000000000792       0x22 /home/lixx/ZGCX/S1_Project/SSC308QE_SDK/Iford_IMD00V005.0.1_fastboot/SourceCode/SSC308QE_SDK_TEXT/SSC308QE_CODEBASE/sdk/linux/init/rgn/rgn_init.o
 .comment       0x00000000000007b4      0x154 /home/lixx/ZGCX/S1_Project/SSC308QE_SDK/Iford_IMD00V005.0.1_fastboot/SourceCode/SSC308QE_SDK_TEXT/SSC308QE_CODEBASE/sdk/linux/init/ive/../../obj/uclibc/9.1.0/ive.o
 .comment       0x0000000000000908       0x22 /home/lixx/ZGCX/S1_Project/SSC308QE_SDK/Iford_IMD00V005.0.1_fastboot/SourceCode/SSC308QE_SDK_TEXT/SSC308QE_CODEBASE/sdk/linux/init/ive/ive_init.o
 .comment       0x000000000000092a       0x66 /home/lixx/ZGCX/S1_Project/SSC308QE_SDK/Iford_IMD00V005.0.1_fastboot/SourceCode/SSC308QE_SDK_TEXT/SSC308QE_CODEBASE/sdk/linux/init/ao/../../obj/uclibc/9.1.0/ao.o
 .comment       0x0000000000000990       0x22 /home/lixx/ZGCX/S1_Project/SSC308QE_SDK/Iford_IMD00V005.0.1_fastboot/SourceCode/SSC308QE_SDK_TEXT/SSC308QE_CODEBASE/sdk/linux/init/ao/ao_init.o
 .comment       0x00000000000009b2       0x44 /home/lixx/ZGCX/S1_Project/SSC308QE_SDK/Iford_IMD00V005.0.1_fastboot/SourceCode/SSC308QE_SDK_TEXT/SSC308QE_CODEBASE/sdk/linux/init/shadow/../../obj/uclibc/9.1.0/shadow.o
 .comment       0x00000000000009f6       0x22 /home/lixx/ZGCX/S1_Project/SSC308QE_SDK/Iford_IMD00V005.0.1_fastboot/SourceCode/SSC308QE_SDK_TEXT/SSC308QE_CODEBASE/sdk/linux/init/shadow/shadow_init.o
 .comment       0x0000000000000a18      0x572 /home/lixx/ZGCX/S1_Project/SSC308QE_SDK/Iford_IMD00V005.0.1_fastboot/SourceCode/SSC308QE_SDK_TEXT/SSC308QE_CODEBASE/sdk/linux/init/isp/../../obj/uclibc/9.1.0/isp.o
 .comment       0x0000000000000f8a       0x22 /home/lixx/ZGCX/S1_Project/SSC308QE_SDK/Iford_IMD00V005.0.1_fastboot/SourceCode/SSC308QE_SDK_TEXT/SSC308QE_CODEBASE/sdk/linux/init/isp/isp_init.o
 .comment       0x0000000000000fac       0x22 /home/lixx/ZGCX/S1_Project/SSC308QE_SDK/Iford_IMD00V005.0.1_fastboot/SourceCode/SSC308QE_SDK_TEXT/SSC308QE_CODEBASE/sdk/linux/init/isp/ispmid_init.o
 .comment       0x0000000000000fce       0x22 /home/lixx/ZGCX/S1_Project/SSC308QE_SDK/Iford_IMD00V005.0.1_fastboot/SourceCode/SSC308QE_SDK_TEXT/SSC308QE_CODEBASE/sdk/linux/init/isp/mload_init.o
 .comment       0x0000000000000ff0      0x286 /home/lixx/ZGCX/S1_Project/SSC308QE_SDK/Iford_IMD00V005.0.1_fastboot/SourceCode/SSC308QE_SDK_TEXT/SSC308QE_CODEBASE/sdk/linux/init/ipu/../../obj/uclibc/9.1.0/ipu.o
 .comment       0x0000000000001276       0x22 /home/lixx/ZGCX/S1_Project/SSC308QE_SDK/Iford_IMD00V005.0.1_fastboot/SourceCode/SSC308QE_SDK_TEXT/SSC308QE_CODEBASE/sdk/linux/init/ipu/ipu_init.o
 .comment       0x0000000000001298      0x41e /home/lixx/ZGCX/S1_Project/SSC308QE_SDK/Iford_IMD00V005.0.1_fastboot/SourceCode/SSC308QE_SDK_TEXT/SSC308QE_CODEBASE/sdk/linux/init/sys/../../obj/uclibc/9.1.0/sys.o
 .comment       0x00000000000016b6       0x22 /home/lixx/ZGCX/S1_Project/SSC308QE_SDK/Iford_IMD00V005.0.1_fastboot/SourceCode/SSC308QE_SDK_TEXT/SSC308QE_CODEBASE/sdk/linux/init/sys/cmdq_export.o
 .comment       0x00000000000016d8       0x22 /home/lixx/ZGCX/S1_Project/SSC308QE_SDK/Iford_IMD00V005.0.1_fastboot/SourceCode/SSC308QE_SDK_TEXT/SSC308QE_CODEBASE/sdk/linux/init/sys/cmdq_init.o
 .comment       0x00000000000016fa       0x22 /home/lixx/ZGCX/S1_Project/SSC308QE_SDK/Iford_IMD00V005.0.1_fastboot/SourceCode/SSC308QE_SDK_TEXT/SSC308QE_CODEBASE/sdk/linux/init/sys/sys_init.o
 .comment       0x000000000000171c      0x1dc /home/lixx/ZGCX/S1_Project/SSC308QE_SDK/Iford_IMD00V005.0.1_fastboot/SourceCode/SSC308QE_SDK_TEXT/SSC308QE_CODEBASE/sdk/linux/init/disp/../../obj/uclibc/9.1.0/disp.o
 .comment       0x00000000000018f8       0x22 /home/lixx/ZGCX/S1_Project/SSC308QE_SDK/Iford_IMD00V005.0.1_fastboot/SourceCode/SSC308QE_SDK_TEXT/SSC308QE_CODEBASE/sdk/linux/init/disp/disp_init.o
 .comment       0x000000000000191a      0x242 /home/lixx/ZGCX/S1_Project/SSC308QE_SDK/Iford_IMD00V005.0.1_fastboot/SourceCode/SSC308QE_SDK_TEXT/SSC308QE_CODEBASE/sdk/linux/init/vif/../../obj/uclibc/9.1.0/vif.o
 .comment       0x0000000000001b5c       0x22 /home/lixx/ZGCX/S1_Project/SSC308QE_SDK/Iford_IMD00V005.0.1_fastboot/SourceCode/SSC308QE_SDK_TEXT/SSC308QE_CODEBASE/sdk/linux/init/vif/vif_export.o
 .comment       0x0000000000001b7e       0x22 /home/lixx/ZGCX/S1_Project/SSC308QE_SDK/Iford_IMD00V005.0.1_fastboot/SourceCode/SSC308QE_SDK_TEXT/SSC308QE_CODEBASE/sdk/linux/init/vif/vif_init.o
 .comment       0x0000000000001ba0       0xcc /home/lixx/ZGCX/S1_Project/SSC308QE_SDK/Iford_IMD00V005.0.1_fastboot/SourceCode/SSC308QE_SDK_TEXT/SSC308QE_CODEBASE/sdk/linux/init/common/../../obj/uclibc/9.1.0/common.o
 .comment       0x0000000000001c6c       0x22 /home/lixx/ZGCX/S1_Project/SSC308QE_SDK/Iford_IMD00V005.0.1_fastboot/SourceCode/SSC308QE_SDK_TEXT/SSC308QE_CODEBASE/sdk/linux/init/common/common_init.o
 .comment       0x0000000000001c8e       0x66 /home/lixx/ZGCX/S1_Project/SSC308QE_SDK/Iford_IMD00V005.0.1_fastboot/SourceCode/SSC308QE_SDK_TEXT/SSC308QE_CODEBASE/sdk/linux/init/ai/../../obj/uclibc/9.1.0/ai.o
 .comment       0x0000000000001cf4       0x22 /home/lixx/ZGCX/S1_Project/SSC308QE_SDK/Iford_IMD00V005.0.1_fastboot/SourceCode/SSC308QE_SDK_TEXT/SSC308QE_CODEBASE/sdk/linux/init/ai/ai_init.o
 .comment       0x0000000000001d16      0x6c6 /home/lixx/ZGCX/S1_Project/SSC308QE_SDK/Iford_IMD00V005.0.1_fastboot/SourceCode/SSC308QE_SDK_TEXT/SSC308QE_CODEBASE/sdk/linux/init/venc/../../obj/uclibc/9.1.0/venc.o
 .comment       0x00000000000023dc       0x22 /home/lixx/ZGCX/S1_Project/SSC308QE_SDK/Iford_IMD00V005.0.1_fastboot/SourceCode/SSC308QE_SDK_TEXT/SSC308QE_CODEBASE/sdk/linux/init/venc/venc_init.o
 .comment       0x00000000000023fe       0xee /home/lixx/ZGCX/S1_Project/SSC308QE_SDK/Iford_IMD00V005.0.1_fastboot/SourceCode/SSC308QE_SDK_TEXT/SSC308QE_CODEBASE/sdk/linux/init/scl/../../obj/uclibc/9.1.0/scl.o
 .comment       0x00000000000024ec       0x22 /home/lixx/ZGCX/S1_Project/SSC308QE_SDK/Iford_IMD00V005.0.1_fastboot/SourceCode/SSC308QE_SDK_TEXT/SSC308QE_CODEBASE/sdk/linux/init/scl/scl_export.o
 .comment       0x000000000000250e       0x22 /home/lixx/ZGCX/S1_Project/SSC308QE_SDK/Iford_IMD00V005.0.1_fastboot/SourceCode/SSC308QE_SDK_TEXT/SSC308QE_CODEBASE/sdk/linux/init/scl/scl_init.o

.note.GNU-stack
                0x0000000000000000        0x0
 .note.GNU-stack
                0x0000000000000000        0x0 /home/lixx/ZGCX/S1_Project/SSC308QE_SDK/Iford_IMD00V005.0.1_fastboot/SourceCode/SSC308QE_SDK_TEXT/SSC308QE_CODEBASE/sdk/linux/init/module.o
 .note.GNU-stack
                0x0000000000000000        0x0 /home/lixx/ZGCX/S1_Project/SSC308QE_SDK/Iford_IMD00V005.0.1_fastboot/SourceCode/SSC308QE_SDK_TEXT/SSC308QE_CODEBASE/sdk/linux/init/sensor/../../obj/uclibc/9.1.0/sensor.o
 .note.GNU-stack
                0x0000000000000000        0x0 /home/lixx/ZGCX/S1_Project/SSC308QE_SDK/Iford_IMD00V005.0.1_fastboot/SourceCode/SSC308QE_SDK_TEXT/SSC308QE_CODEBASE/sdk/linux/init/sensor/csi_init.o
 .note.GNU-stack
                0x0000000000000000        0x0 /home/lixx/ZGCX/S1_Project/SSC308QE_SDK/Iford_IMD00V005.0.1_fastboot/SourceCode/SSC308QE_SDK_TEXT/SSC308QE_CODEBASE/sdk/linux/init/sensor/sensor_export.o
 .note.GNU-stack
                0x0000000000000000        0x0 /home/lixx/ZGCX/S1_Project/SSC308QE_SDK/Iford_IMD00V005.0.1_fastboot/SourceCode/SSC308QE_SDK_TEXT/SSC308QE_CODEBASE/sdk/linux/init/sensor/sensor_init.o
 .note.GNU-stack
                0x0000000000000000        0x0 /home/lixx/ZGCX/S1_Project/SSC308QE_SDK/Iford_IMD00V005.0.1_fastboot/SourceCode/SSC308QE_SDK_TEXT/SSC308QE_CODEBASE/sdk/linux/init/aio/../../obj/uclibc/9.1.0/aio.o
 .note.GNU-stack
                0x0000000000000000        0x0 /home/lixx/ZGCX/S1_Project/SSC308QE_SDK/Iford_IMD00V005.0.1_fastboot/SourceCode/SSC308QE_SDK_TEXT/SSC308QE_CODEBASE/sdk/linux/init/aio/aio_init.o
 .note.GNU-stack
                0x0000000000000000        0x0 /home/lixx/ZGCX/S1_Project/SSC308QE_SDK/Iford_IMD00V005.0.1_fastboot/SourceCode/SSC308QE_SDK_TEXT/SSC308QE_CODEBASE/sdk/linux/init/rgn/../../obj/uclibc/9.1.0/rgn.o
 .note.GNU-stack
                0x0000000000000000        0x0 /home/lixx/ZGCX/S1_Project/SSC308QE_SDK/Iford_IMD00V005.0.1_fastboot/SourceCode/SSC308QE_SDK_TEXT/SSC308QE_CODEBASE/sdk/linux/init/rgn/rgn_init.o
 .note.GNU-stack
                0x0000000000000000        0x0 /home/lixx/ZGCX/S1_Project/SSC308QE_SDK/Iford_IMD00V005.0.1_fastboot/SourceCode/SSC308QE_SDK_TEXT/SSC308QE_CODEBASE/sdk/linux/init/ive/../../obj/uclibc/9.1.0/ive.o
 .note.GNU-stack
                0x0000000000000000        0x0 /home/lixx/ZGCX/S1_Project/SSC308QE_SDK/Iford_IMD00V005.0.1_fastboot/SourceCode/SSC308QE_SDK_TEXT/SSC308QE_CODEBASE/sdk/linux/init/ive/ive_init.o
 .note.GNU-stack
                0x0000000000000000        0x0 /home/lixx/ZGCX/S1_Project/SSC308QE_SDK/Iford_IMD00V005.0.1_fastboot/SourceCode/SSC308QE_SDK_TEXT/SSC308QE_CODEBASE/sdk/linux/init/ao/../../obj/uclibc/9.1.0/ao.o
 .note.GNU-stack
                0x0000000000000000        0x0 /home/lixx/ZGCX/S1_Project/SSC308QE_SDK/Iford_IMD00V005.0.1_fastboot/SourceCode/SSC308QE_SDK_TEXT/SSC308QE_CODEBASE/sdk/linux/init/ao/ao_init.o
 .note.GNU-stack
                0x0000000000000000        0x0 /home/lixx/ZGCX/S1_Project/SSC308QE_SDK/Iford_IMD00V005.0.1_fastboot/SourceCode/SSC308QE_SDK_TEXT/SSC308QE_CODEBASE/sdk/linux/init/shadow/../../obj/uclibc/9.1.0/shadow.o
 .note.GNU-stack
                0x0000000000000000        0x0 /home/lixx/ZGCX/S1_Project/SSC308QE_SDK/Iford_IMD00V005.0.1_fastboot/SourceCode/SSC308QE_SDK_TEXT/SSC308QE_CODEBASE/sdk/linux/init/shadow/shadow_init.o
 .note.GNU-stack
                0x0000000000000000        0x0 /home/lixx/ZGCX/S1_Project/SSC308QE_SDK/Iford_IMD00V005.0.1_fastboot/SourceCode/SSC308QE_SDK_TEXT/SSC308QE_CODEBASE/sdk/linux/init/isp/../../obj/uclibc/9.1.0/isp.o
 .note.GNU-stack
                0x0000000000000000        0x0 /home/lixx/ZGCX/S1_Project/SSC308QE_SDK/Iford_IMD00V005.0.1_fastboot/SourceCode/SSC308QE_SDK_TEXT/SSC308QE_CODEBASE/sdk/linux/init/isp/isp_init.o
 .note.GNU-stack
                0x0000000000000000        0x0 /home/lixx/ZGCX/S1_Project/SSC308QE_SDK/Iford_IMD00V005.0.1_fastboot/SourceCode/SSC308QE_SDK_TEXT/SSC308QE_CODEBASE/sdk/linux/init/isp/ispmid_init.o
 .note.GNU-stack
                0x0000000000000000        0x0 /home/lixx/ZGCX/S1_Project/SSC308QE_SDK/Iford_IMD00V005.0.1_fastboot/SourceCode/SSC308QE_SDK_TEXT/SSC308QE_CODEBASE/sdk/linux/init/isp/mload_init.o
 .note.GNU-stack
                0x0000000000000000        0x0 /home/lixx/ZGCX/S1_Project/SSC308QE_SDK/Iford_IMD00V005.0.1_fastboot/SourceCode/SSC308QE_SDK_TEXT/SSC308QE_CODEBASE/sdk/linux/init/ipu/../../obj/uclibc/9.1.0/ipu.o
 .note.GNU-stack
                0x0000000000000000        0x0 /home/lixx/ZGCX/S1_Project/SSC308QE_SDK/Iford_IMD00V005.0.1_fastboot/SourceCode/SSC308QE_SDK_TEXT/SSC308QE_CODEBASE/sdk/linux/init/ipu/ipu_init.o
 .note.GNU-stack
                0x0000000000000000        0x0 /home/lixx/ZGCX/S1_Project/SSC308QE_SDK/Iford_IMD00V005.0.1_fastboot/SourceCode/SSC308QE_SDK_TEXT/SSC308QE_CODEBASE/sdk/linux/init/sys/../../obj/uclibc/9.1.0/sys.o
 .note.GNU-stack
                0x0000000000000000        0x0 /home/lixx/ZGCX/S1_Project/SSC308QE_SDK/Iford_IMD00V005.0.1_fastboot/SourceCode/SSC308QE_SDK_TEXT/SSC308QE_CODEBASE/sdk/linux/init/sys/cmdq_export.o
 .note.GNU-stack
                0x0000000000000000        0x0 /home/lixx/ZGCX/S1_Project/SSC308QE_SDK/Iford_IMD00V005.0.1_fastboot/SourceCode/SSC308QE_SDK_TEXT/SSC308QE_CODEBASE/sdk/linux/init/sys/cmdq_init.o
 .note.GNU-stack
                0x0000000000000000        0x0 /home/lixx/ZGCX/S1_Project/SSC308QE_SDK/Iford_IMD00V005.0.1_fastboot/SourceCode/SSC308QE_SDK_TEXT/SSC308QE_CODEBASE/sdk/linux/init/sys/sys_init.o
 .note.GNU-stack
                0x0000000000000000        0x0 /home/lixx/ZGCX/S1_Project/SSC308QE_SDK/Iford_IMD00V005.0.1_fastboot/SourceCode/SSC308QE_SDK_TEXT/SSC308QE_CODEBASE/sdk/linux/init/disp/../../obj/uclibc/9.1.0/disp.o
 .note.GNU-stack
                0x0000000000000000        0x0 /home/lixx/ZGCX/S1_Project/SSC308QE_SDK/Iford_IMD00V005.0.1_fastboot/SourceCode/SSC308QE_SDK_TEXT/SSC308QE_CODEBASE/sdk/linux/init/disp/disp_init.o
 .note.GNU-stack
                0x0000000000000000        0x0 /home/lixx/ZGCX/S1_Project/SSC308QE_SDK/Iford_IMD00V005.0.1_fastboot/SourceCode/SSC308QE_SDK_TEXT/SSC308QE_CODEBASE/sdk/linux/init/vif/../../obj/uclibc/9.1.0/vif.o
 .note.GNU-stack
                0x0000000000000000        0x0 /home/lixx/ZGCX/S1_Project/SSC308QE_SDK/Iford_IMD00V005.0.1_fastboot/SourceCode/SSC308QE_SDK_TEXT/SSC308QE_CODEBASE/sdk/linux/init/vif/vif_export.o
 .note.GNU-stack
                0x0000000000000000        0x0 /home/lixx/ZGCX/S1_Project/SSC308QE_SDK/Iford_IMD00V005.0.1_fastboot/SourceCode/SSC308QE_SDK_TEXT/SSC308QE_CODEBASE/sdk/linux/init/vif/vif_init.o
 .note.GNU-stack
                0x0000000000000000        0x0 /home/lixx/ZGCX/S1_Project/SSC308QE_SDK/Iford_IMD00V005.0.1_fastboot/SourceCode/SSC308QE_SDK_TEXT/SSC308QE_CODEBASE/sdk/linux/init/common/../../obj/uclibc/9.1.0/common.o
 .note.GNU-stack
                0x0000000000000000        0x0 /home/lixx/ZGCX/S1_Project/SSC308QE_SDK/Iford_IMD00V005.0.1_fastboot/SourceCode/SSC308QE_SDK_TEXT/SSC308QE_CODEBASE/sdk/linux/init/common/common_init.o
 .note.GNU-stack
                0x0000000000000000        0x0 /home/lixx/ZGCX/S1_Project/SSC308QE_SDK/Iford_IMD00V005.0.1_fastboot/SourceCode/SSC308QE_SDK_TEXT/SSC308QE_CODEBASE/sdk/linux/init/ai/../../obj/uclibc/9.1.0/ai.o
 .note.GNU-stack
                0x0000000000000000        0x0 /home/lixx/ZGCX/S1_Project/SSC308QE_SDK/Iford_IMD00V005.0.1_fastboot/SourceCode/SSC308QE_SDK_TEXT/SSC308QE_CODEBASE/sdk/linux/init/ai/ai_init.o
 .note.GNU-stack
                0x0000000000000000        0x0 /home/lixx/ZGCX/S1_Project/SSC308QE_SDK/Iford_IMD00V005.0.1_fastboot/SourceCode/SSC308QE_SDK_TEXT/SSC308QE_CODEBASE/sdk/linux/init/venc/../../obj/uclibc/9.1.0/venc.o
 .note.GNU-stack
                0x0000000000000000        0x0 /home/lixx/ZGCX/S1_Project/SSC308QE_SDK/Iford_IMD00V005.0.1_fastboot/SourceCode/SSC308QE_SDK_TEXT/SSC308QE_CODEBASE/sdk/linux/init/venc/venc_init.o
 .note.GNU-stack
                0x0000000000000000        0x0 /home/lixx/ZGCX/S1_Project/SSC308QE_SDK/Iford_IMD00V005.0.1_fastboot/SourceCode/SSC308QE_SDK_TEXT/SSC308QE_CODEBASE/sdk/linux/init/scl/../../obj/uclibc/9.1.0/scl.o
 .note.GNU-stack
                0x0000000000000000        0x0 /home/lixx/ZGCX/S1_Project/SSC308QE_SDK/Iford_IMD00V005.0.1_fastboot/SourceCode/SSC308QE_SDK_TEXT/SSC308QE_CODEBASE/sdk/linux/init/scl/scl_export.o
 .note.GNU-stack
                0x0000000000000000        0x0 /home/lixx/ZGCX/S1_Project/SSC308QE_SDK/Iford_IMD00V005.0.1_fastboot/SourceCode/SSC308QE_SDK_TEXT/SSC308QE_CODEBASE/sdk/linux/init/scl/scl_init.o

.ARM.attributes
                0x0000000000000000       0x31
 .ARM.attributes
                0x0000000000000000       0x2f /home/lixx/ZGCX/S1_Project/SSC308QE_SDK/Iford_IMD00V005.0.1_fastboot/SourceCode/SSC308QE_SDK_TEXT/SSC308QE_CODEBASE/sdk/linux/init/module.o
 .ARM.attributes
                0x000000000000002f       0x31 /home/lixx/ZGCX/S1_Project/SSC308QE_SDK/Iford_IMD00V005.0.1_fastboot/SourceCode/SSC308QE_SDK_TEXT/SSC308QE_CODEBASE/sdk/linux/init/sensor/../../obj/uclibc/9.1.0/sensor.o
 .ARM.attributes
                0x0000000000000060       0x2f /home/lixx/ZGCX/S1_Project/SSC308QE_SDK/Iford_IMD00V005.0.1_fastboot/SourceCode/SSC308QE_SDK_TEXT/SSC308QE_CODEBASE/sdk/linux/init/sensor/csi_init.o
 .ARM.attributes
                0x000000000000008f       0x31 /home/lixx/ZGCX/S1_Project/SSC308QE_SDK/Iford_IMD00V005.0.1_fastboot/SourceCode/SSC308QE_SDK_TEXT/SSC308QE_CODEBASE/sdk/linux/init/sensor/sensor_export.o
 .ARM.attributes
                0x00000000000000c0       0x2f /home/lixx/ZGCX/S1_Project/SSC308QE_SDK/Iford_IMD00V005.0.1_fastboot/SourceCode/SSC308QE_SDK_TEXT/SSC308QE_CODEBASE/sdk/linux/init/sensor/sensor_init.o
 .ARM.attributes
                0x00000000000000ef       0x31 /home/lixx/ZGCX/S1_Project/SSC308QE_SDK/Iford_IMD00V005.0.1_fastboot/SourceCode/SSC308QE_SDK_TEXT/SSC308QE_CODEBASE/sdk/linux/init/aio/../../obj/uclibc/9.1.0/aio.o
 .ARM.attributes
                0x0000000000000120       0x2f /home/lixx/ZGCX/S1_Project/SSC308QE_SDK/Iford_IMD00V005.0.1_fastboot/SourceCode/SSC308QE_SDK_TEXT/SSC308QE_CODEBASE/sdk/linux/init/aio/aio_init.o
 .ARM.attributes
                0x000000000000014f       0x2f /home/lixx/ZGCX/S1_Project/SSC308QE_SDK/Iford_IMD00V005.0.1_fastboot/SourceCode/SSC308QE_SDK_TEXT/SSC308QE_CODEBASE/sdk/linux/init/rgn/../../obj/uclibc/9.1.0/rgn.o
 .ARM.attributes
                0x000000000000017e       0x2f /home/lixx/ZGCX/S1_Project/SSC308QE_SDK/Iford_IMD00V005.0.1_fastboot/SourceCode/SSC308QE_SDK_TEXT/SSC308QE_CODEBASE/sdk/linux/init/rgn/rgn_init.o
 .ARM.attributes
                0x00000000000001ad       0x2f /home/lixx/ZGCX/S1_Project/SSC308QE_SDK/Iford_IMD00V005.0.1_fastboot/SourceCode/SSC308QE_SDK_TEXT/SSC308QE_CODEBASE/sdk/linux/init/ive/../../obj/uclibc/9.1.0/ive.o
 .ARM.attributes
                0x00000000000001dc       0x2f /home/lixx/ZGCX/S1_Project/SSC308QE_SDK/Iford_IMD00V005.0.1_fastboot/SourceCode/SSC308QE_SDK_TEXT/SSC308QE_CODEBASE/sdk/linux/init/ive/ive_init.o
 .ARM.attributes
                0x000000000000020b       0x2f /home/lixx/ZGCX/S1_Project/SSC308QE_SDK/Iford_IMD00V005.0.1_fastboot/SourceCode/SSC308QE_SDK_TEXT/SSC308QE_CODEBASE/sdk/linux/init/ao/../../obj/uclibc/9.1.0/ao.o
 .ARM.attributes
                0x000000000000023a       0x2f /home/lixx/ZGCX/S1_Project/SSC308QE_SDK/Iford_IMD00V005.0.1_fastboot/SourceCode/SSC308QE_SDK_TEXT/SSC308QE_CODEBASE/sdk/linux/init/ao/ao_init.o
 .ARM.attributes
                0x0000000000000269       0x2f /home/lixx/ZGCX/S1_Project/SSC308QE_SDK/Iford_IMD00V005.0.1_fastboot/SourceCode/SSC308QE_SDK_TEXT/SSC308QE_CODEBASE/sdk/linux/init/shadow/../../obj/uclibc/9.1.0/shadow.o
 .ARM.attributes
                0x0000000000000298       0x2f /home/lixx/ZGCX/S1_Project/SSC308QE_SDK/Iford_IMD00V005.0.1_fastboot/SourceCode/SSC308QE_SDK_TEXT/SSC308QE_CODEBASE/sdk/linux/init/shadow/shadow_init.o
 .ARM.attributes
                0x00000000000002c7       0x31 /home/lixx/ZGCX/S1_Project/SSC308QE_SDK/Iford_IMD00V005.0.1_fastboot/SourceCode/SSC308QE_SDK_TEXT/SSC308QE_CODEBASE/sdk/linux/init/isp/../../obj/uclibc/9.1.0/isp.o
 .ARM.attributes
                0x00000000000002f8       0x2f /home/lixx/ZGCX/S1_Project/SSC308QE_SDK/Iford_IMD00V005.0.1_fastboot/SourceCode/SSC308QE_SDK_TEXT/SSC308QE_CODEBASE/sdk/linux/init/isp/isp_init.o
 .ARM.attributes
                0x0000000000000327       0x2f /home/lixx/ZGCX/S1_Project/SSC308QE_SDK/Iford_IMD00V005.0.1_fastboot/SourceCode/SSC308QE_SDK_TEXT/SSC308QE_CODEBASE/sdk/linux/init/isp/ispmid_init.o
 .ARM.attributes
                0x0000000000000356       0x2f /home/lixx/ZGCX/S1_Project/SSC308QE_SDK/Iford_IMD00V005.0.1_fastboot/SourceCode/SSC308QE_SDK_TEXT/SSC308QE_CODEBASE/sdk/linux/init/isp/mload_init.o
 .ARM.attributes
                0x0000000000000385       0x31 /home/lixx/ZGCX/S1_Project/SSC308QE_SDK/Iford_IMD00V005.0.1_fastboot/SourceCode/SSC308QE_SDK_TEXT/SSC308QE_CODEBASE/sdk/linux/init/ipu/../../obj/uclibc/9.1.0/ipu.o
 .ARM.attributes
                0x00000000000003b6       0x2f /home/lixx/ZGCX/S1_Project/SSC308QE_SDK/Iford_IMD00V005.0.1_fastboot/SourceCode/SSC308QE_SDK_TEXT/SSC308QE_CODEBASE/sdk/linux/init/ipu/ipu_init.o
 .ARM.attributes
                0x00000000000003e5       0x2f /home/lixx/ZGCX/S1_Project/SSC308QE_SDK/Iford_IMD00V005.0.1_fastboot/SourceCode/SSC308QE_SDK_TEXT/SSC308QE_CODEBASE/sdk/linux/init/sys/../../obj/uclibc/9.1.0/sys.o
 .ARM.attributes
                0x0000000000000414       0x31 /home/lixx/ZGCX/S1_Project/SSC308QE_SDK/Iford_IMD00V005.0.1_fastboot/SourceCode/SSC308QE_SDK_TEXT/SSC308QE_CODEBASE/sdk/linux/init/sys/cmdq_export.o
 .ARM.attributes
                0x0000000000000445       0x2f /home/lixx/ZGCX/S1_Project/SSC308QE_SDK/Iford_IMD00V005.0.1_fastboot/SourceCode/SSC308QE_SDK_TEXT/SSC308QE_CODEBASE/sdk/linux/init/sys/cmdq_init.o
 .ARM.attributes
                0x0000000000000474       0x2f /home/lixx/ZGCX/S1_Project/SSC308QE_SDK/Iford_IMD00V005.0.1_fastboot/SourceCode/SSC308QE_SDK_TEXT/SSC308QE_CODEBASE/sdk/linux/init/sys/sys_init.o
 .ARM.attributes
                0x00000000000004a3       0x2f /home/lixx/ZGCX/S1_Project/SSC308QE_SDK/Iford_IMD00V005.0.1_fastboot/SourceCode/SSC308QE_SDK_TEXT/SSC308QE_CODEBASE/sdk/linux/init/disp/../../obj/uclibc/9.1.0/disp.o
 .ARM.attributes
                0x00000000000004d2       0x2f /home/lixx/ZGCX/S1_Project/SSC308QE_SDK/Iford_IMD00V005.0.1_fastboot/SourceCode/SSC308QE_SDK_TEXT/SSC308QE_CODEBASE/sdk/linux/init/disp/disp_init.o
 .ARM.attributes
                0x0000000000000501       0x2f /home/lixx/ZGCX/S1_Project/SSC308QE_SDK/Iford_IMD00V005.0.1_fastboot/SourceCode/SSC308QE_SDK_TEXT/SSC308QE_CODEBASE/sdk/linux/init/vif/../../obj/uclibc/9.1.0/vif.o
 .ARM.attributes
                0x0000000000000530       0x31 /home/lixx/ZGCX/S1_Project/SSC308QE_SDK/Iford_IMD00V005.0.1_fastboot/SourceCode/SSC308QE_SDK_TEXT/SSC308QE_CODEBASE/sdk/linux/init/vif/vif_export.o
 .ARM.attributes
                0x0000000000000561       0x2f /home/lixx/ZGCX/S1_Project/SSC308QE_SDK/Iford_IMD00V005.0.1_fastboot/SourceCode/SSC308QE_SDK_TEXT/SSC308QE_CODEBASE/sdk/linux/init/vif/vif_init.o
 .ARM.attributes
                0x0000000000000590       0x2f /home/lixx/ZGCX/S1_Project/SSC308QE_SDK/Iford_IMD00V005.0.1_fastboot/SourceCode/SSC308QE_SDK_TEXT/SSC308QE_CODEBASE/sdk/linux/init/common/../../obj/uclibc/9.1.0/common.o
 .ARM.attributes
                0x00000000000005bf       0x2f /home/lixx/ZGCX/S1_Project/SSC308QE_SDK/Iford_IMD00V005.0.1_fastboot/SourceCode/SSC308QE_SDK_TEXT/SSC308QE_CODEBASE/sdk/linux/init/common/common_init.o
 .ARM.attributes
                0x00000000000005ee       0x2f /home/lixx/ZGCX/S1_Project/SSC308QE_SDK/Iford_IMD00V005.0.1_fastboot/SourceCode/SSC308QE_SDK_TEXT/SSC308QE_CODEBASE/sdk/linux/init/ai/../../obj/uclibc/9.1.0/ai.o
 .ARM.attributes
                0x000000000000061d       0x2f /home/lixx/ZGCX/S1_Project/SSC308QE_SDK/Iford_IMD00V005.0.1_fastboot/SourceCode/SSC308QE_SDK_TEXT/SSC308QE_CODEBASE/sdk/linux/init/ai/ai_init.o
 .ARM.attributes
                0x000000000000064c       0x31 /home/lixx/ZGCX/S1_Project/SSC308QE_SDK/Iford_IMD00V005.0.1_fastboot/SourceCode/SSC308QE_SDK_TEXT/SSC308QE_CODEBASE/sdk/linux/init/venc/../../obj/uclibc/9.1.0/venc.o
 .ARM.attributes
                0x000000000000067d       0x2f /home/lixx/ZGCX/S1_Project/SSC308QE_SDK/Iford_IMD00V005.0.1_fastboot/SourceCode/SSC308QE_SDK_TEXT/SSC308QE_CODEBASE/sdk/linux/init/venc/venc_init.o
 .ARM.attributes
                0x00000000000006ac       0x31 /home/lixx/ZGCX/S1_Project/SSC308QE_SDK/Iford_IMD00V005.0.1_fastboot/SourceCode/SSC308QE_SDK_TEXT/SSC308QE_CODEBASE/sdk/linux/init/scl/../../obj/uclibc/9.1.0/scl.o
 .ARM.attributes
                0x00000000000006dd       0x31 /home/lixx/ZGCX/S1_Project/SSC308QE_SDK/Iford_IMD00V005.0.1_fastboot/SourceCode/SSC308QE_SDK_TEXT/SSC308QE_CODEBASE/sdk/linux/init/scl/scl_export.o
 .ARM.attributes
                0x000000000000070e       0x2f /home/lixx/ZGCX/S1_Project/SSC308QE_SDK/Iford_IMD00V005.0.1_fastboot/SourceCode/SSC308QE_SDK_TEXT/SSC308QE_CODEBASE/sdk/linux/init/scl/scl_init.o

.gnu.build.attributes
 *(.gnu.build.attributes)

.debug
 *(.debug)

.line
 *(.line)

.debug_srcinfo
 *(.debug_srcinfo)

.debug_sfnames
 *(.debug_sfnames)

.debug_aranges  0x0000000000000000     0x2258
 *(.debug_aranges)
 .debug_aranges
                0x0000000000000000      0x308 /home/lixx/ZGCX/S1_Project/SSC308QE_SDK/Iford_IMD00V005.0.1_fastboot/SourceCode/SSC308QE_SDK_TEXT/SSC308QE_CODEBASE/sdk/linux/init/sensor/../../obj/uclibc/9.1.0/sensor.o
 .debug_aranges
                0x0000000000000308       0x28 /home/lixx/ZGCX/S1_Project/SSC308QE_SDK/Iford_IMD00V005.0.1_fastboot/SourceCode/SSC308QE_SDK_TEXT/SSC308QE_CODEBASE/sdk/linux/init/sensor/csi_init.o
 .debug_aranges
                0x0000000000000330       0x18 /home/lixx/ZGCX/S1_Project/SSC308QE_SDK/Iford_IMD00V005.0.1_fastboot/SourceCode/SSC308QE_SDK_TEXT/SSC308QE_CODEBASE/sdk/linux/init/sensor/sensor_export.o
 .debug_aranges
                0x0000000000000348       0x20 /home/lixx/ZGCX/S1_Project/SSC308QE_SDK/Iford_IMD00V005.0.1_fastboot/SourceCode/SSC308QE_SDK_TEXT/SSC308QE_CODEBASE/sdk/linux/init/sensor/sensor_init.o
 .debug_aranges
                0x0000000000000368      0x108 /home/lixx/ZGCX/S1_Project/SSC308QE_SDK/Iford_IMD00V005.0.1_fastboot/SourceCode/SSC308QE_SDK_TEXT/SSC308QE_CODEBASE/sdk/linux/init/aio/../../obj/uclibc/9.1.0/aio.o
 .debug_aranges
                0x0000000000000470       0x20 /home/lixx/ZGCX/S1_Project/SSC308QE_SDK/Iford_IMD00V005.0.1_fastboot/SourceCode/SSC308QE_SDK_TEXT/SSC308QE_CODEBASE/sdk/linux/init/aio/aio_init.o
 .debug_aranges
                0x0000000000000490      0x240 /home/lixx/ZGCX/S1_Project/SSC308QE_SDK/Iford_IMD00V005.0.1_fastboot/SourceCode/SSC308QE_SDK_TEXT/SSC308QE_CODEBASE/sdk/linux/init/rgn/../../obj/uclibc/9.1.0/rgn.o
 .debug_aranges
                0x00000000000006d0       0x20 /home/lixx/ZGCX/S1_Project/SSC308QE_SDK/Iford_IMD00V005.0.1_fastboot/SourceCode/SSC308QE_SDK_TEXT/SSC308QE_CODEBASE/sdk/linux/init/rgn/rgn_init.o
 .debug_aranges
                0x00000000000006f0      0x140 /home/lixx/ZGCX/S1_Project/SSC308QE_SDK/Iford_IMD00V005.0.1_fastboot/SourceCode/SSC308QE_SDK_TEXT/SSC308QE_CODEBASE/sdk/linux/init/ive/../../obj/uclibc/9.1.0/ive.o
 .debug_aranges
                0x0000000000000830       0x20 /home/lixx/ZGCX/S1_Project/SSC308QE_SDK/Iford_IMD00V005.0.1_fastboot/SourceCode/SSC308QE_SDK_TEXT/SSC308QE_CODEBASE/sdk/linux/init/ive/ive_init.o
 .debug_aranges
                0x0000000000000850       0x60 /home/lixx/ZGCX/S1_Project/SSC308QE_SDK/Iford_IMD00V005.0.1_fastboot/SourceCode/SSC308QE_SDK_TEXT/SSC308QE_CODEBASE/sdk/linux/init/ao/../../obj/uclibc/9.1.0/ao.o
 .debug_aranges
                0x00000000000008b0       0x20 /home/lixx/ZGCX/S1_Project/SSC308QE_SDK/Iford_IMD00V005.0.1_fastboot/SourceCode/SSC308QE_SDK_TEXT/SSC308QE_CODEBASE/sdk/linux/init/ao/ao_init.o
 .debug_aranges
                0x00000000000008d0       0x40 /home/lixx/ZGCX/S1_Project/SSC308QE_SDK/Iford_IMD00V005.0.1_fastboot/SourceCode/SSC308QE_SDK_TEXT/SSC308QE_CODEBASE/sdk/linux/init/shadow/../../obj/uclibc/9.1.0/shadow.o
 .debug_aranges
                0x0000000000000910       0x20 /home/lixx/ZGCX/S1_Project/SSC308QE_SDK/Iford_IMD00V005.0.1_fastboot/SourceCode/SSC308QE_SDK_TEXT/SSC308QE_CODEBASE/sdk/linux/init/shadow/shadow_init.o
 .debug_aranges
                0x0000000000000930      0x500 /home/lixx/ZGCX/S1_Project/SSC308QE_SDK/Iford_IMD00V005.0.1_fastboot/SourceCode/SSC308QE_SDK_TEXT/SSC308QE_CODEBASE/sdk/linux/init/isp/../../obj/uclibc/9.1.0/isp.o
 .debug_aranges
                0x0000000000000e30       0x20 /home/lixx/ZGCX/S1_Project/SSC308QE_SDK/Iford_IMD00V005.0.1_fastboot/SourceCode/SSC308QE_SDK_TEXT/SSC308QE_CODEBASE/sdk/linux/init/isp/isp_init.o
 .debug_aranges
                0x0000000000000e50       0x20 /home/lixx/ZGCX/S1_Project/SSC308QE_SDK/Iford_IMD00V005.0.1_fastboot/SourceCode/SSC308QE_SDK_TEXT/SSC308QE_CODEBASE/sdk/linux/init/isp/ispmid_init.o
 .debug_aranges
                0x0000000000000e70       0x20 /home/lixx/ZGCX/S1_Project/SSC308QE_SDK/Iford_IMD00V005.0.1_fastboot/SourceCode/SSC308QE_SDK_TEXT/SSC308QE_CODEBASE/sdk/linux/init/isp/mload_init.o
 .debug_aranges
                0x0000000000000e90      0x250 /home/lixx/ZGCX/S1_Project/SSC308QE_SDK/Iford_IMD00V005.0.1_fastboot/SourceCode/SSC308QE_SDK_TEXT/SSC308QE_CODEBASE/sdk/linux/init/ipu/../../obj/uclibc/9.1.0/ipu.o
 .debug_aranges
                0x00000000000010e0       0x20 /home/lixx/ZGCX/S1_Project/SSC308QE_SDK/Iford_IMD00V005.0.1_fastboot/SourceCode/SSC308QE_SDK_TEXT/SSC308QE_CODEBASE/sdk/linux/init/ipu/ipu_init.o
 .debug_aranges
                0x0000000000001100      0x3e0 /home/lixx/ZGCX/S1_Project/SSC308QE_SDK/Iford_IMD00V005.0.1_fastboot/SourceCode/SSC308QE_SDK_TEXT/SSC308QE_CODEBASE/sdk/linux/init/sys/../../obj/uclibc/9.1.0/sys.o
 .debug_aranges
                0x00000000000014e0       0x18 /home/lixx/ZGCX/S1_Project/SSC308QE_SDK/Iford_IMD00V005.0.1_fastboot/SourceCode/SSC308QE_SDK_TEXT/SSC308QE_CODEBASE/sdk/linux/init/sys/cmdq_export.o
 .debug_aranges
                0x00000000000014f8       0x20 /home/lixx/ZGCX/S1_Project/SSC308QE_SDK/Iford_IMD00V005.0.1_fastboot/SourceCode/SSC308QE_SDK_TEXT/SSC308QE_CODEBASE/sdk/linux/init/sys/cmdq_init.o
 .debug_aranges
                0x0000000000001518       0x28 /home/lixx/ZGCX/S1_Project/SSC308QE_SDK/Iford_IMD00V005.0.1_fastboot/SourceCode/SSC308QE_SDK_TEXT/SSC308QE_CODEBASE/sdk/linux/init/sys/sys_init.o
 .debug_aranges
                0x0000000000001540      0x1c0 /home/lixx/ZGCX/S1_Project/SSC308QE_SDK/Iford_IMD00V005.0.1_fastboot/SourceCode/SSC308QE_SDK_TEXT/SSC308QE_CODEBASE/sdk/linux/init/disp/../../obj/uclibc/9.1.0/disp.o
 .debug_aranges
                0x0000000000001700       0x20 /home/lixx/ZGCX/S1_Project/SSC308QE_SDK/Iford_IMD00V005.0.1_fastboot/SourceCode/SSC308QE_SDK_TEXT/SSC308QE_CODEBASE/sdk/linux/init/disp/disp_init.o
 .debug_aranges
                0x0000000000001720      0x220 /home/lixx/ZGCX/S1_Project/SSC308QE_SDK/Iford_IMD00V005.0.1_fastboot/SourceCode/SSC308QE_SDK_TEXT/SSC308QE_CODEBASE/sdk/linux/init/vif/../../obj/uclibc/9.1.0/vif.o
 .debug_aranges
                0x0000000000001940       0x18 /home/lixx/ZGCX/S1_Project/SSC308QE_SDK/Iford_IMD00V005.0.1_fastboot/SourceCode/SSC308QE_SDK_TEXT/SSC308QE_CODEBASE/sdk/linux/init/vif/vif_export.o
 .debug_aranges
                0x0000000000001958       0x20 /home/lixx/ZGCX/S1_Project/SSC308QE_SDK/Iford_IMD00V005.0.1_fastboot/SourceCode/SSC308QE_SDK_TEXT/SSC308QE_CODEBASE/sdk/linux/init/vif/vif_init.o
 .debug_aranges
                0x0000000000001978       0xc0 /home/lixx/ZGCX/S1_Project/SSC308QE_SDK/Iford_IMD00V005.0.1_fastboot/SourceCode/SSC308QE_SDK_TEXT/SSC308QE_CODEBASE/sdk/linux/init/common/../../obj/uclibc/9.1.0/common.o
 .debug_aranges
                0x0000000000001a38       0x20 /home/lixx/ZGCX/S1_Project/SSC308QE_SDK/Iford_IMD00V005.0.1_fastboot/SourceCode/SSC308QE_SDK_TEXT/SSC308QE_CODEBASE/sdk/linux/init/common/common_init.o
 .debug_aranges
                0x0000000000001a58       0x60 /home/lixx/ZGCX/S1_Project/SSC308QE_SDK/Iford_IMD00V005.0.1_fastboot/SourceCode/SSC308QE_SDK_TEXT/SSC308QE_CODEBASE/sdk/linux/init/ai/../../obj/uclibc/9.1.0/ai.o
 .debug_aranges
                0x0000000000001ab8       0x20 /home/lixx/ZGCX/S1_Project/SSC308QE_SDK/Iford_IMD00V005.0.1_fastboot/SourceCode/SSC308QE_SDK_TEXT/SSC308QE_CODEBASE/sdk/linux/init/ai/ai_init.o
 .debug_aranges
                0x0000000000001ad8      0x650 /home/lixx/ZGCX/S1_Project/SSC308QE_SDK/Iford_IMD00V005.0.1_fastboot/SourceCode/SSC308QE_SDK_TEXT/SSC308QE_CODEBASE/sdk/linux/init/venc/../../obj/uclibc/9.1.0/venc.o
 .debug_aranges
                0x0000000000002128       0x20 /home/lixx/ZGCX/S1_Project/SSC308QE_SDK/Iford_IMD00V005.0.1_fastboot/SourceCode/SSC308QE_SDK_TEXT/SSC308QE_CODEBASE/sdk/linux/init/venc/venc_init.o
 .debug_aranges
                0x0000000000002148       0xd8 /home/lixx/ZGCX/S1_Project/SSC308QE_SDK/Iford_IMD00V005.0.1_fastboot/SourceCode/SSC308QE_SDK_TEXT/SSC308QE_CODEBASE/sdk/linux/init/scl/../../obj/uclibc/9.1.0/scl.o
 .debug_aranges
                0x0000000000002220       0x18 /home/lixx/ZGCX/S1_Project/SSC308QE_SDK/Iford_IMD00V005.0.1_fastboot/SourceCode/SSC308QE_SDK_TEXT/SSC308QE_CODEBASE/sdk/linux/init/scl/scl_export.o
 .debug_aranges
                0x0000000000002238       0x20 /home/lixx/ZGCX/S1_Project/SSC308QE_SDK/Iford_IMD00V005.0.1_fastboot/SourceCode/SSC308QE_SDK_TEXT/SSC308QE_CODEBASE/sdk/linux/init/scl/scl_init.o

.debug_pubnames
 *(.debug_pubnames)

.debug_info     0x0000000000000000   0x9b0019
 *(.debug_info)
 .debug_info    0x0000000000000000    0x6abbe /home/lixx/ZGCX/S1_Project/SSC308QE_SDK/Iford_IMD00V005.0.1_fastboot/SourceCode/SSC308QE_SDK_TEXT/SSC308QE_CODEBASE/sdk/linux/init/sensor/../../obj/uclibc/9.1.0/sensor.o
 .debug_info    0x000000000006abbe     0xda9e /home/lixx/ZGCX/S1_Project/SSC308QE_SDK/Iford_IMD00V005.0.1_fastboot/SourceCode/SSC308QE_SDK_TEXT/SSC308QE_CODEBASE/sdk/linux/init/sensor/csi_init.o
 .debug_info    0x000000000007865c     0x4280 /home/lixx/ZGCX/S1_Project/SSC308QE_SDK/Iford_IMD00V005.0.1_fastboot/SourceCode/SSC308QE_SDK_TEXT/SSC308QE_CODEBASE/sdk/linux/init/sensor/sensor_export.o
 .debug_info    0x000000000007c8dc     0xe377 /home/lixx/ZGCX/S1_Project/SSC308QE_SDK/Iford_IMD00V005.0.1_fastboot/SourceCode/SSC308QE_SDK_TEXT/SSC308QE_CODEBASE/sdk/linux/init/sensor/sensor_init.o
 .debug_info    0x000000000008ac53    0x16ae1 /home/lixx/ZGCX/S1_Project/SSC308QE_SDK/Iford_IMD00V005.0.1_fastboot/SourceCode/SSC308QE_SDK_TEXT/SSC308QE_CODEBASE/sdk/linux/init/aio/../../obj/uclibc/9.1.0/aio.o
 .debug_info    0x00000000000a1734     0x9210 /home/lixx/ZGCX/S1_Project/SSC308QE_SDK/Iford_IMD00V005.0.1_fastboot/SourceCode/SSC308QE_SDK_TEXT/SSC308QE_CODEBASE/sdk/linux/init/aio/aio_init.o
 .debug_info    0x00000000000aa944    0x775e8 /home/lixx/ZGCX/S1_Project/SSC308QE_SDK/Iford_IMD00V005.0.1_fastboot/SourceCode/SSC308QE_SDK_TEXT/SSC308QE_CODEBASE/sdk/linux/init/rgn/../../obj/uclibc/9.1.0/rgn.o
 .debug_info    0x0000000000121f2c     0x8cd0 /home/lixx/ZGCX/S1_Project/SSC308QE_SDK/Iford_IMD00V005.0.1_fastboot/SourceCode/SSC308QE_SDK_TEXT/SSC308QE_CODEBASE/sdk/linux/init/rgn/rgn_init.o
 .debug_info    0x000000000012abfc    0x40ec2 /home/lixx/ZGCX/S1_Project/SSC308QE_SDK/Iford_IMD00V005.0.1_fastboot/SourceCode/SSC308QE_SDK_TEXT/SSC308QE_CODEBASE/sdk/linux/init/ive/../../obj/uclibc/9.1.0/ive.o
 .debug_info    0x000000000016babe     0x8c43 /home/lixx/ZGCX/S1_Project/SSC308QE_SDK/Iford_IMD00V005.0.1_fastboot/SourceCode/SSC308QE_SDK_TEXT/SSC308QE_CODEBASE/sdk/linux/init/ive/ive_init.o
 .debug_info    0x0000000000174701    0x16187 /home/lixx/ZGCX/S1_Project/SSC308QE_SDK/Iford_IMD00V005.0.1_fastboot/SourceCode/SSC308QE_SDK_TEXT/SSC308QE_CODEBASE/sdk/linux/init/ao/../../obj/uclibc/9.1.0/ao.o
 .debug_info    0x000000000018a888     0x40d2 /home/lixx/ZGCX/S1_Project/SSC308QE_SDK/Iford_IMD00V005.0.1_fastboot/SourceCode/SSC308QE_SDK_TEXT/SSC308QE_CODEBASE/sdk/linux/init/ao/ao_init.o
 .debug_info    0x000000000018e95a     0xe001 /home/lixx/ZGCX/S1_Project/SSC308QE_SDK/Iford_IMD00V005.0.1_fastboot/SourceCode/SSC308QE_SDK_TEXT/SSC308QE_CODEBASE/sdk/linux/init/shadow/../../obj/uclibc/9.1.0/shadow.o
 .debug_info    0x000000000019c95b     0x40d2 /home/lixx/ZGCX/S1_Project/SSC308QE_SDK/Iford_IMD00V005.0.1_fastboot/SourceCode/SSC308QE_SDK_TEXT/SSC308QE_CODEBASE/sdk/linux/init/shadow/shadow_init.o
 .debug_info    0x00000000001a0a2d   0x3a20b2 /home/lixx/ZGCX/S1_Project/SSC308QE_SDK/Iford_IMD00V005.0.1_fastboot/SourceCode/SSC308QE_SDK_TEXT/SSC308QE_CODEBASE/sdk/linux/init/isp/../../obj/uclibc/9.1.0/isp.o
 .debug_info    0x0000000000542adf     0xe09b /home/lixx/ZGCX/S1_Project/SSC308QE_SDK/Iford_IMD00V005.0.1_fastboot/SourceCode/SSC308QE_SDK_TEXT/SSC308QE_CODEBASE/sdk/linux/init/isp/isp_init.o
 .debug_info    0x0000000000550b7a     0xf6b8 /home/lixx/ZGCX/S1_Project/SSC308QE_SDK/Iford_IMD00V005.0.1_fastboot/SourceCode/SSC308QE_SDK_TEXT/SSC308QE_CODEBASE/sdk/linux/init/isp/ispmid_init.o
 .debug_info    0x0000000000560232     0xc8db /home/lixx/ZGCX/S1_Project/SSC308QE_SDK/Iford_IMD00V005.0.1_fastboot/SourceCode/SSC308QE_SDK_TEXT/SSC308QE_CODEBASE/sdk/linux/init/isp/mload_init.o
 .debug_info    0x000000000056cb0d    0x808a7 /home/lixx/ZGCX/S1_Project/SSC308QE_SDK/Iford_IMD00V005.0.1_fastboot/SourceCode/SSC308QE_SDK_TEXT/SSC308QE_CODEBASE/sdk/linux/init/ipu/../../obj/uclibc/9.1.0/ipu.o
 .debug_info    0x00000000005ed3b4     0x9469 /home/lixx/ZGCX/S1_Project/SSC308QE_SDK/Iford_IMD00V005.0.1_fastboot/SourceCode/SSC308QE_SDK_TEXT/SSC308QE_CODEBASE/sdk/linux/init/ipu/ipu_init.o
 .debug_info    0x00000000005f681d    0xe21ed /home/lixx/ZGCX/S1_Project/SSC308QE_SDK/Iford_IMD00V005.0.1_fastboot/SourceCode/SSC308QE_SDK_TEXT/SSC308QE_CODEBASE/sdk/linux/init/sys/../../obj/uclibc/9.1.0/sys.o
 .debug_info    0x00000000006d8a0a     0x3fea /home/lixx/ZGCX/S1_Project/SSC308QE_SDK/Iford_IMD00V005.0.1_fastboot/SourceCode/SSC308QE_SDK_TEXT/SSC308QE_CODEBASE/sdk/linux/init/sys/cmdq_export.o
 .debug_info    0x00000000006dc9f4     0x89de /home/lixx/ZGCX/S1_Project/SSC308QE_SDK/Iford_IMD00V005.0.1_fastboot/SourceCode/SSC308QE_SDK_TEXT/SSC308QE_CODEBASE/sdk/linux/init/sys/cmdq_init.o
 .debug_info    0x00000000006e53d2    0x152bf /home/lixx/ZGCX/S1_Project/SSC308QE_SDK/Iford_IMD00V005.0.1_fastboot/SourceCode/SSC308QE_SDK_TEXT/SSC308QE_CODEBASE/sdk/linux/init/sys/sys_init.o
 .debug_info    0x00000000006fa691    0x878f1 /home/lixx/ZGCX/S1_Project/SSC308QE_SDK/Iford_IMD00V005.0.1_fastboot/SourceCode/SSC308QE_SDK_TEXT/SSC308QE_CODEBASE/sdk/linux/init/disp/../../obj/uclibc/9.1.0/disp.o
 .debug_info    0x0000000000781f82     0xd9d7 /home/lixx/ZGCX/S1_Project/SSC308QE_SDK/Iford_IMD00V005.0.1_fastboot/SourceCode/SSC308QE_SDK_TEXT/SSC308QE_CODEBASE/sdk/linux/init/disp/disp_init.o
 .debug_info    0x000000000078f959    0x4be34 /home/lixx/ZGCX/S1_Project/SSC308QE_SDK/Iford_IMD00V005.0.1_fastboot/SourceCode/SSC308QE_SDK_TEXT/SSC308QE_CODEBASE/sdk/linux/init/vif/../../obj/uclibc/9.1.0/vif.o
 .debug_info    0x00000000007db78d     0x3ffb /home/lixx/ZGCX/S1_Project/SSC308QE_SDK/Iford_IMD00V005.0.1_fastboot/SourceCode/SSC308QE_SDK_TEXT/SSC308QE_CODEBASE/sdk/linux/init/vif/vif_export.o
 .debug_info    0x00000000007df788     0xf145 /home/lixx/ZGCX/S1_Project/SSC308QE_SDK/Iford_IMD00V005.0.1_fastboot/SourceCode/SSC308QE_SDK_TEXT/SSC308QE_CODEBASE/sdk/linux/init/vif/vif_init.o
 .debug_info    0x00000000007ee8cd     0x85e0 /home/lixx/ZGCX/S1_Project/SSC308QE_SDK/Iford_IMD00V005.0.1_fastboot/SourceCode/SSC308QE_SDK_TEXT/SSC308QE_CODEBASE/sdk/linux/init/common/../../obj/uclibc/9.1.0/common.o
 .debug_info    0x00000000007f6ead     0x8ea4 /home/lixx/ZGCX/S1_Project/SSC308QE_SDK/Iford_IMD00V005.0.1_fastboot/SourceCode/SSC308QE_SDK_TEXT/SSC308QE_CODEBASE/sdk/linux/init/common/common_init.o
 .debug_info    0x00000000007ffd51    0x15cca /home/lixx/ZGCX/S1_Project/SSC308QE_SDK/Iford_IMD00V005.0.1_fastboot/SourceCode/SSC308QE_SDK_TEXT/SSC308QE_CODEBASE/sdk/linux/init/ai/../../obj/uclibc/9.1.0/ai.o
 .debug_info    0x0000000000815a1b     0x8ace /home/lixx/ZGCX/S1_Project/SSC308QE_SDK/Iford_IMD00V005.0.1_fastboot/SourceCode/SSC308QE_SDK_TEXT/SSC308QE_CODEBASE/sdk/linux/init/ai/ai_init.o
 .debug_info    0x000000000081e4e9   0x134bc5 /home/lixx/ZGCX/S1_Project/SSC308QE_SDK/Iford_IMD00V005.0.1_fastboot/SourceCode/SSC308QE_SDK_TEXT/SSC308QE_CODEBASE/sdk/linux/init/venc/../../obj/uclibc/9.1.0/venc.o
 .debug_info    0x00000000009530ae     0x9311 /home/lixx/ZGCX/S1_Project/SSC308QE_SDK/Iford_IMD00V005.0.1_fastboot/SourceCode/SSC308QE_SDK_TEXT/SSC308QE_CODEBASE/sdk/linux/init/venc/venc_init.o
 .debug_info    0x000000000095c3bf    0x4b05f /home/lixx/ZGCX/S1_Project/SSC308QE_SDK/Iford_IMD00V005.0.1_fastboot/SourceCode/SSC308QE_SDK_TEXT/SSC308QE_CODEBASE/sdk/linux/init/scl/../../obj/uclibc/9.1.0/scl.o
 .debug_info    0x00000000009a741e       0x33 /home/lixx/ZGCX/S1_Project/SSC308QE_SDK/Iford_IMD00V005.0.1_fastboot/SourceCode/SSC308QE_SDK_TEXT/SSC308QE_CODEBASE/sdk/linux/init/scl/scl_export.o
 .debug_info    0x00000000009a7451     0x8bc8 /home/lixx/ZGCX/S1_Project/SSC308QE_SDK/Iford_IMD00V005.0.1_fastboot/SourceCode/SSC308QE_SDK_TEXT/SSC308QE_CODEBASE/sdk/linux/init/scl/scl_init.o

.debug_abbrev   0x0000000000000000    0x46319
 *(.debug_abbrev)
 .debug_abbrev  0x0000000000000000     0x4dea /home/lixx/ZGCX/S1_Project/SSC308QE_SDK/Iford_IMD00V005.0.1_fastboot/SourceCode/SSC308QE_SDK_TEXT/SSC308QE_CODEBASE/sdk/linux/init/sensor/../../obj/uclibc/9.1.0/sensor.o
 .debug_abbrev  0x0000000000004dea      0x837 /home/lixx/ZGCX/S1_Project/SSC308QE_SDK/Iford_IMD00V005.0.1_fastboot/SourceCode/SSC308QE_SDK_TEXT/SSC308QE_CODEBASE/sdk/linux/init/sensor/csi_init.o
 .debug_abbrev  0x0000000000005621      0x42d /home/lixx/ZGCX/S1_Project/SSC308QE_SDK/Iford_IMD00V005.0.1_fastboot/SourceCode/SSC308QE_SDK_TEXT/SSC308QE_CODEBASE/sdk/linux/init/sensor/sensor_export.o
 .debug_abbrev  0x0000000000005a4e      0x933 /home/lixx/ZGCX/S1_Project/SSC308QE_SDK/Iford_IMD00V005.0.1_fastboot/SourceCode/SSC308QE_SDK_TEXT/SSC308QE_CODEBASE/sdk/linux/init/sensor/sensor_init.o
 .debug_abbrev  0x0000000000006381     0x1458 /home/lixx/ZGCX/S1_Project/SSC308QE_SDK/Iford_IMD00V005.0.1_fastboot/SourceCode/SSC308QE_SDK_TEXT/SSC308QE_CODEBASE/sdk/linux/init/aio/../../obj/uclibc/9.1.0/aio.o
 .debug_abbrev  0x00000000000077d9      0x72d /home/lixx/ZGCX/S1_Project/SSC308QE_SDK/Iford_IMD00V005.0.1_fastboot/SourceCode/SSC308QE_SDK_TEXT/SSC308QE_CODEBASE/sdk/linux/init/aio/aio_init.o
 .debug_abbrev  0x0000000000007f06     0x5243 /home/lixx/ZGCX/S1_Project/SSC308QE_SDK/Iford_IMD00V005.0.1_fastboot/SourceCode/SSC308QE_SDK_TEXT/SSC308QE_CODEBASE/sdk/linux/init/rgn/../../obj/uclibc/9.1.0/rgn.o
 .debug_abbrev  0x000000000000d149      0x633 /home/lixx/ZGCX/S1_Project/SSC308QE_SDK/Iford_IMD00V005.0.1_fastboot/SourceCode/SSC308QE_SDK_TEXT/SSC308QE_CODEBASE/sdk/linux/init/rgn/rgn_init.o
 .debug_abbrev  0x000000000000d77c     0x245f /home/lixx/ZGCX/S1_Project/SSC308QE_SDK/Iford_IMD00V005.0.1_fastboot/SourceCode/SSC308QE_SDK_TEXT/SSC308QE_CODEBASE/sdk/linux/init/ive/../../obj/uclibc/9.1.0/ive.o
 .debug_abbrev  0x000000000000fbdb      0x633 /home/lixx/ZGCX/S1_Project/SSC308QE_SDK/Iford_IMD00V005.0.1_fastboot/SourceCode/SSC308QE_SDK_TEXT/SSC308QE_CODEBASE/sdk/linux/init/ive/ive_init.o
 .debug_abbrev  0x000000000001020e      0xd58 /home/lixx/ZGCX/S1_Project/SSC308QE_SDK/Iford_IMD00V005.0.1_fastboot/SourceCode/SSC308QE_SDK_TEXT/SSC308QE_CODEBASE/sdk/linux/init/ao/../../obj/uclibc/9.1.0/ao.o
 .debug_abbrev  0x0000000000010f66      0x49b /home/lixx/ZGCX/S1_Project/SSC308QE_SDK/Iford_IMD00V005.0.1_fastboot/SourceCode/SSC308QE_SDK_TEXT/SSC308QE_CODEBASE/sdk/linux/init/ao/ao_init.o
 .debug_abbrev  0x0000000000011401      0xb16 /home/lixx/ZGCX/S1_Project/SSC308QE_SDK/Iford_IMD00V005.0.1_fastboot/SourceCode/SSC308QE_SDK_TEXT/SSC308QE_CODEBASE/sdk/linux/init/shadow/../../obj/uclibc/9.1.0/shadow.o
 .debug_abbrev  0x0000000000011f17      0x49b /home/lixx/ZGCX/S1_Project/SSC308QE_SDK/Iford_IMD00V005.0.1_fastboot/SourceCode/SSC308QE_SDK_TEXT/SSC308QE_CODEBASE/sdk/linux/init/shadow/shadow_init.o
 .debug_abbrev  0x00000000000123b2     0xa74c /home/lixx/ZGCX/S1_Project/SSC308QE_SDK/Iford_IMD00V005.0.1_fastboot/SourceCode/SSC308QE_SDK_TEXT/SSC308QE_CODEBASE/sdk/linux/init/isp/../../obj/uclibc/9.1.0/isp.o
 .debug_abbrev  0x000000000001cafe      0x821 /home/lixx/ZGCX/S1_Project/SSC308QE_SDK/Iford_IMD00V005.0.1_fastboot/SourceCode/SSC308QE_SDK_TEXT/SSC308QE_CODEBASE/sdk/linux/init/isp/isp_init.o
 .debug_abbrev  0x000000000001d31f      0x8c9 /home/lixx/ZGCX/S1_Project/SSC308QE_SDK/Iford_IMD00V005.0.1_fastboot/SourceCode/SSC308QE_SDK_TEXT/SSC308QE_CODEBASE/sdk/linux/init/isp/ispmid_init.o
 .debug_abbrev  0x000000000001dbe8      0x57d /home/lixx/ZGCX/S1_Project/SSC308QE_SDK/Iford_IMD00V005.0.1_fastboot/SourceCode/SSC308QE_SDK_TEXT/SSC308QE_CODEBASE/sdk/linux/init/isp/mload_init.o
 .debug_abbrev  0x000000000001e165     0x3b38 /home/lixx/ZGCX/S1_Project/SSC308QE_SDK/Iford_IMD00V005.0.1_fastboot/SourceCode/SSC308QE_SDK_TEXT/SSC308QE_CODEBASE/sdk/linux/init/ipu/../../obj/uclibc/9.1.0/ipu.o
 .debug_abbrev  0x0000000000021c9d      0x6b9 /home/lixx/ZGCX/S1_Project/SSC308QE_SDK/Iford_IMD00V005.0.1_fastboot/SourceCode/SSC308QE_SDK_TEXT/SSC308QE_CODEBASE/sdk/linux/init/ipu/ipu_init.o
 .debug_abbrev  0x0000000000022356     0x89ce /home/lixx/ZGCX/S1_Project/SSC308QE_SDK/Iford_IMD00V005.0.1_fastboot/SourceCode/SSC308QE_SDK_TEXT/SSC308QE_CODEBASE/sdk/linux/init/sys/../../obj/uclibc/9.1.0/sys.o
 .debug_abbrev  0x000000000002ad24      0x42d /home/lixx/ZGCX/S1_Project/SSC308QE_SDK/Iford_IMD00V005.0.1_fastboot/SourceCode/SSC308QE_SDK_TEXT/SSC308QE_CODEBASE/sdk/linux/init/sys/cmdq_export.o
 .debug_abbrev  0x000000000002b151      0x649 /home/lixx/ZGCX/S1_Project/SSC308QE_SDK/Iford_IMD00V005.0.1_fastboot/SourceCode/SSC308QE_SDK_TEXT/SSC308QE_CODEBASE/sdk/linux/init/sys/cmdq_init.o
 .debug_abbrev  0x000000000002b79a      0xa76 /home/lixx/ZGCX/S1_Project/SSC308QE_SDK/Iford_IMD00V005.0.1_fastboot/SourceCode/SSC308QE_SDK_TEXT/SSC308QE_CODEBASE/sdk/linux/init/sys/sys_init.o
 .debug_abbrev  0x000000000002c210     0x40be /home/lixx/ZGCX/S1_Project/SSC308QE_SDK/Iford_IMD00V005.0.1_fastboot/SourceCode/SSC308QE_SDK_TEXT/SSC308QE_CODEBASE/sdk/linux/init/disp/../../obj/uclibc/9.1.0/disp.o
 .debug_abbrev  0x00000000000302ce      0x777 /home/lixx/ZGCX/S1_Project/SSC308QE_SDK/Iford_IMD00V005.0.1_fastboot/SourceCode/SSC308QE_SDK_TEXT/SSC308QE_CODEBASE/sdk/linux/init/disp/disp_init.o
 .debug_abbrev  0x0000000000030a45     0x3f70 /home/lixx/ZGCX/S1_Project/SSC308QE_SDK/Iford_IMD00V005.0.1_fastboot/SourceCode/SSC308QE_SDK_TEXT/SSC308QE_CODEBASE/sdk/linux/init/vif/../../obj/uclibc/9.1.0/vif.o
 .debug_abbrev  0x00000000000349b5      0x42d /home/lixx/ZGCX/S1_Project/SSC308QE_SDK/Iford_IMD00V005.0.1_fastboot/SourceCode/SSC308QE_SDK_TEXT/SSC308QE_CODEBASE/sdk/linux/init/vif/vif_export.o
 .debug_abbrev  0x0000000000034de2      0x93f /home/lixx/ZGCX/S1_Project/SSC308QE_SDK/Iford_IMD00V005.0.1_fastboot/SourceCode/SSC308QE_SDK_TEXT/SSC308QE_CODEBASE/sdk/linux/init/vif/vif_init.o
 .debug_abbrev  0x0000000000035721     0x1601 /home/lixx/ZGCX/S1_Project/SSC308QE_SDK/Iford_IMD00V005.0.1_fastboot/SourceCode/SSC308QE_SDK_TEXT/SSC308QE_CODEBASE/sdk/linux/init/common/../../obj/uclibc/9.1.0/common.o
 .debug_abbrev  0x0000000000036d22      0x5d8 /home/lixx/ZGCX/S1_Project/SSC308QE_SDK/Iford_IMD00V005.0.1_fastboot/SourceCode/SSC308QE_SDK_TEXT/SSC308QE_CODEBASE/sdk/linux/init/common/common_init.o
 .debug_abbrev  0x00000000000372fa      0xd3d /home/lixx/ZGCX/S1_Project/SSC308QE_SDK/Iford_IMD00V005.0.1_fastboot/SourceCode/SSC308QE_SDK_TEXT/SSC308QE_CODEBASE/sdk/linux/init/ai/../../obj/uclibc/9.1.0/ai.o
 .debug_abbrev  0x0000000000038037      0x59e /home/lixx/ZGCX/S1_Project/SSC308QE_SDK/Iford_IMD00V005.0.1_fastboot/SourceCode/SSC308QE_SDK_TEXT/SSC308QE_CODEBASE/sdk/linux/init/ai/ai_init.o
 .debug_abbrev  0x00000000000385d5     0xb1ae /home/lixx/ZGCX/S1_Project/SSC308QE_SDK/Iford_IMD00V005.0.1_fastboot/SourceCode/SSC308QE_SDK_TEXT/SSC308QE_CODEBASE/sdk/linux/init/venc/../../obj/uclibc/9.1.0/venc.o
 .debug_abbrev  0x0000000000043783      0x669 /home/lixx/ZGCX/S1_Project/SSC308QE_SDK/Iford_IMD00V005.0.1_fastboot/SourceCode/SSC308QE_SDK_TEXT/SSC308QE_CODEBASE/sdk/linux/init/venc/venc_init.o
 .debug_abbrev  0x0000000000043dec     0x1f05 /home/lixx/ZGCX/S1_Project/SSC308QE_SDK/Iford_IMD00V005.0.1_fastboot/SourceCode/SSC308QE_SDK_TEXT/SSC308QE_CODEBASE/sdk/linux/init/scl/../../obj/uclibc/9.1.0/scl.o
 .debug_abbrev  0x0000000000045cf1       0x1b /home/lixx/ZGCX/S1_Project/SSC308QE_SDK/Iford_IMD00V005.0.1_fastboot/SourceCode/SSC308QE_SDK_TEXT/SSC308QE_CODEBASE/sdk/linux/init/scl/scl_export.o
 .debug_abbrev  0x0000000000045d0c      0x60d /home/lixx/ZGCX/S1_Project/SSC308QE_SDK/Iford_IMD00V005.0.1_fastboot/SourceCode/SSC308QE_SDK_TEXT/SSC308QE_CODEBASE/sdk/linux/init/scl/scl_init.o

.debug_line     0x0000000000000000   0x176826
 *(.debug_line)
 .debug_line    0x0000000000000000     0xf78f /home/lixx/ZGCX/S1_Project/SSC308QE_SDK/Iford_IMD00V005.0.1_fastboot/SourceCode/SSC308QE_SDK_TEXT/SSC308QE_CODEBASE/sdk/linux/init/sensor/../../obj/uclibc/9.1.0/sensor.o
 .debug_line    0x000000000000f78f      0xf5a /home/lixx/ZGCX/S1_Project/SSC308QE_SDK/Iford_IMD00V005.0.1_fastboot/SourceCode/SSC308QE_SDK_TEXT/SSC308QE_CODEBASE/sdk/linux/init/sensor/csi_init.o
 .debug_line    0x00000000000106e9      0x540 /home/lixx/ZGCX/S1_Project/SSC308QE_SDK/Iford_IMD00V005.0.1_fastboot/SourceCode/SSC308QE_SDK_TEXT/SSC308QE_CODEBASE/sdk/linux/init/sensor/sensor_export.o
 .debug_line    0x0000000000010c29     0x1012 /home/lixx/ZGCX/S1_Project/SSC308QE_SDK/Iford_IMD00V005.0.1_fastboot/SourceCode/SSC308QE_SDK_TEXT/SSC308QE_CODEBASE/sdk/linux/init/sensor/sensor_init.o
 .debug_line    0x0000000000011c3b     0x9707 /home/lixx/ZGCX/S1_Project/SSC308QE_SDK/Iford_IMD00V005.0.1_fastboot/SourceCode/SSC308QE_SDK_TEXT/SSC308QE_CODEBASE/sdk/linux/init/aio/../../obj/uclibc/9.1.0/aio.o
 .debug_line    0x000000000001b342      0xda6 /home/lixx/ZGCX/S1_Project/SSC308QE_SDK/Iford_IMD00V005.0.1_fastboot/SourceCode/SSC308QE_SDK_TEXT/SSC308QE_CODEBASE/sdk/linux/init/aio/aio_init.o
 .debug_line    0x000000000001c0e8    0x14cad /home/lixx/ZGCX/S1_Project/SSC308QE_SDK/Iford_IMD00V005.0.1_fastboot/SourceCode/SSC308QE_SDK_TEXT/SSC308QE_CODEBASE/sdk/linux/init/rgn/../../obj/uclibc/9.1.0/rgn.o
 .debug_line    0x0000000000030d95      0xb4f /home/lixx/ZGCX/S1_Project/SSC308QE_SDK/Iford_IMD00V005.0.1_fastboot/SourceCode/SSC308QE_SDK_TEXT/SSC308QE_CODEBASE/sdk/linux/init/rgn/rgn_init.o
 .debug_line    0x00000000000318e4     0x7b1d /home/lixx/ZGCX/S1_Project/SSC308QE_SDK/Iford_IMD00V005.0.1_fastboot/SourceCode/SSC308QE_SDK_TEXT/SSC308QE_CODEBASE/sdk/linux/init/ive/../../obj/uclibc/9.1.0/ive.o
 .debug_line    0x0000000000039401      0xa2b /home/lixx/ZGCX/S1_Project/SSC308QE_SDK/Iford_IMD00V005.0.1_fastboot/SourceCode/SSC308QE_SDK_TEXT/SSC308QE_CODEBASE/sdk/linux/init/ive/ive_init.o
 .debug_line    0x0000000000039e2c     0x62c1 /home/lixx/ZGCX/S1_Project/SSC308QE_SDK/Iford_IMD00V005.0.1_fastboot/SourceCode/SSC308QE_SDK_TEXT/SSC308QE_CODEBASE/sdk/linux/init/ao/../../obj/uclibc/9.1.0/ao.o
 .debug_line    0x00000000000400ed      0x601 /home/lixx/ZGCX/S1_Project/SSC308QE_SDK/Iford_IMD00V005.0.1_fastboot/SourceCode/SSC308QE_SDK_TEXT/SSC308QE_CODEBASE/sdk/linux/init/ao/ao_init.o
 .debug_line    0x00000000000406ee     0x29ab /home/lixx/ZGCX/S1_Project/SSC308QE_SDK/Iford_IMD00V005.0.1_fastboot/SourceCode/SSC308QE_SDK_TEXT/SSC308QE_CODEBASE/sdk/linux/init/shadow/../../obj/uclibc/9.1.0/shadow.o
 .debug_line    0x0000000000043099      0x60d /home/lixx/ZGCX/S1_Project/SSC308QE_SDK/Iford_IMD00V005.0.1_fastboot/SourceCode/SSC308QE_SDK_TEXT/SSC308QE_CODEBASE/sdk/linux/init/shadow/shadow_init.o
 .debug_line    0x00000000000436a6    0x6664a /home/lixx/ZGCX/S1_Project/SSC308QE_SDK/Iford_IMD00V005.0.1_fastboot/SourceCode/SSC308QE_SDK_TEXT/SSC308QE_CODEBASE/sdk/linux/init/isp/../../obj/uclibc/9.1.0/isp.o
 .debug_line    0x00000000000a9cf0      0xf11 /home/lixx/ZGCX/S1_Project/SSC308QE_SDK/Iford_IMD00V005.0.1_fastboot/SourceCode/SSC308QE_SDK_TEXT/SSC308QE_CODEBASE/sdk/linux/init/isp/isp_init.o
 .debug_line    0x00000000000aac01     0x1546 /home/lixx/ZGCX/S1_Project/SSC308QE_SDK/Iford_IMD00V005.0.1_fastboot/SourceCode/SSC308QE_SDK_TEXT/SSC308QE_CODEBASE/sdk/linux/init/isp/ispmid_init.o
 .debug_line    0x00000000000ac147      0xa45 /home/lixx/ZGCX/S1_Project/SSC308QE_SDK/Iford_IMD00V005.0.1_fastboot/SourceCode/SSC308QE_SDK_TEXT/SSC308QE_CODEBASE/sdk/linux/init/isp/mload_init.o
 .debug_line    0x00000000000acb8c     0xab73 /home/lixx/ZGCX/S1_Project/SSC308QE_SDK/Iford_IMD00V005.0.1_fastboot/SourceCode/SSC308QE_SDK_TEXT/SSC308QE_CODEBASE/sdk/linux/init/ipu/../../obj/uclibc/9.1.0/ipu.o
 .debug_line    0x00000000000b76ff      0xb82 /home/lixx/ZGCX/S1_Project/SSC308QE_SDK/Iford_IMD00V005.0.1_fastboot/SourceCode/SSC308QE_SDK_TEXT/SSC308QE_CODEBASE/sdk/linux/init/ipu/ipu_init.o
 .debug_line    0x00000000000b8281    0x2ce69 /home/lixx/ZGCX/S1_Project/SSC308QE_SDK/Iford_IMD00V005.0.1_fastboot/SourceCode/SSC308QE_SDK_TEXT/SSC308QE_CODEBASE/sdk/linux/init/sys/../../obj/uclibc/9.1.0/sys.o
 .debug_line    0x00000000000e50ea      0x53b /home/lixx/ZGCX/S1_Project/SSC308QE_SDK/Iford_IMD00V005.0.1_fastboot/SourceCode/SSC308QE_SDK_TEXT/SSC308QE_CODEBASE/sdk/linux/init/sys/cmdq_export.o
 .debug_line    0x00000000000e5625      0xa6f /home/lixx/ZGCX/S1_Project/SSC308QE_SDK/Iford_IMD00V005.0.1_fastboot/SourceCode/SSC308QE_SDK_TEXT/SSC308QE_CODEBASE/sdk/linux/init/sys/cmdq_init.o
 .debug_line    0x00000000000e6094     0x19e8 /home/lixx/ZGCX/S1_Project/SSC308QE_SDK/Iford_IMD00V005.0.1_fastboot/SourceCode/SSC308QE_SDK_TEXT/SSC308QE_CODEBASE/sdk/linux/init/sys/sys_init.o
 .debug_line    0x00000000000e7a7c    0x1986b /home/lixx/ZGCX/S1_Project/SSC308QE_SDK/Iford_IMD00V005.0.1_fastboot/SourceCode/SSC308QE_SDK_TEXT/SSC308QE_CODEBASE/sdk/linux/init/disp/../../obj/uclibc/9.1.0/disp.o
 .debug_line    0x00000000001012e7     0x102d /home/lixx/ZGCX/S1_Project/SSC308QE_SDK/Iford_IMD00V005.0.1_fastboot/SourceCode/SSC308QE_SDK_TEXT/SSC308QE_CODEBASE/sdk/linux/init/disp/disp_init.o
 .debug_line    0x0000000000102314    0x153d5 /home/lixx/ZGCX/S1_Project/SSC308QE_SDK/Iford_IMD00V005.0.1_fastboot/SourceCode/SSC308QE_SDK_TEXT/SSC308QE_CODEBASE/sdk/linux/init/vif/../../obj/uclibc/9.1.0/vif.o
 .debug_line    0x00000000001176e9      0x53a /home/lixx/ZGCX/S1_Project/SSC308QE_SDK/Iford_IMD00V005.0.1_fastboot/SourceCode/SSC308QE_SDK_TEXT/SSC308QE_CODEBASE/sdk/linux/init/vif/vif_export.o
 .debug_line    0x0000000000117c23     0x117c /home/lixx/ZGCX/S1_Project/SSC308QE_SDK/Iford_IMD00V005.0.1_fastboot/SourceCode/SSC308QE_SDK_TEXT/SSC308QE_CODEBASE/sdk/linux/init/vif/vif_init.o
 .debug_line    0x0000000000118d9f     0x4340 /home/lixx/ZGCX/S1_Project/SSC308QE_SDK/Iford_IMD00V005.0.1_fastboot/SourceCode/SSC308QE_SDK_TEXT/SSC308QE_CODEBASE/sdk/linux/init/common/../../obj/uclibc/9.1.0/common.o
 .debug_line    0x000000000011d0df      0x9cd /home/lixx/ZGCX/S1_Project/SSC308QE_SDK/Iford_IMD00V005.0.1_fastboot/SourceCode/SSC308QE_SDK_TEXT/SSC308QE_CODEBASE/sdk/linux/init/common/common_init.o
 .debug_line    0x000000000011daac     0x6340 /home/lixx/ZGCX/S1_Project/SSC308QE_SDK/Iford_IMD00V005.0.1_fastboot/SourceCode/SSC308QE_SDK_TEXT/SSC308QE_CODEBASE/sdk/linux/init/ai/../../obj/uclibc/9.1.0/ai.o
 .debug_line    0x0000000000123dec      0x91b /home/lixx/ZGCX/S1_Project/SSC308QE_SDK/Iford_IMD00V005.0.1_fastboot/SourceCode/SSC308QE_SDK_TEXT/SSC308QE_CODEBASE/sdk/linux/init/ai/ai_init.o
 .debug_line    0x0000000000124707    0x3e51c /home/lixx/ZGCX/S1_Project/SSC308QE_SDK/Iford_IMD00V005.0.1_fastboot/SourceCode/SSC308QE_SDK_TEXT/SSC308QE_CODEBASE/sdk/linux/init/venc/../../obj/uclibc/9.1.0/venc.o
 .debug_line    0x0000000000162c23      0xb9b /home/lixx/ZGCX/S1_Project/SSC308QE_SDK/Iford_IMD00V005.0.1_fastboot/SourceCode/SSC308QE_SDK_TEXT/SSC308QE_CODEBASE/sdk/linux/init/venc/venc_init.o
 .debug_line    0x00000000001637be    0x12570 /home/lixx/ZGCX/S1_Project/SSC308QE_SDK/Iford_IMD00V005.0.1_fastboot/SourceCode/SSC308QE_SDK_TEXT/SSC308QE_CODEBASE/sdk/linux/init/scl/../../obj/uclibc/9.1.0/scl.o
 .debug_line    0x0000000000175d2e       0x1d /home/lixx/ZGCX/S1_Project/SSC308QE_SDK/Iford_IMD00V005.0.1_fastboot/SourceCode/SSC308QE_SDK_TEXT/SSC308QE_CODEBASE/sdk/linux/init/scl/scl_export.o
 .debug_line    0x0000000000175d4b      0xadb /home/lixx/ZGCX/S1_Project/SSC308QE_SDK/Iford_IMD00V005.0.1_fastboot/SourceCode/SSC308QE_SDK_TEXT/SSC308QE_CODEBASE/sdk/linux/init/scl/scl_init.o

.debug_frame    0x0000000000000000    0x4b3f8
 *(.debug_frame)
 .debug_frame   0x0000000000000000     0x3044 /home/lixx/ZGCX/S1_Project/SSC308QE_SDK/Iford_IMD00V005.0.1_fastboot/SourceCode/SSC308QE_SDK_TEXT/SSC308QE_CODEBASE/sdk/linux/init/sensor/../../obj/uclibc/9.1.0/sensor.o
 .debug_frame   0x0000000000003044      0x170 /home/lixx/ZGCX/S1_Project/SSC308QE_SDK/Iford_IMD00V005.0.1_fastboot/SourceCode/SSC308QE_SDK_TEXT/SSC308QE_CODEBASE/sdk/linux/init/sensor/csi_init.o
 .debug_frame   0x00000000000031b4      0x194 /home/lixx/ZGCX/S1_Project/SSC308QE_SDK/Iford_IMD00V005.0.1_fastboot/SourceCode/SSC308QE_SDK_TEXT/SSC308QE_CODEBASE/sdk/linux/init/sensor/sensor_init.o
 .debug_frame   0x0000000000003348     0x2880 /home/lixx/ZGCX/S1_Project/SSC308QE_SDK/Iford_IMD00V005.0.1_fastboot/SourceCode/SSC308QE_SDK_TEXT/SSC308QE_CODEBASE/sdk/linux/init/aio/../../obj/uclibc/9.1.0/aio.o
 .debug_frame   0x0000000000005bc8       0xec /home/lixx/ZGCX/S1_Project/SSC308QE_SDK/Iford_IMD00V005.0.1_fastboot/SourceCode/SSC308QE_SDK_TEXT/SSC308QE_CODEBASE/sdk/linux/init/aio/aio_init.o
 .debug_frame   0x0000000000005cb4     0x4848 /home/lixx/ZGCX/S1_Project/SSC308QE_SDK/Iford_IMD00V005.0.1_fastboot/SourceCode/SSC308QE_SDK_TEXT/SSC308QE_CODEBASE/sdk/linux/init/rgn/../../obj/uclibc/9.1.0/rgn.o
 .debug_frame   0x000000000000a4fc       0x80 /home/lixx/ZGCX/S1_Project/SSC308QE_SDK/Iford_IMD00V005.0.1_fastboot/SourceCode/SSC308QE_SDK_TEXT/SSC308QE_CODEBASE/sdk/linux/init/rgn/rgn_init.o
 .debug_frame   0x000000000000a57c     0x1f6c /home/lixx/ZGCX/S1_Project/SSC308QE_SDK/Iford_IMD00V005.0.1_fastboot/SourceCode/SSC308QE_SDK_TEXT/SSC308QE_CODEBASE/sdk/linux/init/ive/../../obj/uclibc/9.1.0/ive.o
 .debug_frame   0x000000000000c4e8       0x80 /home/lixx/ZGCX/S1_Project/SSC308QE_SDK/Iford_IMD00V005.0.1_fastboot/SourceCode/SSC308QE_SDK_TEXT/SSC308QE_CODEBASE/sdk/linux/init/ive/ive_init.o
 .debug_frame   0x000000000000c568     0x1718 /home/lixx/ZGCX/S1_Project/SSC308QE_SDK/Iford_IMD00V005.0.1_fastboot/SourceCode/SSC308QE_SDK_TEXT/SSC308QE_CODEBASE/sdk/linux/init/ao/../../obj/uclibc/9.1.0/ao.o
 .debug_frame   0x000000000000dc80       0x30 /home/lixx/ZGCX/S1_Project/SSC308QE_SDK/Iford_IMD00V005.0.1_fastboot/SourceCode/SSC308QE_SDK_TEXT/SSC308QE_CODEBASE/sdk/linux/init/ao/ao_init.o
 .debug_frame   0x000000000000dcb0      0x9e4 /home/lixx/ZGCX/S1_Project/SSC308QE_SDK/Iford_IMD00V005.0.1_fastboot/SourceCode/SSC308QE_SDK_TEXT/SSC308QE_CODEBASE/sdk/linux/init/shadow/../../obj/uclibc/9.1.0/shadow.o
 .debug_frame   0x000000000000e694       0x30 /home/lixx/ZGCX/S1_Project/SSC308QE_SDK/Iford_IMD00V005.0.1_fastboot/SourceCode/SSC308QE_SDK_TEXT/SSC308QE_CODEBASE/sdk/linux/init/shadow/shadow_init.o
 .debug_frame   0x000000000000e6c4    0x132f0 /home/lixx/ZGCX/S1_Project/SSC308QE_SDK/Iford_IMD00V005.0.1_fastboot/SourceCode/SSC308QE_SDK_TEXT/SSC308QE_CODEBASE/sdk/linux/init/isp/../../obj/uclibc/9.1.0/isp.o
 .debug_frame   0x00000000000219b4      0x18c /home/lixx/ZGCX/S1_Project/SSC308QE_SDK/Iford_IMD00V005.0.1_fastboot/SourceCode/SSC308QE_SDK_TEXT/SSC308QE_CODEBASE/sdk/linux/init/isp/isp_init.o
 .debug_frame   0x0000000000021b40      0x304 /home/lixx/ZGCX/S1_Project/SSC308QE_SDK/Iford_IMD00V005.0.1_fastboot/SourceCode/SSC308QE_SDK_TEXT/SSC308QE_CODEBASE/sdk/linux/init/isp/ispmid_init.o
 .debug_frame   0x0000000000021e44       0x3c /home/lixx/ZGCX/S1_Project/SSC308QE_SDK/Iford_IMD00V005.0.1_fastboot/SourceCode/SSC308QE_SDK_TEXT/SSC308QE_CODEBASE/sdk/linux/init/isp/mload_init.o
 .debug_frame   0x0000000000021e80     0x2248 /home/lixx/ZGCX/S1_Project/SSC308QE_SDK/Iford_IMD00V005.0.1_fastboot/SourceCode/SSC308QE_SDK_TEXT/SSC308QE_CODEBASE/sdk/linux/init/ipu/../../obj/uclibc/9.1.0/ipu.o
 .debug_frame   0x00000000000240c8       0xa4 /home/lixx/ZGCX/S1_Project/SSC308QE_SDK/Iford_IMD00V005.0.1_fastboot/SourceCode/SSC308QE_SDK_TEXT/SSC308QE_CODEBASE/sdk/linux/init/ipu/ipu_init.o
 .debug_frame   0x000000000002416c     0x9548 /home/lixx/ZGCX/S1_Project/SSC308QE_SDK/Iford_IMD00V005.0.1_fastboot/SourceCode/SSC308QE_SDK_TEXT/SSC308QE_CODEBASE/sdk/linux/init/sys/../../obj/uclibc/9.1.0/sys.o
 .debug_frame   0x000000000002d6b4       0x68 /home/lixx/ZGCX/S1_Project/SSC308QE_SDK/Iford_IMD00V005.0.1_fastboot/SourceCode/SSC308QE_SDK_TEXT/SSC308QE_CODEBASE/sdk/linux/init/sys/cmdq_init.o
 .debug_frame   0x000000000002d71c      0x2e8 /home/lixx/ZGCX/S1_Project/SSC308QE_SDK/Iford_IMD00V005.0.1_fastboot/SourceCode/SSC308QE_SDK_TEXT/SSC308QE_CODEBASE/sdk/linux/init/sys/sys_init.o
 .debug_frame   0x000000000002da04     0x6c34 /home/lixx/ZGCX/S1_Project/SSC308QE_SDK/Iford_IMD00V005.0.1_fastboot/SourceCode/SSC308QE_SDK_TEXT/SSC308QE_CODEBASE/sdk/linux/init/disp/../../obj/uclibc/9.1.0/disp.o
 .debug_frame   0x0000000000034638      0x140 /home/lixx/ZGCX/S1_Project/SSC308QE_SDK/Iford_IMD00V005.0.1_fastboot/SourceCode/SSC308QE_SDK_TEXT/SSC308QE_CODEBASE/sdk/linux/init/disp/disp_init.o
 .debug_frame   0x0000000000034778     0x5908 /home/lixx/ZGCX/S1_Project/SSC308QE_SDK/Iford_IMD00V005.0.1_fastboot/SourceCode/SSC308QE_SDK_TEXT/SSC308QE_CODEBASE/sdk/linux/init/vif/../../obj/uclibc/9.1.0/vif.o
 .debug_frame   0x000000000003a080      0x1d8 /home/lixx/ZGCX/S1_Project/SSC308QE_SDK/Iford_IMD00V005.0.1_fastboot/SourceCode/SSC308QE_SDK_TEXT/SSC308QE_CODEBASE/sdk/linux/init/vif/vif_init.o
 .debug_frame   0x000000000003a258     0x1260 /home/lixx/ZGCX/S1_Project/SSC308QE_SDK/Iford_IMD00V005.0.1_fastboot/SourceCode/SSC308QE_SDK_TEXT/SSC308QE_CODEBASE/sdk/linux/init/common/../../obj/uclibc/9.1.0/common.o
 .debug_frame   0x000000000003b4b8       0x70 /home/lixx/ZGCX/S1_Project/SSC308QE_SDK/Iford_IMD00V005.0.1_fastboot/SourceCode/SSC308QE_SDK_TEXT/SSC308QE_CODEBASE/sdk/linux/init/common/common_init.o
 .debug_frame   0x000000000003b528     0x16d8 /home/lixx/ZGCX/S1_Project/SSC308QE_SDK/Iford_IMD00V005.0.1_fastboot/SourceCode/SSC308QE_SDK_TEXT/SSC308QE_CODEBASE/sdk/linux/init/ai/../../obj/uclibc/9.1.0/ai.o
 .debug_frame   0x000000000003cc00       0x30 /home/lixx/ZGCX/S1_Project/SSC308QE_SDK/Iford_IMD00V005.0.1_fastboot/SourceCode/SSC308QE_SDK_TEXT/SSC308QE_CODEBASE/sdk/linux/init/ai/ai_init.o
 .debug_frame   0x000000000003cc30     0x9f78 /home/lixx/ZGCX/S1_Project/SSC308QE_SDK/Iford_IMD00V005.0.1_fastboot/SourceCode/SSC308QE_SDK_TEXT/SSC308QE_CODEBASE/sdk/linux/init/venc/../../obj/uclibc/9.1.0/venc.o
 .debug_frame   0x0000000000046ba8      0x104 /home/lixx/ZGCX/S1_Project/SSC308QE_SDK/Iford_IMD00V005.0.1_fastboot/SourceCode/SSC308QE_SDK_TEXT/SSC308QE_CODEBASE/sdk/linux/init/venc/venc_init.o
 .debug_frame   0x0000000000046cac     0x46d4 /home/lixx/ZGCX/S1_Project/SSC308QE_SDK/Iford_IMD00V005.0.1_fastboot/SourceCode/SSC308QE_SDK_TEXT/SSC308QE_CODEBASE/sdk/linux/init/scl/../../obj/uclibc/9.1.0/scl.o
 .debug_frame   0x000000000004b380       0x78 /home/lixx/ZGCX/S1_Project/SSC308QE_SDK/Iford_IMD00V005.0.1_fastboot/SourceCode/SSC308QE_SDK_TEXT/SSC308QE_CODEBASE/sdk/linux/init/scl/scl_init.o

.debug_str      0x0000000000000000   0x8148c0
 *(.debug_str)
 .debug_str     0x0000000000000000    0x6b5a9 /home/lixx/ZGCX/S1_Project/SSC308QE_SDK/Iford_IMD00V005.0.1_fastboot/SourceCode/SSC308QE_SDK_TEXT/SSC308QE_CODEBASE/sdk/linux/init/sensor/../../obj/uclibc/9.1.0/sensor.o
 .debug_str     0x000000000006b5a9     0x7ed0 /home/lixx/ZGCX/S1_Project/SSC308QE_SDK/Iford_IMD00V005.0.1_fastboot/SourceCode/SSC308QE_SDK_TEXT/SSC308QE_CODEBASE/sdk/linux/init/sensor/csi_init.o
 .debug_str     0x0000000000073479     0x365e /home/lixx/ZGCX/S1_Project/SSC308QE_SDK/Iford_IMD00V005.0.1_fastboot/SourceCode/SSC308QE_SDK_TEXT/SSC308QE_CODEBASE/sdk/linux/init/sensor/sensor_export.o
 .debug_str     0x0000000000076ad7     0x8c9c /home/lixx/ZGCX/S1_Project/SSC308QE_SDK/Iford_IMD00V005.0.1_fastboot/SourceCode/SSC308QE_SDK_TEXT/SSC308QE_CODEBASE/sdk/linux/init/sensor/sensor_init.o
 .debug_str     0x000000000007f773     0xd6bb /home/lixx/ZGCX/S1_Project/SSC308QE_SDK/Iford_IMD00V005.0.1_fastboot/SourceCode/SSC308QE_SDK_TEXT/SSC308QE_CODEBASE/sdk/linux/init/aio/../../obj/uclibc/9.1.0/aio.o
 .debug_str     0x000000000008ce2e     0x65ae /home/lixx/ZGCX/S1_Project/SSC308QE_SDK/Iford_IMD00V005.0.1_fastboot/SourceCode/SSC308QE_SDK_TEXT/SSC308QE_CODEBASE/sdk/linux/init/aio/aio_init.o
 .debug_str     0x00000000000933dc    0x6f2bf /home/lixx/ZGCX/S1_Project/SSC308QE_SDK/Iford_IMD00V005.0.1_fastboot/SourceCode/SSC308QE_SDK_TEXT/SSC308QE_CODEBASE/sdk/linux/init/rgn/../../obj/uclibc/9.1.0/rgn.o
 .debug_str     0x000000000010269b     0x5fbf /home/lixx/ZGCX/S1_Project/SSC308QE_SDK/Iford_IMD00V005.0.1_fastboot/SourceCode/SSC308QE_SDK_TEXT/SSC308QE_CODEBASE/sdk/linux/init/rgn/rgn_init.o
 .debug_str     0x000000000010865a    0x2eb52 /home/lixx/ZGCX/S1_Project/SSC308QE_SDK/Iford_IMD00V005.0.1_fastboot/SourceCode/SSC308QE_SDK_TEXT/SSC308QE_CODEBASE/sdk/linux/init/ive/../../obj/uclibc/9.1.0/ive.o
 .debug_str     0x00000000001371ac     0x5f23 /home/lixx/ZGCX/S1_Project/SSC308QE_SDK/Iford_IMD00V005.0.1_fastboot/SourceCode/SSC308QE_SDK_TEXT/SSC308QE_CODEBASE/sdk/linux/init/ive/ive_init.o
 .debug_str     0x000000000013d0cf    0x10392 /home/lixx/ZGCX/S1_Project/SSC308QE_SDK/Iford_IMD00V005.0.1_fastboot/SourceCode/SSC308QE_SDK_TEXT/SSC308QE_CODEBASE/sdk/linux/init/ao/../../obj/uclibc/9.1.0/ao.o
 .debug_str     0x000000000014d461     0x2fc1 /home/lixx/ZGCX/S1_Project/SSC308QE_SDK/Iford_IMD00V005.0.1_fastboot/SourceCode/SSC308QE_SDK_TEXT/SSC308QE_CODEBASE/sdk/linux/init/ao/ao_init.o
 .debug_str     0x0000000000150422     0xbedc /home/lixx/ZGCX/S1_Project/SSC308QE_SDK/Iford_IMD00V005.0.1_fastboot/SourceCode/SSC308QE_SDK_TEXT/SSC308QE_CODEBASE/sdk/linux/init/shadow/../../obj/uclibc/9.1.0/shadow.o
 .debug_str     0x000000000015c2fe     0x2fd9 /home/lixx/ZGCX/S1_Project/SSC308QE_SDK/Iford_IMD00V005.0.1_fastboot/SourceCode/SSC308QE_SDK_TEXT/SSC308QE_CODEBASE/sdk/linux/init/shadow/shadow_init.o
 .debug_str     0x000000000015f2d7   0x32abd5 /home/lixx/ZGCX/S1_Project/SSC308QE_SDK/Iford_IMD00V005.0.1_fastboot/SourceCode/SSC308QE_SDK_TEXT/SSC308QE_CODEBASE/sdk/linux/init/isp/../../obj/uclibc/9.1.0/isp.o
 .debug_str     0x0000000000489eac     0x8c75 /home/lixx/ZGCX/S1_Project/SSC308QE_SDK/Iford_IMD00V005.0.1_fastboot/SourceCode/SSC308QE_SDK_TEXT/SSC308QE_CODEBASE/sdk/linux/init/isp/isp_init.o
 .debug_str     0x0000000000492b21     0x95c4 /home/lixx/ZGCX/S1_Project/SSC308QE_SDK/Iford_IMD00V005.0.1_fastboot/SourceCode/SSC308QE_SDK_TEXT/SSC308QE_CODEBASE/sdk/linux/init/isp/ispmid_init.o
 .debug_str     0x000000000049c0e5     0x7662 /home/lixx/ZGCX/S1_Project/SSC308QE_SDK/Iford_IMD00V005.0.1_fastboot/SourceCode/SSC308QE_SDK_TEXT/SSC308QE_CODEBASE/sdk/linux/init/isp/mload_init.o
 .debug_str     0x00000000004a3747    0x63300 /home/lixx/ZGCX/S1_Project/SSC308QE_SDK/Iford_IMD00V005.0.1_fastboot/SourceCode/SSC308QE_SDK_TEXT/SSC308QE_CODEBASE/sdk/linux/init/ipu/../../obj/uclibc/9.1.0/ipu.o
 .debug_str     0x0000000000506a47     0x65f3 /home/lixx/ZGCX/S1_Project/SSC308QE_SDK/Iford_IMD00V005.0.1_fastboot/SourceCode/SSC308QE_SDK_TEXT/SSC308QE_CODEBASE/sdk/linux/init/ipu/ipu_init.o
 .debug_str     0x000000000050d03a    0xbffaa /home/lixx/ZGCX/S1_Project/SSC308QE_SDK/Iford_IMD00V005.0.1_fastboot/SourceCode/SSC308QE_SDK_TEXT/SSC308QE_CODEBASE/sdk/linux/init/sys/../../obj/uclibc/9.1.0/sys.o
 .debug_str     0x00000000005ccfe4     0x2f6e /home/lixx/ZGCX/S1_Project/SSC308QE_SDK/Iford_IMD00V005.0.1_fastboot/SourceCode/SSC308QE_SDK_TEXT/SSC308QE_CODEBASE/sdk/linux/init/sys/cmdq_export.o
 .debug_str     0x00000000005cff52     0x553d /home/lixx/ZGCX/S1_Project/SSC308QE_SDK/Iford_IMD00V005.0.1_fastboot/SourceCode/SSC308QE_SDK_TEXT/SSC308QE_CODEBASE/sdk/linux/init/sys/cmdq_init.o
 .debug_str     0x00000000005d548f     0xe2ee /home/lixx/ZGCX/S1_Project/SSC308QE_SDK/Iford_IMD00V005.0.1_fastboot/SourceCode/SSC308QE_SDK_TEXT/SSC308QE_CODEBASE/sdk/linux/init/sys/sys_init.o
 .debug_str     0x00000000005e377d    0x811cd /home/lixx/ZGCX/S1_Project/SSC308QE_SDK/Iford_IMD00V005.0.1_fastboot/SourceCode/SSC308QE_SDK_TEXT/SSC308QE_CODEBASE/sdk/linux/init/disp/../../obj/uclibc/9.1.0/disp.o
 .debug_str     0x000000000066494a     0x86a5 /home/lixx/ZGCX/S1_Project/SSC308QE_SDK/Iford_IMD00V005.0.1_fastboot/SourceCode/SSC308QE_SDK_TEXT/SSC308QE_CODEBASE/sdk/linux/init/disp/disp_init.o
 .debug_str     0x000000000066cfef    0x3750b /home/lixx/ZGCX/S1_Project/SSC308QE_SDK/Iford_IMD00V005.0.1_fastboot/SourceCode/SSC308QE_SDK_TEXT/SSC308QE_CODEBASE/sdk/linux/init/vif/../../obj/uclibc/9.1.0/vif.o
 .debug_str     0x00000000006a44fa     0x2f95 /home/lixx/ZGCX/S1_Project/SSC308QE_SDK/Iford_IMD00V005.0.1_fastboot/SourceCode/SSC308QE_SDK_TEXT/SSC308QE_CODEBASE/sdk/linux/init/vif/vif_export.o
 .debug_str     0x00000000006a748f     0x940a /home/lixx/ZGCX/S1_Project/SSC308QE_SDK/Iford_IMD00V005.0.1_fastboot/SourceCode/SSC308QE_SDK_TEXT/SSC308QE_CODEBASE/sdk/linux/init/vif/vif_init.o
 .debug_str     0x00000000006b0899     0x4b87 /home/lixx/ZGCX/S1_Project/SSC308QE_SDK/Iford_IMD00V005.0.1_fastboot/SourceCode/SSC308QE_SDK_TEXT/SSC308QE_CODEBASE/sdk/linux/init/common/../../obj/uclibc/9.1.0/common.o
 .debug_str     0x00000000006b5420     0x6412 /home/lixx/ZGCX/S1_Project/SSC308QE_SDK/Iford_IMD00V005.0.1_fastboot/SourceCode/SSC308QE_SDK_TEXT/SSC308QE_CODEBASE/sdk/linux/init/common/common_init.o
 .debug_str     0x00000000006bb832    0x108a7 /home/lixx/ZGCX/S1_Project/SSC308QE_SDK/Iford_IMD00V005.0.1_fastboot/SourceCode/SSC308QE_SDK_TEXT/SSC308QE_CODEBASE/sdk/linux/init/ai/../../obj/uclibc/9.1.0/ai.o
 .debug_str     0x00000000006cc0d9     0x5e79 /home/lixx/ZGCX/S1_Project/SSC308QE_SDK/Iford_IMD00V005.0.1_fastboot/SourceCode/SSC308QE_SDK_TEXT/SSC308QE_CODEBASE/sdk/linux/init/ai/ai_init.o
 .debug_str     0x00000000006d1f52    0xfe1ae /home/lixx/ZGCX/S1_Project/SSC308QE_SDK/Iford_IMD00V005.0.1_fastboot/SourceCode/SSC308QE_SDK_TEXT/SSC308QE_CODEBASE/sdk/linux/init/venc/../../obj/uclibc/9.1.0/venc.o
 .debug_str     0x00000000007d0100     0x667a /home/lixx/ZGCX/S1_Project/SSC308QE_SDK/Iford_IMD00V005.0.1_fastboot/SourceCode/SSC308QE_SDK_TEXT/SSC308QE_CODEBASE/sdk/linux/init/venc/venc_init.o
 .debug_str     0x00000000007d677a    0x37edc /home/lixx/ZGCX/S1_Project/SSC308QE_SDK/Iford_IMD00V005.0.1_fastboot/SourceCode/SSC308QE_SDK_TEXT/SSC308QE_CODEBASE/sdk/linux/init/scl/../../obj/uclibc/9.1.0/scl.o
 .debug_str     0x000000000080e656      0x2d5 /home/lixx/ZGCX/S1_Project/SSC308QE_SDK/Iford_IMD00V005.0.1_fastboot/SourceCode/SSC308QE_SDK_TEXT/SSC308QE_CODEBASE/sdk/linux/init/scl/scl_export.o
 .debug_str     0x000000000080e92b     0x5f95 /home/lixx/ZGCX/S1_Project/SSC308QE_SDK/Iford_IMD00V005.0.1_fastboot/SourceCode/SSC308QE_SDK_TEXT/SSC308QE_CODEBASE/sdk/linux/init/scl/scl_init.o

.debug_loc      0x0000000000000000   0x1ef24d
 *(.debug_loc)
 .debug_loc     0x0000000000000000     0xe916 /home/lixx/ZGCX/S1_Project/SSC308QE_SDK/Iford_IMD00V005.0.1_fastboot/SourceCode/SSC308QE_SDK_TEXT/SSC308QE_CODEBASE/sdk/linux/init/sensor/../../obj/uclibc/9.1.0/sensor.o
 .debug_loc     0x000000000000e916      0x3cb /home/lixx/ZGCX/S1_Project/SSC308QE_SDK/Iford_IMD00V005.0.1_fastboot/SourceCode/SSC308QE_SDK_TEXT/SSC308QE_CODEBASE/sdk/linux/init/sensor/csi_init.o
 .debug_loc     0x000000000000ece1      0x7a9 /home/lixx/ZGCX/S1_Project/SSC308QE_SDK/Iford_IMD00V005.0.1_fastboot/SourceCode/SSC308QE_SDK_TEXT/SSC308QE_CODEBASE/sdk/linux/init/sensor/sensor_init.o
 .debug_loc     0x000000000000f48a    0x1425b /home/lixx/ZGCX/S1_Project/SSC308QE_SDK/Iford_IMD00V005.0.1_fastboot/SourceCode/SSC308QE_SDK_TEXT/SSC308QE_CODEBASE/sdk/linux/init/aio/../../obj/uclibc/9.1.0/aio.o
 .debug_loc     0x00000000000236e5      0x72f /home/lixx/ZGCX/S1_Project/SSC308QE_SDK/Iford_IMD00V005.0.1_fastboot/SourceCode/SSC308QE_SDK_TEXT/SSC308QE_CODEBASE/sdk/linux/init/aio/aio_init.o
 .debug_loc     0x0000000000023e14    0x19981 /home/lixx/ZGCX/S1_Project/SSC308QE_SDK/Iford_IMD00V005.0.1_fastboot/SourceCode/SSC308QE_SDK_TEXT/SSC308QE_CODEBASE/sdk/linux/init/rgn/../../obj/uclibc/9.1.0/rgn.o
 .debug_loc     0x000000000003d795      0x108 /home/lixx/ZGCX/S1_Project/SSC308QE_SDK/Iford_IMD00V005.0.1_fastboot/SourceCode/SSC308QE_SDK_TEXT/SSC308QE_CODEBASE/sdk/linux/init/rgn/rgn_init.o
 .debug_loc     0x000000000003d89d     0xa12b /home/lixx/ZGCX/S1_Project/SSC308QE_SDK/Iford_IMD00V005.0.1_fastboot/SourceCode/SSC308QE_SDK_TEXT/SSC308QE_CODEBASE/sdk/linux/init/ive/../../obj/uclibc/9.1.0/ive.o
 .debug_loc     0x00000000000479c8      0x174 /home/lixx/ZGCX/S1_Project/SSC308QE_SDK/Iford_IMD00V005.0.1_fastboot/SourceCode/SSC308QE_SDK_TEXT/SSC308QE_CODEBASE/sdk/linux/init/ive/ive_init.o
 .debug_loc     0x0000000000047b3c     0x7f74 /home/lixx/ZGCX/S1_Project/SSC308QE_SDK/Iford_IMD00V005.0.1_fastboot/SourceCode/SSC308QE_SDK_TEXT/SSC308QE_CODEBASE/sdk/linux/init/ao/../../obj/uclibc/9.1.0/ao.o
 .debug_loc     0x000000000004fab0     0x3cc9 /home/lixx/ZGCX/S1_Project/SSC308QE_SDK/Iford_IMD00V005.0.1_fastboot/SourceCode/SSC308QE_SDK_TEXT/SSC308QE_CODEBASE/sdk/linux/init/shadow/../../obj/uclibc/9.1.0/shadow.o
 .debug_loc     0x0000000000053779    0x94864 /home/lixx/ZGCX/S1_Project/SSC308QE_SDK/Iford_IMD00V005.0.1_fastboot/SourceCode/SSC308QE_SDK_TEXT/SSC308QE_CODEBASE/sdk/linux/init/isp/../../obj/uclibc/9.1.0/isp.o
 .debug_loc     0x00000000000e7fdd      0x517 /home/lixx/ZGCX/S1_Project/SSC308QE_SDK/Iford_IMD00V005.0.1_fastboot/SourceCode/SSC308QE_SDK_TEXT/SSC308QE_CODEBASE/sdk/linux/init/isp/isp_init.o
 .debug_loc     0x00000000000e84f4      0xde6 /home/lixx/ZGCX/S1_Project/SSC308QE_SDK/Iford_IMD00V005.0.1_fastboot/SourceCode/SSC308QE_SDK_TEXT/SSC308QE_CODEBASE/sdk/linux/init/isp/ispmid_init.o
 .debug_loc     0x00000000000e92da     0xc3e4 /home/lixx/ZGCX/S1_Project/SSC308QE_SDK/Iford_IMD00V005.0.1_fastboot/SourceCode/SSC308QE_SDK_TEXT/SSC308QE_CODEBASE/sdk/linux/init/ipu/../../obj/uclibc/9.1.0/ipu.o
 .debug_loc     0x00000000000f56be      0x21d /home/lixx/ZGCX/S1_Project/SSC308QE_SDK/Iford_IMD00V005.0.1_fastboot/SourceCode/SSC308QE_SDK_TEXT/SSC308QE_CODEBASE/sdk/linux/init/ipu/ipu_init.o
 .debug_loc     0x00000000000f58db    0x3bfa8 /home/lixx/ZGCX/S1_Project/SSC308QE_SDK/Iford_IMD00V005.0.1_fastboot/SourceCode/SSC308QE_SDK_TEXT/SSC308QE_CODEBASE/sdk/linux/init/sys/../../obj/uclibc/9.1.0/sys.o
 .debug_loc     0x0000000000131883      0x1d6 /home/lixx/ZGCX/S1_Project/SSC308QE_SDK/Iford_IMD00V005.0.1_fastboot/SourceCode/SSC308QE_SDK_TEXT/SSC308QE_CODEBASE/sdk/linux/init/sys/cmdq_init.o
 .debug_loc     0x0000000000131a59      0xf45 /home/lixx/ZGCX/S1_Project/SSC308QE_SDK/Iford_IMD00V005.0.1_fastboot/SourceCode/SSC308QE_SDK_TEXT/SSC308QE_CODEBASE/sdk/linux/init/sys/sys_init.o
 .debug_loc     0x000000000013299e    0x26ad0 /home/lixx/ZGCX/S1_Project/SSC308QE_SDK/Iford_IMD00V005.0.1_fastboot/SourceCode/SSC308QE_SDK_TEXT/SSC308QE_CODEBASE/sdk/linux/init/disp/../../obj/uclibc/9.1.0/disp.o
 .debug_loc     0x000000000015946e      0x949 /home/lixx/ZGCX/S1_Project/SSC308QE_SDK/Iford_IMD00V005.0.1_fastboot/SourceCode/SSC308QE_SDK_TEXT/SSC308QE_CODEBASE/sdk/linux/init/disp/disp_init.o
 .debug_loc     0x0000000000159db7    0x1f465 /home/lixx/ZGCX/S1_Project/SSC308QE_SDK/Iford_IMD00V005.0.1_fastboot/SourceCode/SSC308QE_SDK_TEXT/SSC308QE_CODEBASE/sdk/linux/init/vif/../../obj/uclibc/9.1.0/vif.o
 .debug_loc     0x000000000017921c      0x803 /home/lixx/ZGCX/S1_Project/SSC308QE_SDK/Iford_IMD00V005.0.1_fastboot/SourceCode/SSC308QE_SDK_TEXT/SSC308QE_CODEBASE/sdk/linux/init/vif/vif_init.o
 .debug_loc     0x0000000000179a1f     0x5e9d /home/lixx/ZGCX/S1_Project/SSC308QE_SDK/Iford_IMD00V005.0.1_fastboot/SourceCode/SSC308QE_SDK_TEXT/SSC308QE_CODEBASE/sdk/linux/init/common/../../obj/uclibc/9.1.0/common.o
 .debug_loc     0x000000000017f8bc     0x8a7b /home/lixx/ZGCX/S1_Project/SSC308QE_SDK/Iford_IMD00V005.0.1_fastboot/SourceCode/SSC308QE_SDK_TEXT/SSC308QE_CODEBASE/sdk/linux/init/ai/../../obj/uclibc/9.1.0/ai.o
 .debug_loc     0x0000000000188337    0x47c58 /home/lixx/ZGCX/S1_Project/SSC308QE_SDK/Iford_IMD00V005.0.1_fastboot/SourceCode/SSC308QE_SDK_TEXT/SSC308QE_CODEBASE/sdk/linux/init/venc/../../obj/uclibc/9.1.0/venc.o
 .debug_loc     0x00000000001cff8f      0x422 /home/lixx/ZGCX/S1_Project/SSC308QE_SDK/Iford_IMD00V005.0.1_fastboot/SourceCode/SSC308QE_SDK_TEXT/SSC308QE_CODEBASE/sdk/linux/init/venc/venc_init.o
 .debug_loc     0x00000000001d03b1    0x1ed61 /home/lixx/ZGCX/S1_Project/SSC308QE_SDK/Iford_IMD00V005.0.1_fastboot/SourceCode/SSC308QE_SDK_TEXT/SSC308QE_CODEBASE/sdk/linux/init/scl/../../obj/uclibc/9.1.0/scl.o
 .debug_loc     0x00000000001ef112      0x13b /home/lixx/ZGCX/S1_Project/SSC308QE_SDK/Iford_IMD00V005.0.1_fastboot/SourceCode/SSC308QE_SDK_TEXT/SSC308QE_CODEBASE/sdk/linux/init/scl/scl_init.o

.debug_macinfo
 *(.debug_macinfo)

.debug_weaknames
 *(.debug_weaknames)

.debug_funcnames
 *(.debug_funcnames)

.debug_typenames
 *(.debug_typenames)

.debug_varnames
 *(.debug_varnames)

.debug_pubtypes
 *(.debug_pubtypes)

.debug_ranges   0x0000000000000000     0xc1b8
 *(.debug_ranges)
 .debug_ranges  0x0000000000000000      0x430 /home/lixx/ZGCX/S1_Project/SSC308QE_SDK/Iford_IMD00V005.0.1_fastboot/SourceCode/SSC308QE_SDK_TEXT/SSC308QE_CODEBASE/sdk/linux/init/sensor/../../obj/uclibc/9.1.0/sensor.o
 .debug_ranges  0x0000000000000430       0x30 /home/lixx/ZGCX/S1_Project/SSC308QE_SDK/Iford_IMD00V005.0.1_fastboot/SourceCode/SSC308QE_SDK_TEXT/SSC308QE_CODEBASE/sdk/linux/init/sensor/csi_init.o
 .debug_ranges  0x0000000000000460      0x170 /home/lixx/ZGCX/S1_Project/SSC308QE_SDK/Iford_IMD00V005.0.1_fastboot/SourceCode/SSC308QE_SDK_TEXT/SSC308QE_CODEBASE/sdk/linux/init/sensor/sensor_init.o
 .debug_ranges  0x00000000000005d0       0x18 /home/lixx/ZGCX/S1_Project/SSC308QE_SDK/Iford_IMD00V005.0.1_fastboot/SourceCode/SSC308QE_SDK_TEXT/SSC308QE_CODEBASE/sdk/linux/init/aio/../../obj/uclibc/9.1.0/aio.o
 .debug_ranges  0x00000000000005e8      0x950 /home/lixx/ZGCX/S1_Project/SSC308QE_SDK/Iford_IMD00V005.0.1_fastboot/SourceCode/SSC308QE_SDK_TEXT/SSC308QE_CODEBASE/sdk/linux/init/rgn/../../obj/uclibc/9.1.0/rgn.o
 .debug_ranges  0x0000000000000f38      0x998 /home/lixx/ZGCX/S1_Project/SSC308QE_SDK/Iford_IMD00V005.0.1_fastboot/SourceCode/SSC308QE_SDK_TEXT/SSC308QE_CODEBASE/sdk/linux/init/ive/../../obj/uclibc/9.1.0/ive.o
 .debug_ranges  0x00000000000018d0      0x208 /home/lixx/ZGCX/S1_Project/SSC308QE_SDK/Iford_IMD00V005.0.1_fastboot/SourceCode/SSC308QE_SDK_TEXT/SSC308QE_CODEBASE/sdk/linux/init/ao/../../obj/uclibc/9.1.0/ao.o
 .debug_ranges  0x0000000000001ad8      0x1a8 /home/lixx/ZGCX/S1_Project/SSC308QE_SDK/Iford_IMD00V005.0.1_fastboot/SourceCode/SSC308QE_SDK_TEXT/SSC308QE_CODEBASE/sdk/linux/init/shadow/../../obj/uclibc/9.1.0/shadow.o
 .debug_ranges  0x0000000000001c80     0x24b8 /home/lixx/ZGCX/S1_Project/SSC308QE_SDK/Iford_IMD00V005.0.1_fastboot/SourceCode/SSC308QE_SDK_TEXT/SSC308QE_CODEBASE/sdk/linux/init/isp/../../obj/uclibc/9.1.0/isp.o
 .debug_ranges  0x0000000000004138       0x18 /home/lixx/ZGCX/S1_Project/SSC308QE_SDK/Iford_IMD00V005.0.1_fastboot/SourceCode/SSC308QE_SDK_TEXT/SSC308QE_CODEBASE/sdk/linux/init/isp/isp_init.o
 .debug_ranges  0x0000000000004150      0x190 /home/lixx/ZGCX/S1_Project/SSC308QE_SDK/Iford_IMD00V005.0.1_fastboot/SourceCode/SSC308QE_SDK_TEXT/SSC308QE_CODEBASE/sdk/linux/init/isp/ispmid_init.o
 .debug_ranges  0x00000000000042e0      0x200 /home/lixx/ZGCX/S1_Project/SSC308QE_SDK/Iford_IMD00V005.0.1_fastboot/SourceCode/SSC308QE_SDK_TEXT/SSC308QE_CODEBASE/sdk/linux/init/ipu/../../obj/uclibc/9.1.0/ipu.o
 .debug_ranges  0x00000000000044e0     0x1af0 /home/lixx/ZGCX/S1_Project/SSC308QE_SDK/Iford_IMD00V005.0.1_fastboot/SourceCode/SSC308QE_SDK_TEXT/SSC308QE_CODEBASE/sdk/linux/init/sys/../../obj/uclibc/9.1.0/sys.o
 .debug_ranges  0x0000000000005fd0      0x168 /home/lixx/ZGCX/S1_Project/SSC308QE_SDK/Iford_IMD00V005.0.1_fastboot/SourceCode/SSC308QE_SDK_TEXT/SSC308QE_CODEBASE/sdk/linux/init/sys/sys_init.o
 .debug_ranges  0x0000000000006138      0xf50 /home/lixx/ZGCX/S1_Project/SSC308QE_SDK/Iford_IMD00V005.0.1_fastboot/SourceCode/SSC308QE_SDK_TEXT/SSC308QE_CODEBASE/sdk/linux/init/disp/../../obj/uclibc/9.1.0/disp.o
 .debug_ranges  0x0000000000007088       0x30 /home/lixx/ZGCX/S1_Project/SSC308QE_SDK/Iford_IMD00V005.0.1_fastboot/SourceCode/SSC308QE_SDK_TEXT/SSC308QE_CODEBASE/sdk/linux/init/disp/disp_init.o
 .debug_ranges  0x00000000000070b8     0x20e8 /home/lixx/ZGCX/S1_Project/SSC308QE_SDK/Iford_IMD00V005.0.1_fastboot/SourceCode/SSC308QE_SDK_TEXT/SSC308QE_CODEBASE/sdk/linux/init/vif/../../obj/uclibc/9.1.0/vif.o
 .debug_ranges  0x00000000000091a0      0x188 /home/lixx/ZGCX/S1_Project/SSC308QE_SDK/Iford_IMD00V005.0.1_fastboot/SourceCode/SSC308QE_SDK_TEXT/SSC308QE_CODEBASE/sdk/linux/init/vif/vif_init.o
 .debug_ranges  0x0000000000009328      0x340 /home/lixx/ZGCX/S1_Project/SSC308QE_SDK/Iford_IMD00V005.0.1_fastboot/SourceCode/SSC308QE_SDK_TEXT/SSC308QE_CODEBASE/sdk/linux/init/common/../../obj/uclibc/9.1.0/common.o
 .debug_ranges  0x0000000000009668      0x1e0 /home/lixx/ZGCX/S1_Project/SSC308QE_SDK/Iford_IMD00V005.0.1_fastboot/SourceCode/SSC308QE_SDK_TEXT/SSC308QE_CODEBASE/sdk/linux/init/ai/../../obj/uclibc/9.1.0/ai.o
 .debug_ranges  0x0000000000009848     0x1ee8 /home/lixx/ZGCX/S1_Project/SSC308QE_SDK/Iford_IMD00V005.0.1_fastboot/SourceCode/SSC308QE_SDK_TEXT/SSC308QE_CODEBASE/sdk/linux/init/venc/../../obj/uclibc/9.1.0/venc.o
 .debug_ranges  0x000000000000b730      0xa88 /home/lixx/ZGCX/S1_Project/SSC308QE_SDK/Iford_IMD00V005.0.1_fastboot/SourceCode/SSC308QE_SDK_TEXT/SSC308QE_CODEBASE/sdk/linux/init/scl/../../obj/uclibc/9.1.0/scl.o

.debug_macro
 *(.debug_macro)

.debug_addr
 *(.debug_addr)

.gnu.attributes
 *(.gnu.attributes)

.note.gnu.arm.ident
 *(.note.gnu.arm.ident)
OUTPUT(/home/lixx/ZGCX/S1_Project/SSC308QE_SDK/Iford_IMD00V005.0.1_fastboot/SourceCode/SSC308QE_SDK_TEXT/SSC308QE_CODEBASE/sdk/linux/init/sstar_mi.o elf32-littlearm)
